

Microchip MPLAB XC8 Assembler V2.10 build 88905656 
                                                                                               Wed Dec 11 03:13:53 2019

Microchip MPLAB XC8 C Compiler v2.10 (Free license) build 20190730164152 Og1 
     1                           	processor	18F4550
     2                           	fnconf	rparam,??,?,0
     3                           	opt	pw 120
     4                           	opt	flic
     5                           	psect	nvCOMRAM,global,class=COMRAM,space=1,delta=1,noexec
     6                           	psect	smallconst,global,reloc=2,class=SMALLCONST,delta=1,noexec
     7                           	psect	cinit,global,reloc=2,class=CODE,delta=1
     8                           	psect	bssCOMRAM,global,class=COMRAM,space=1,delta=1,noexec
     9                           	psect	cstackCOMRAM,global,class=COMRAM,space=1,delta=1,noexec
    10                           	psect	text0,global,reloc=2,class=CODE,delta=1
    11                           	psect	text1,global,reloc=2,class=CODE,delta=1
    12                           	psect	text2,global,reloc=2,class=CODE,delta=1
    13                           	psect	text3,global,reloc=2,class=CODE,delta=1
    14                           	psect	text4,global,reloc=2,class=CODE,delta=1
    15                           	psect	text5,global,reloc=2,class=CODE,delta=1
    16                           	psect	text6,global,reloc=2,class=CODE,delta=1
    17                           	psect	text7,global,reloc=2,class=CODE,delta=1
    18                           	psect	text8,global,reloc=2,class=CODE,delta=1
    19                           	psect	text9,global,reloc=2,class=CODE,delta=1
    20                           	psect	text10,global,reloc=2,class=CODE,delta=1
    21                           	psect	text11,global,reloc=2,class=CODE,delta=1,group=1
    22                           	psect	text12,global,reloc=2,class=CODE,delta=1,group=1
    23                           	psect	text13,global,reloc=2,class=CODE,delta=1
    24                           	psect	text14,global,reloc=2,class=CODE,delta=1
    25                           	psect	text15,global,reloc=2,class=CODE,delta=1
    26                           	psect	text16,global,reloc=2,class=CODE,delta=1
    27                           	psect	text17,global,reloc=2,class=CODE,delta=1,group=1
    28                           	psect	text18,global,reloc=2,class=CODE,delta=1
    29                           	psect	text19,global,reloc=2,class=CODE,delta=1
    30                           	psect	text20,global,reloc=2,class=CODE,delta=1
    31                           	psect	text21,global,reloc=2,class=CODE,delta=1
    32                           	psect	text22,global,reloc=2,class=CODE,delta=1
    33                           	psect	text23,global,reloc=2,class=CODE,delta=1,group=1
    34                           	psect	intcode,global,reloc=2,class=CODE,delta=1
    35                           	psect	intcode_body,global,reloc=2,class=CODE,delta=1
    36                           	psect	text25,global,reloc=2,class=CODE,delta=1
    37                           	psect	text26,global,reloc=2,class=CODE,delta=1
    38                           	psect	text27,global,reloc=2,class=CODE,delta=1
    39                           	psect	text28,global,reloc=2,class=CODE,delta=1
    40                           	psect	text29,global,reloc=2,class=CODE,delta=1
    41                           	psect	text30,global,reloc=2,class=CODE,delta=1
    42                           	psect	intsave_regs,global,class=BIGRAM,space=1,delta=1,noexec
    43                           	psect	rparam,global,class=COMRAM,space=1,delta=1,noexec
    44                           	psect	temp,global,ovrld,common,class=COMRAM,space=1,delta=1
    45  0000                     
    46                           ; Version 2.10
    47                           ; Generated 31/07/2019 GMT
    48                           ; 
    49                           ; Copyright © 2019, Microchip Technology Inc. and its subsidiaries ("Microchip")
    50                           ; All rights reserved.
    51                           ; 
    52                           ; This software is developed by Microchip Technology Inc. and its subsidiaries ("Microch
      +                          ip").
    53                           ; 
    54                           ; Redistribution and use in source and binary forms, with or without modification, are
    55                           ; permitted provided that the following conditions are met:
    56                           ; 
    57                           ;     1. Redistributions of source code must retain the above copyright notice, this lis
      +                          t of
    58                           ;        conditions and the following disclaimer.
    59                           ; 
    60                           ;     2. Redistributions in binary form must reproduce the above copyright notice, this 
      +                          list
    61                           ;        of conditions and the following disclaimer in the documentation and/or other
    62                           ;        materials provided with the distribution.
    63                           ; 
    64                           ;     3. Microchip's name may not be used to endorse or promote products derived from th
      +                          is
    65                           ;        software without specific prior written permission.
    66                           ; 
    67                           ; THIS SOFTWARE IS PROVIDED BY MICROCHIP "AS IS" AND ANY EXPRESS OR IMPLIED WARRANTIES,
    68                           ; INCLUDING, BUT NOT LIMITED TO, THE IMPLIED WARRANTIES OF MERCHANTABILITY AND FITNESS F
      +                          OR
    69                           ; PURPOSE ARE DISCLAIMED.  IN NO EVENT SHALL MICROCHIP BE LIABLE FOR ANY DIRECT, INDIREC
      +                          T,
    70                           ; INCIDENTAL, SPECIAL, EXEMPLARY, OR CONSEQUENTIAL DAMAGES (INCLUDING BUT NOT LIMITED TO
    71                           ; PROCUREMENT OF SUBSTITUTE GOODS OR SERVICES; LOSS OF USE, DATA OR PROFITS; OR BUSINESS
    72                           ; INTERRUPTION) HOWSOEVER CAUSED AND ON ANY THEORY OF LIABILITY, WHETHER IN CONTRACT, ST
      +                          RICT
    73                           ; LIABILITY, OR TORT (INCLUDING NEGLIGENCE OR OTHERWISE) ARISING IN ANY WAY OUT OF THE U
      +                          SE OF
    74                           ; THIS SOFTWARE, EVEN IF ADVISED OF THE POSSIBILITY OF SUCH DAMAGE.
    75                           ; 
    76                           ; 
    77                           ; Code-generator required, PIC18F4550 Definitions
    78                           ; 
    79                           ; SFR Addresses
    80  0000                     
    81                           	psect	nvCOMRAM
    82  00003F                     __pnvCOMRAM:
    83                           	opt callstack 0
    84  00003F                     _CoordAntY:
    85                           	opt callstack 0
    86  00003F                     	ds	2
    87  000041                     _CoordAntX:
    88                           	opt callstack 0
    89  000041                     	ds	2
    90  0000                     _TMR2	set	4044
    91  0000                     _T2CON	set	4042
    92  0000                     _CCPR2L	set	4027
    93  0000                     _CCP2CON	set	4026
    94  0000                     _CCPR1L	set	4030
    95  0000                     _CCP1CON	set	4029
    96  0000                     _PR2	set	4043
    97  0000                     _TRISB	set	3987
    98  0000                     _LATB	set	3978
    99  0000                     _PORTB	set	3969
   100  0000                     _TRISC	set	3988
   101  0000                     _LATC	set	3979
   102  0000                     _PORTC	set	3970
   103  0000                     _TRISD	set	3989
   104  0000                     _LATD	set	3980
   105  0000                     _PORTD	set	3971
   106  0000                     _ADCON1	set	4033
   107  0000                     _CVRCONbits	set	4021
   108  0000                     _CMCON	set	4020
   109  0000                     _OSCCON	set	4051
   110  0000                     _INTCON2bits	set	4081
   111  0000                     _RCONbits	set	4048
   112  0000                     _PORTCbits	set	3970
   113  0000                     _PORTDbits	set	3971
   114  0000                     _INTCON3bits	set	4080
   115  0000                     _PORTBbits	set	3969
   116  0000                     _INTCONbits	set	4082
   117  0000                     _RCSTA1bits	set	4011
   118  0000                     _TXSTA1bits	set	4012
   119  0000                     _RCREG	set	4014
   120  0000                     _TXREG	set	4013
   121  0000                     _PIR1bits	set	3998
   122  0000                     _RCSTAbits	set	4011
   123  0000                     _TXSTAbits	set	4012
   124  0000                     _SPBRG	set	4015
   125  0000                     _TRISCbits	set	3988
   126  0000                     _TMR2ON	set	32338
   127                           
   128                           	psect	smallconst
   129  000800                     __psmallconst:
   130                           	opt callstack 0
   131  000800  00                 	db	0
   132  000801                     STR_5:
   133  000801  54                 	db	84	;'T'
   134  000802  6F                 	db	111	;'o'
   135  000803  75                 	db	117	;'u'
   136  000804  63                 	db	99	;'c'
   137  000805  68                 	db	104	;'h'
   138  000806  20                 	db	32
   139  000807  49                 	db	73	;'I'
   140  000808  6E                 	db	110	;'n'
   141  000809  73                 	db	115	;'s'
   142  00080A  74                 	db	116	;'t'
   143  00080B  72                 	db	114	;'r'
   144  00080C  75                 	db	117	;'u'
   145  00080D  63                 	db	99	;'c'
   146  00080E  63                 	db	99	;'c'
   147  00080F  74                 	db	116	;'t'
   148  000810  69                 	db	105	;'i'
   149  000811  6F                 	db	111	;'o'
   150  000812  6E                 	db	110	;'n'
   151  000813  20                 	db	32
   152  000814  69                 	db	105	;'i'
   153  000815  73                 	db	115	;'s'
   154  000816  20                 	db	32
   155  000817  6E                 	db	110	;'n'
   156  000818  6F                 	db	111	;'o'
   157  000819  74                 	db	116	;'t'
   158  00081A  20                 	db	32
   159  00081B  72                 	db	114	;'r'
   160  00081C  65                 	db	101	;'e'
   161  00081D  63                 	db	99	;'c'
   162  00081E  6F                 	db	111	;'o'
   163  00081F  67                 	db	103	;'g'
   164  000820  6E                 	db	110	;'n'
   165  000821  69                 	db	105	;'i'
   166  000822  7A                 	db	122	;'z'
   167  000823  65                 	db	101	;'e'
   168  000824  64                 	db	100	;'d'
   169  000825  00                 	db	0
   170  000826                     STR_4:
   171  000826  46                 	db	70	;'F'
   172  000827  72                 	db	114	;'r'
   173  000828  61                 	db	97	;'a'
   174  000829  6D                 	db	109	;'m'
   175  00082A  65                 	db	101	;'e'
   176  00082B  73                 	db	115	;'s'
   177  00082C  20                 	db	32
   178  00082D  61                 	db	97	;'a'
   179  00082E  72                 	db	114	;'r'
   180  00082F  65                 	db	101	;'e'
   181  000830  20                 	db	32
   182  000831  6E                 	db	110	;'n'
   183  000832  6F                 	db	111	;'o'
   184  000833  74                 	db	116	;'t'
   185  000834  20                 	db	32
   186  000835  69                 	db	105	;'i'
   187  000836  6E                 	db	110	;'n'
   188  000837  73                 	db	115	;'s'
   189  000838  65                 	db	101	;'e'
   190  000839  72                 	db	114	;'r'
   191  00083A  74                 	db	116	;'t'
   192  00083B  65                 	db	101	;'e'
   193  00083C  64                 	db	100	;'d'
   194  00083D  20                 	db	32
   195  00083E  63                 	db	99	;'c'
   196  00083F  6F                 	db	111	;'o'
   197  000840  72                 	db	114	;'r'
   198  000841  72                 	db	114	;'r'
   199  000842  65                 	db	101	;'e'
   200  000843  63                 	db	99	;'c'
   201  000844  74                 	db	116	;'t'
   202  000845  6C                 	db	108	;'l'
   203  000846  79                 	db	121	;'y'
   204  000847  00                 	db	0
   205  000848                     STR_3:
   206  000848  43                 	db	67	;'C'
   207  000849  6F                 	db	111	;'o'
   208  00084A  6D                 	db	109	;'m'
   209  00084B  6D                 	db	109	;'m'
   210  00084C  61                 	db	97	;'a'
   211  00084D  6E                 	db	110	;'n'
   212  00084E  64                 	db	100	;'d'
   213  00084F  73                 	db	115	;'s'
   214  000850  20                 	db	32
   215  000851  77                 	db	119	;'w'
   216  000852  65                 	db	101	;'e'
   217  000853  72                 	db	114	;'r'
   218  000854  65                 	db	101	;'e'
   219  000855  20                 	db	32
   220  000856  6E                 	db	110	;'n'
   221  000857  6F                 	db	111	;'o'
   222  000858  74                 	db	116	;'t'
   223  000859  20                 	db	32
   224  00085A  72                 	db	114	;'r'
   225  00085B  65                 	db	101	;'e'
   226  00085C  63                 	db	99	;'c'
   227  00085D  6F                 	db	111	;'o'
   228  00085E  67                 	db	103	;'g'
   229  00085F  6E                 	db	110	;'n'
   230  000860  69                 	db	105	;'i'
   231  000861  7A                 	db	122	;'z'
   232  000862  65                 	db	101	;'e'
   233  000863  64                 	db	100	;'d'
   234  000864  00                 	db	0
   235  000865                     STR_6:
   236  000865  53                 	db	83	;'S'
   237  000866  75                 	db	117	;'u'
   238  000867  72                 	db	114	;'r'
   239  000868  70                 	db	112	;'p'
   240  000869  61                 	db	97	;'a'
   241  00086A  73                 	db	115	;'s'
   242  00086B  73                 	db	115	;'s'
   243  00086C  65                 	db	101	;'e'
   244  00086D  73                 	db	115	;'s'
   245  00086E  20                 	db	32
   246  00086F  63                 	db	99	;'c'
   247  000870  6F                 	db	111	;'o'
   248  000871  6F                 	db	111	;'o'
   249  000872  72                 	db	114	;'r'
   250  000873  64                 	db	100	;'d'
   251  000874  69                 	db	105	;'i'
   252  000875  6E                 	db	110	;'n'
   253  000876  61                 	db	97	;'a'
   254  000877  74                 	db	116	;'t'
   255  000878  65                 	db	101	;'e'
   256  000879  73                 	db	115	;'s'
   257  00087A  20                 	db	32
   258  00087B  73                 	db	115	;'s'
   259  00087C  69                 	db	105	;'i'
   260  00087D  7A                 	db	122	;'z'
   261  00087E  65                 	db	101	;'e'
   262  00087F  00                 	db	0
   263  000880                     STR_7:
   264  000880  56                 	db	86	;'V'
   265  000881  65                 	db	101	;'e'
   266  000882  72                 	db	114	;'r'
   267  000883  69                 	db	105	;'i'
   268  000884  66                 	db	102	;'f'
   269  000885  79                 	db	121	;'y'
   270  000886  20                 	db	32
   271  000887  43                 	db	67	;'C'
   272  000888  6F                 	db	111	;'o'
   273  000889  6D                 	db	109	;'m'
   274  00088A  70                 	db	112	;'p'
   275  00088B  6C                 	db	108	;'l'
   276  00088C  65                 	db	101	;'e'
   277  00088D  74                 	db	116	;'t'
   278  00088E  65                 	db	101	;'e'
   279  00088F  64                 	db	100	;'d'
   280  000890  00                 	db	0
   281  000891                     STR_2:
   282  000891  45                 	db	69	;'E'
   283  000892  6E                 	db	110	;'n'
   284  000893  74                 	db	116	;'t'
   285  000894  65                 	db	101	;'e'
   286  000895  72                 	db	114	;'r'
   287  000896  20                 	db	32
   288  000897  63                 	db	99	;'c'
   289  000898  6F                 	db	111	;'o'
   290  000899  6D                 	db	109	;'m'
   291  00089A  6D                 	db	109	;'m'
   292  00089B  61                 	db	97	;'a'
   293  00089C  6E                 	db	110	;'n'
   294  00089D  64                 	db	100	;'d'
   295  00089E  00                 	db	0
   296  00089F                     STR_8:
   297  00089F  53                 	db	83	;'S'
   298  0008A0  69                 	db	105	;'i'
   299  0008A1  20                 	db	32
   300  0008A2  65                 	db	101	;'e'
   301  0008A3  6E                 	db	110	;'n'
   302  0008A4  74                 	db	116	;'t'
   303  0008A5  72                 	db	114	;'r'
   304  0008A6  6F                 	db	111	;'o'
   305  0008A7  20                 	db	32
   306  0008A8  61                 	db	97	;'a'
   307  0008A9  20                 	db	32
   308  0008AA  78                 	db	120	;'x'
   309  0008AB  00                 	db	0
   310  0008AC                     STR_10:
   311  0008AC  53                 	db	83	;'S'
   312  0008AD  69                 	db	105	;'i'
   313  0008AE  20                 	db	32
   314  0008AF  65                 	db	101	;'e'
   315  0008B0  6E                 	db	110	;'n'
   316  0008B1  74                 	db	116	;'t'
   317  0008B2  72                 	db	114	;'r'
   318  0008B3  6F                 	db	111	;'o'
   319  0008B4  20                 	db	32
   320  0008B5  61                 	db	97	;'a'
   321  0008B6  20                 	db	32
   322  0008B7  79                 	db	121	;'y'
   323  0008B8  00                 	db	0
   324  0008B9                     STR_9:
   325  0008B9  53                 	db	83	;'S'
   326  0008BA  61                 	db	97	;'a'
   327  0008BB  6C                 	db	108	;'l'
   328  0008BC  69                 	db	105	;'i'
   329  0008BD  6F                 	db	111	;'o'
   330  0008BE  20                 	db	32
   331  0008BF  64                 	db	100	;'d'
   332  0008C0  65                 	db	101	;'e'
   333  0008C1  20                 	db	32
   334  0008C2  78                 	db	120	;'x'
   335  0008C3  00                 	db	0
   336  0008C4                     STR_11:
   337  0008C4  53                 	db	83	;'S'
   338  0008C5  61                 	db	97	;'a'
   339  0008C6  6C                 	db	108	;'l'
   340  0008C7  69                 	db	105	;'i'
   341  0008C8  6F                 	db	111	;'o'
   342  0008C9  20                 	db	32
   343  0008CA  64                 	db	100	;'d'
   344  0008CB  65                 	db	101	;'e'
   345  0008CC  20                 	db	32
   346  0008CD  79                 	db	121	;'y'
   347  0008CE  00                 	db	0
   348  0008CF                     STR_1:
   349  0008CF  57                 	db	87	;'W'
   350  0008D0  61                 	db	97	;'a'
   351  0008D1  69                 	db	105	;'i'
   352  0008D2  74                 	db	116	;'t'
   353  0008D3  69                 	db	105	;'i'
   354  0008D4  6E                 	db	110	;'n'
   355  0008D5  67                 	db	103	;'g'
   356  0008D6  2E                 	db	46
   357  0008D7  2E                 	db	46
   358  0008D8  2E                 	db	46
   359  0008D9  00                 	db	0
   360  0008DA                     STR_13:
   361  0008DA  53                 	db	83	;'S'
   362  0008DB  6C                 	db	108	;'l'
   363  0008DC  69                 	db	105	;'i'
   364  0008DD  64                 	db	100	;'d'
   365  0008DE  65                 	db	101	;'e'
   366  0008DF  00                 	db	0
   367  0008E0                     STR_12:
   368  0008E0  43                 	db	67	;'C'
   369  0008E1  6C                 	db	108	;'l'
   370  0008E2  69                 	db	105	;'i'
   371  0008E3  63                 	db	99	;'c'
   372  0008E4  6B                 	db	107	;'k'
   373  0008E5  00                 	db	0
   374                           
   375                           ; #config settings
   376  0008E6  00                 	db	0	; dummy byte at the end
   377  0000                     
   378                           	psect	cinit
   379  001658                     __pcinit:
   380                           	opt callstack 0
   381  001658                     start_initialization:
   382                           	opt callstack 0
   383  001658                     __initialization:
   384                           	opt callstack 0
   385                           
   386                           ; Clear objects allocated to COMRAM (27 bytes)
   387  001658  EE00  F024         	lfsr	0,__pbssCOMRAM
   388  00165C  0E1B               	movlw	27
   389  00165E                     clear_0:
   390  00165E  6AEE               	clrf	postinc0,c
   391  001660  06E8               	decf	wreg,f,c
   392  001662  E1FD               	bnz	clear_0
   393  001664                     end_of_initialization:
   394                           	opt callstack 0
   395  001664                     __end_of__initialization:
   396                           	opt callstack 0
   397  001664  9043               	bcf	int$flags,0,c	;clear compiler interrupt flag (level 1)
   398  001666  9243               	bcf	int$flags,1,c	;clear compiler interrupt flag (level 2)
   399  001668  0E00               	movlw	low (__Lmediumconst shr (0+16))
   400  00166A  6EF8               	movwf	tblptru,c
   401  00166C  0100               	movlb	0
   402  00166E  EF53  F007         	goto	_main	;jump to C main() function
   403                           
   404                           	psect	bssCOMRAM
   405  000024                     __pbssCOMRAM:
   406                           	opt callstack 0
   407  000024                     _FlagDirectionY:
   408                           	opt callstack 0
   409  000024                     	ds	2
   410  000026                     _FlagDirectionX:
   411                           	opt callstack 0
   412  000026                     	ds	2
   413  000028                     _StepsOnY:
   414                           	opt callstack 0
   415  000028                     	ds	2
   416  00002A                     _StepsOnX:
   417                           	opt callstack 0
   418  00002A                     	ds	2
   419  00002C                     _ons:
   420                           	opt callstack 0
   421  00002C                     	ds	2
   422  00002E                     _ActualSteps:
   423                           	opt callstack 0
   424  00002E                     	ds	2
   425  000030                     _ControlFlagVerification:
   426                           	opt callstack 0
   427  000030                     	ds	2
   428  000032                     _click:
   429                           	opt callstack 0
   430  000032                     	ds	1
   431  000033                     _NextState:
   432                           	opt callstack 0
   433  000033                     	ds	1
   434  000034                     _CoordRelatY:
   435                           	opt callstack 0
   436  000034                     	ds	2
   437  000036                     _CoordRelatX:
   438                           	opt callstack 0
   439  000036                     	ds	2
   440  000038                     _cord_y:
   441                           	opt callstack 0
   442  000038                     	ds	2
   443  00003A                     _cord_x:
   444                           	opt callstack 0
   445  00003A                     	ds	2
   446  00003C                     _Par2:
   447                           	opt callstack 0
   448  00003C                     	ds	1
   449  00003D                     _letter:
   450                           	opt callstack 0
   451  00003D                     	ds	1
   452  00003E                     _Par1:
   453                           	opt callstack 0
   454  00003E                     	ds	1
   455                           
   456                           	psect	cstackCOMRAM
   457  000001                     __pcstackCOMRAM:
   458                           	opt callstack 0
   459  000001                     i2UARTWrite@data:
   460                           	opt callstack 0
   461  000001                     i2ContarPulsos@pasos:
   462                           	opt callstack 0
   463                           
   464                           ; 2 bytes @ 0x0
   465  000001                     	ds	2
   466  000003                     ??_INT_ISR:
   467  000003                     
   468                           ; 1 bytes @ 0x2
   469  000003                     	ds	1
   470  000004                     ?___wmul:
   471                           	opt callstack 0
   472  000004                     ?___lwmod:
   473                           	opt callstack 0
   474  000004                     ?___aldiv:
   475                           	opt callstack 0
   476  000004                     UARTWrite@data:
   477                           	opt callstack 0
   478  000004                     UARTRead@Lecture:
   479                           	opt callstack 0
   480  000004                     ContarPulsos@pasos:
   481                           	opt callstack 0
   482  000004                     ___wmul@multiplier:
   483                           	opt callstack 0
   484  000004                     ___lwmod@dividend:
   485                           	opt callstack 0
   486  000004                     ___aldiv@dividend:
   487                           	opt callstack 0
   488                           
   489                           ; 4 bytes @ 0x3
   490  000004                     	ds	1
   491  000005                     ?_coord:
   492                           	opt callstack 0
   493  000005                     coord@P1:
   494                           	opt callstack 0
   495  000005                     myPrintf@PointString:
   496                           	opt callstack 0
   497                           
   498                           ; 2 bytes @ 0x4
   499  000005                     	ds	1
   500  000006                     ___wmul@multiplicand:
   501                           	opt callstack 0
   502  000006                     ___lwmod@divisor:
   503                           	opt callstack 0
   504                           
   505                           ; 2 bytes @ 0x5
   506  000006                     	ds	1
   507  000007                     ??_myPrintf:
   508  000007                     coord@L:
   509                           	opt callstack 0
   510                           
   511                           ; 2 bytes @ 0x6
   512  000007                     	ds	1
   513  000008                     ___lwmod@counter:
   514                           	opt callstack 0
   515  000008                     ___wmul@product:
   516                           	opt callstack 0
   517  000008                     ___aldiv@divisor:
   518                           	opt callstack 0
   519                           
   520                           ; 4 bytes @ 0x7
   521  000008                     	ds	1
   522  000009                     ?___lwdiv:
   523                           	opt callstack 0
   524  000009                     myPrintf@i:
   525                           	opt callstack 0
   526  000009                     coord@x:
   527                           	opt callstack 0
   528  000009                     ___lwdiv@dividend:
   529                           	opt callstack 0
   530                           
   531                           ; 2 bytes @ 0x8
   532  000009                     	ds	1
   533  00000A                     ??_Movement:
   534  00000A                     
   535                           ; 1 bytes @ 0x9
   536  00000A                     	ds	1
   537  00000B                     coord@y:
   538                           	opt callstack 0
   539  00000B                     ___lwdiv@divisor:
   540                           	opt callstack 0
   541                           
   542                           ; 2 bytes @ 0xA
   543  00000B                     	ds	1
   544  00000C                     ___aldiv@counter:
   545                           	opt callstack 0
   546                           
   547                           ; 1 bytes @ 0xB
   548  00000C                     	ds	1
   549  00000D                     ___aldiv@sign:
   550                           	opt callstack 0
   551  00000D                     coord@P2:
   552                           	opt callstack 0
   553  00000D                     ___lwdiv@quotient:
   554                           	opt callstack 0
   555                           
   556                           ; 2 bytes @ 0xC
   557  00000D                     	ds	1
   558  00000E                     ___aldiv@quotient:
   559                           	opt callstack 0
   560                           
   561                           ; 4 bytes @ 0xD
   562  00000E                     	ds	1
   563  00000F                     ??_coord:
   564  00000F                     ___lwdiv@counter:
   565                           	opt callstack 0
   566                           
   567                           ; 1 bytes @ 0xE
   568  00000F                     	ds	1
   569  000010                     PrintMyActulPosition@a:
   570                           	opt callstack 0
   571                           
   572                           ; 3 bytes @ 0xF
   573  000010                     	ds	2
   574  000012                     UARTConfi@BAUD:
   575                           	opt callstack 0
   576                           
   577                           ; 2 bytes @ 0x11
   578  000012                     	ds	1
   579  000013                     PrintMyActulPosition@b:
   580                           	opt callstack 0
   581  000013                     coord@buffer:
   582                           	opt callstack 0
   583                           
   584                           ; 9 bytes @ 0x12
   585  000013                     	ds	1
   586  000014                     _UARTConfi$2004:
   587                           	opt callstack 0
   588                           
   589                           ; 4 bytes @ 0x13
   590  000014                     	ds	2
   591  000016                     _PrintMyActulPosition$2005:
   592                           	opt callstack 0
   593                           
   594                           ; 2 bytes @ 0x15
   595  000016                     	ds	2
   596  000018                     PrintMyActulPosition@i:
   597                           	opt callstack 0
   598                           
   599                           ; 2 bytes @ 0x17
   600  000018                     	ds	2
   601  00001A                     PrintMyActulPosition@i_811:
   602                           	opt callstack 0
   603                           
   604                           ; 2 bytes @ 0x19
   605  00001A                     	ds	2
   606  00001C                     coord@read:
   607                           	opt callstack 0
   608                           
   609                           ; 1 bytes @ 0x1B
   610  00001C                     	ds	2
   611  00001E                     coord@counterRevision:
   612                           	opt callstack 0
   613                           
   614                           ; 1 bytes @ 0x1D
   615  00001E                     	ds	1
   616  00001F                     coord@i:
   617                           	opt callstack 0
   618                           
   619                           ; 2 bytes @ 0x1E
   620  00001F                     	ds	2
   621  000021                     coord@n:
   622                           	opt callstack 0
   623                           
   624                           ; 1 bytes @ 0x20
   625  000021                     	ds	1
   626  000022                     ??_verification:
   627  000022                     
   628                           ; 1 bytes @ 0x21
   629  000022                     	ds	2
   630  000024                     
   631                           ; 1 bytes @ 0x23
   632 ;;
   633 ;;Main: autosize = 0, tempsize = 0, incstack = 0, save=0
   634 ;;
   635 ;; *************** function _main *****************
   636 ;; Defined at:
   637 ;;		line 45 in file "main.c"
   638 ;; Parameters:    Size  Location     Type
   639 ;;		None
   640 ;; Auto vars:     Size  Location     Type
   641 ;;		None
   642 ;; Return value:  Size  Location     Type
   643 ;;                  1    wreg      void 
   644 ;; Registers used:
   645 ;;		wreg, fsr2l, fsr2h, status,2, status,0, tblptrl, tblptrh, tblptru, prodl, prodh, cstack
   646 ;; Tracked objects:
   647 ;;		On entry : 0/0
   648 ;;		On exit  : 0/0
   649 ;;		Unchanged: 0/0
   650 ;; Data sizes:     COMRAM   BANK0   BANK1   BANK2   BANK3   BANK4   BANK5   BANK6   BANK7
   651 ;;      Params:         0       0       0       0       0       0       0       0       0
   652 ;;      Locals:         0       0       0       0       0       0       0       0       0
   653 ;;      Temps:          0       0       0       0       0       0       0       0       0
   654 ;;      Totals:         0       0       0       0       0       0       0       0       0
   655 ;;Total ram usage:        0 bytes
   656 ;; Hardware stack levels required when called:    8
   657 ;; This function calls:
   658 ;;		_Configuracion
   659 ;;		_Movement
   660 ;;		_PrintMyActulPosition
   661 ;;		_myPrintf
   662 ;;		_verification
   663 ;; This function is called by:
   664 ;;		Startup code after reset
   665 ;; This function uses a non-reentrant model
   666 ;;
   667                           
   668                           	psect	text0
   669  000EA6                     __ptext0:
   670                           	opt callstack 0
   671  000EA6                     _main:
   672                           	opt callstack 23
   673  000EA6                     
   674                           ;main.c: 47:     Configuracion();
   675  000EA6  EC99  F009         	call	_Configuracion	;wreg free
   676  000EAA                     
   677                           ;main.c: 50:     CoordAntX=1;
   678  000EAA  0E00               	movlw	0
   679  000EAC  6E42               	movwf	(_CoordAntX+1)^0,c
   680  000EAE  0E01               	movlw	1
   681  000EB0  6E41               	movwf	_CoordAntX^0,c
   682  000EB2                     
   683                           ;main.c: 51:     CoordAntY=1;
   684  000EB2  0E00               	movlw	0
   685  000EB4  6E40               	movwf	(_CoordAntY+1)^0,c
   686  000EB6  0E01               	movlw	1
   687  000EB8  6E3F               	movwf	_CoordAntY^0,c
   688  000EBA                     
   689                           ;main.c: 53:     PORTDbits.RD2=1;
   690  000EBA  8483               	bsf	131,2,c	;volatile
   691  000EBC                     
   692                           ;main.c: 54:     PORTDbits.RD3=1;
   693  000EBC  8683               	bsf	131,3,c	;volatile
   694  000EBE                     
   695                           ;main.c: 57:     PORTDbits.RD0= 1;
   696  000EBE  8083               	bsf	131,0,c	;volatile
   697  000EC0                     
   698                           ;main.c: 58:     PORTDbits.RD1= 1;
   699  000EC0  8283               	bsf	131,1,c	;volatile
   700                           
   701                           ;main.c: 61:     while(PORTBbits.RB1==0)
   702  000EC2  EF6B  F007         	goto	l2513
   703  000EC6                     l273:
   704                           
   705                           ;main.c: 62:     {;main.c: 63:         PORTDbits.RD2=0;
   706  000EC6  9483               	bcf	131,2,c	;volatile
   707                           
   708                           ;main.c: 64:         PORTDbits.RD3=0;
   709  000EC8  9683               	bcf	131,3,c	;volatile
   710  000ECA                     
   711                           ;main.c: 65:         myPrintf("Si entro a x");
   712  000ECA  0E9F               	movlw	low STR_8
   713  000ECC  6E05               	movwf	myPrintf@PointString^0,c
   714  000ECE  0E08               	movlw	high STR_8
   715  000ED0  6E06               	movwf	(myPrintf@PointString+1)^0,c
   716  000ED2  EC69  F009         	call	_myPrintf	;wreg free
   717  000ED6                     l2513:
   718                           
   719                           ;main.c: 61:     while(PORTBbits.RB1==0)
   720  000ED6  A281               	btfss	129,1,c	;volatile
   721  000ED8  EF70  F007         	goto	u1281
   722  000EDC  EF72  F007         	goto	u1280
   723  000EE0                     u1281:
   724  000EE0  EF63  F007         	goto	l273
   725  000EE4                     u1280:
   726  000EE4                     
   727                           ;main.c: 67:      PORTDbits.RD2=1;
   728  000EE4  8483               	bsf	131,2,c	;volatile
   729                           
   730                           ;main.c: 68:      PORTDbits.RD3=1;
   731  000EE6  8683               	bsf	131,3,c	;volatile
   732                           
   733                           ;main.c: 69:      if(PORTBbits.RB1==1){
   734  000EE8  A281               	btfss	129,1,c	;volatile
   735  000EEA  EF79  F007         	goto	u1291
   736  000EEE  EF7B  F007         	goto	u1290
   737  000EF2                     u1291:
   738  000EF2  EF85  F007         	goto	l2519
   739  000EF6                     u1290:
   740  000EF6                     
   741                           ;main.c: 70:      CoordAntX=0;
   742  000EF6  0E00               	movlw	0
   743  000EF8  6E42               	movwf	(_CoordAntX+1)^0,c
   744  000EFA  0E00               	movlw	0
   745  000EFC  6E41               	movwf	_CoordAntX^0,c
   746  000EFE                     
   747                           ;main.c: 71:      myPrintf("Salio de x");
   748  000EFE  0EB9               	movlw	low STR_9
   749  000F00  6E05               	movwf	myPrintf@PointString^0,c
   750  000F02  0E08               	movlw	high STR_9
   751  000F04  6E06               	movwf	(myPrintf@PointString+1)^0,c
   752  000F06  EC69  F009         	call	_myPrintf	;wreg free
   753  000F0A                     l2519:
   754                           
   755                           ;main.c: 75:     PORTDbits.RD0= 0;
   756  000F0A  9083               	bcf	131,0,c	;volatile
   757  000F0C                     
   758                           ;main.c: 76:     PORTDbits.RD1= 1;
   759  000F0C  8283               	bsf	131,1,c	;volatile
   760                           
   761                           ;main.c: 78:     while(PORTBbits.RB0==0)
   762  000F0E  EF91  F007         	goto	l2525
   763  000F12                     l277:
   764                           
   765                           ;main.c: 79:     {;main.c: 80:         PORTDbits.RD2=0;
   766  000F12  9483               	bcf	131,2,c	;volatile
   767                           
   768                           ;main.c: 81:         PORTDbits.RD3=0;
   769  000F14  9683               	bcf	131,3,c	;volatile
   770  000F16                     
   771                           ;main.c: 82:         myPrintf("Si entro a y");
   772  000F16  0EAC               	movlw	low STR_10
   773  000F18  6E05               	movwf	myPrintf@PointString^0,c
   774  000F1A  0E08               	movlw	high STR_10
   775  000F1C  6E06               	movwf	(myPrintf@PointString+1)^0,c
   776  000F1E  EC69  F009         	call	_myPrintf	;wreg free
   777  000F22                     l2525:
   778                           
   779                           ;main.c: 78:     while(PORTBbits.RB0==0)
   780  000F22  A081               	btfss	129,0,c	;volatile
   781  000F24  EF96  F007         	goto	u1301
   782  000F28  EF98  F007         	goto	u1300
   783  000F2C                     u1301:
   784  000F2C  EF89  F007         	goto	l277
   785  000F30                     u1300:
   786  000F30                     
   787                           ;main.c: 85:      PORTDbits.RD2=1;
   788  000F30  8483               	bsf	131,2,c	;volatile
   789                           
   790                           ;main.c: 86:      PORTDbits.RD3=1;
   791  000F32  8683               	bsf	131,3,c	;volatile
   792                           
   793                           ;main.c: 87:      if(PORTBbits.RB0==1) {
   794  000F34  A081               	btfss	129,0,c	;volatile
   795  000F36  EF9F  F007         	goto	u1311
   796  000F3A  EFA1  F007         	goto	u1310
   797  000F3E                     u1311:
   798  000F3E  EFAB  F007         	goto	l2531
   799  000F42                     u1310:
   800  000F42                     
   801                           ;main.c: 88:          CoordAntY=0;
   802  000F42  0E00               	movlw	0
   803  000F44  6E40               	movwf	(_CoordAntY+1)^0,c
   804  000F46  0E00               	movlw	0
   805  000F48  6E3F               	movwf	_CoordAntY^0,c
   806  000F4A                     
   807                           ;main.c: 89:          myPrintf("Salio de y");
   808  000F4A  0EC4               	movlw	low STR_11
   809  000F4C  6E05               	movwf	myPrintf@PointString^0,c
   810  000F4E  0E08               	movlw	high STR_11
   811  000F50  6E06               	movwf	(myPrintf@PointString+1)^0,c
   812  000F52  EC69  F009         	call	_myPrintf	;wreg free
   813  000F56                     l2531:
   814                           
   815                           ;main.c: 93:     {;main.c: 95:         ControlFlagVerification = 1;
   816  000F56  0E00               	movlw	0
   817  000F58  6E31               	movwf	(_ControlFlagVerification+1)^0,c
   818  000F5A  0E01               	movlw	1
   819  000F5C  6E30               	movwf	_ControlFlagVerification^0,c
   820  000F5E                     
   821                           ;main.c: 96:         verification();
   822  000F5E  ECBB  F007         	call	_verification	;wreg free
   823  000F62                     
   824                           ;main.c: 97:         PrintMyActulPosition();
   825  000F62  EC11  F006         	call	_PrintMyActulPosition	;wreg free
   826  000F66                     
   827                           ;main.c: 98:         Movement();
   828  000F66  EC01  F009         	call	_Movement	;wreg free
   829  000F6A                     
   830                           ;main.c: 99:         PrintMyActulPosition();
   831  000F6A  EC11  F006         	call	_PrintMyActulPosition	;wreg free
   832  000F6E  EFAB  F007         	goto	l2531
   833  000F72  EF07  F000         	goto	start
   834  000F76                     __end_of_main:
   835                           	opt callstack 0
   836                           
   837 ;; *************** function _verification *****************
   838 ;; Defined at:
   839 ;;		line 15 in file "verification.c"
   840 ;; Parameters:    Size  Location     Type
   841 ;;		None
   842 ;; Auto vars:     Size  Location     Type
   843 ;;		None
   844 ;; Return value:  Size  Location     Type
   845 ;;                  1    wreg      void 
   846 ;; Registers used:
   847 ;;		wreg, fsr2l, fsr2h, status,2, status,0, tblptrl, tblptrh, tblptru, prodl, prodh, cstack
   848 ;; Tracked objects:
   849 ;;		On entry : 0/0
   850 ;;		On exit  : 0/0
   851 ;;		Unchanged: 0/0
   852 ;; Data sizes:     COMRAM   BANK0   BANK1   BANK2   BANK3   BANK4   BANK5   BANK6   BANK7
   853 ;;      Params:         0       0       0       0       0       0       0       0       0
   854 ;;      Locals:         0       0       0       0       0       0       0       0       0
   855 ;;      Temps:          2       0       0       0       0       0       0       0       0
   856 ;;      Totals:         2       0       0       0       0       0       0       0       0
   857 ;;Total ram usage:        2 bytes
   858 ;; Hardware stack levels used:    1
   859 ;; Hardware stack levels required when called:    7
   860 ;; This function calls:
   861 ;;		_Coord_Validated
   862 ;;		_Ins_Validated
   863 ;;		_Par_Validated
   864 ;;		_cmd
   865 ;;		_end
   866 ;;		_start
   867 ;; This function is called by:
   868 ;;		_main
   869 ;; This function uses a non-reentrant model
   870 ;;
   871                           
   872                           	psect	text1
   873  000F76                     __ptext1:
   874                           	opt callstack 0
   875  000F76                     _verification:
   876                           	opt callstack 23
   877  000F76                     
   878                           ;verification.c: 17:     NextState = iddle_State;
   879  000F76  0E00               	movlw	0
   880  000F78  6E33               	movwf	_NextState^0,c
   881                           
   882                           ;verification.c: 18:     while(ControlFlagVerification == 1)
   883  000F7A  EF05  F008         	goto	l2407
   884  000F7E                     l2389:
   885                           
   886                           ;verification.c: 23:                 NextState= start();
   887  000F7E  EC46  F00B         	call	_start	;wreg free
   888  000F82  6E33               	movwf	_NextState^0,c
   889                           
   890                           ;verification.c: 24:             };verification.c: 25:                 break;
   891  000F84  EF05  F008         	goto	l2407
   892  000F88                     l2391:
   893                           
   894                           ;verification.c: 28:                 NextState=cmd();
   895  000F88  ECCB  F008         	call	_cmd	;wreg free
   896  000F8C  6E33               	movwf	_NextState^0,c
   897                           
   898                           ;verification.c: 29:             };verification.c: 30:                 break;
   899  000F8E  EF05  F008         	goto	l2407
   900  000F92                     l2393:
   901                           
   902                           ;verification.c: 33:                 NextState=Par_Validated();
   903  000F92  EC6E  F00A         	call	_Par_Validated	;wreg free
   904  000F96  6E33               	movwf	_NextState^0,c
   905                           
   906                           ;verification.c: 34:             };verification.c: 35:                 break;
   907  000F98  EF05  F008         	goto	l2407
   908  000F9C                     l2395:
   909                           
   910                           ;verification.c: 38:                 NextState=Ins_Validated();
   911  000F9C  EC24  F00A         	call	_Ins_Validated	;wreg free
   912  000FA0  6E33               	movwf	_NextState^0,c
   913                           
   914                           ;verification.c: 39:             };verification.c: 40:                 break;
   915  000FA2  EF05  F008         	goto	l2407
   916  000FA6                     l2397:
   917                           
   918                           ;verification.c: 43:                 NextState=Coord_Validated();
   919  000FA6  EC4A  F00A         	call	_Coord_Validated	;wreg free
   920  000FAA  6E33               	movwf	_NextState^0,c
   921                           
   922                           ;verification.c: 44:             };verification.c: 45:                 break;
   923  000FAC  EF05  F008         	goto	l2407
   924  000FB0                     l2399:
   925                           
   926                           ;verification.c: 48:                 end();
   927  000FB0  ECFD  F00A         	call	_end	;wreg free
   928                           
   929                           ;verification.c: 49:             };verification.c: 50:                 break;
   930  000FB4  EF05  F008         	goto	l2407
   931  000FB8                     l2401:
   932                           
   933                           ;verification.c: 53:                 NextState = wait_cmd_State;
   934  000FB8  0E01               	movlw	1
   935  000FBA  6E33               	movwf	_NextState^0,c
   936                           
   937                           ;verification.c: 54:             };verification.c: 55:                 break;
   938  000FBC  EF05  F008         	goto	l2407
   939  000FC0                     l2405:
   940  000FC0  5033               	movf	_NextState^0,w,c
   941  000FC2  6E22               	movwf	??_verification^0,c
   942  000FC4  6A23               	clrf	(??_verification+1)^0,c
   943                           
   944                           ; Switch on 2 bytes has been partitioned into a top level switch of size 1, and 1 sub-sw
      +                          itches
   945                           ; Switch size 1, requested type "simple"
   946                           ; Number of cases is 1, Range of values is 0 to 0
   947                           ; switch strategies available:
   948                           ; Name         Instructions Cycles
   949                           ; simple_byte            4     3 (average)
   950                           ;	Chosen strategy is simple_byte
   951  000FC6  5023               	movf	(??_verification+1)^0,w,c
   952  000FC8  0A00               	xorlw	0	; case 0
   953  000FCA  B4D8               	btfsc	status,2,c
   954  000FCC  EFEA  F007         	goto	l2545
   955  000FD0  EFDC  F007         	goto	l2401
   956  000FD4                     l2545:
   957                           
   958                           ; Switch size 1, requested type "simple"
   959                           ; Number of cases is 6, Range of values is 0 to 5
   960                           ; switch strategies available:
   961                           ; Name         Instructions Cycles
   962                           ; simple_byte           19    10 (average)
   963                           ;	Chosen strategy is simple_byte
   964  000FD4  5022               	movf	??_verification^0,w,c
   965  000FD6  0A00               	xorlw	0	; case 0
   966  000FD8  B4D8               	btfsc	status,2,c
   967  000FDA  EFBF  F007         	goto	l2389
   968  000FDE  0A01               	xorlw	1	; case 1
   969  000FE0  B4D8               	btfsc	status,2,c
   970  000FE2  EFC4  F007         	goto	l2391
   971  000FE6  0A03               	xorlw	3	; case 2
   972  000FE8  B4D8               	btfsc	status,2,c
   973  000FEA  EFC9  F007         	goto	l2393
   974  000FEE  0A01               	xorlw	1	; case 3
   975  000FF0  B4D8               	btfsc	status,2,c
   976  000FF2  EFCE  F007         	goto	l2395
   977  000FF6  0A07               	xorlw	7	; case 4
   978  000FF8  B4D8               	btfsc	status,2,c
   979  000FFA  EFD3  F007         	goto	l2397
   980  000FFE  0A01               	xorlw	1	; case 5
   981  001000  B4D8               	btfsc	status,2,c
   982  001002  EFD8  F007         	goto	l2399
   983  001006  EFDC  F007         	goto	l2401
   984  00100A                     l2407:
   985                           
   986                           ;verification.c: 18:     while(ControlFlagVerification == 1)
   987  00100A  0430               	decf	_ControlFlagVerification^0,w,c
   988  00100C  1031               	iorwf	(_ControlFlagVerification+1)^0,w,c
   989  00100E  B4D8               	btfsc	status,2,c
   990  001010  EF0C  F008         	goto	u1161
   991  001014  EF0E  F008         	goto	u1160
   992  001018                     u1161:
   993  001018  EFE0  F007         	goto	l2405
   994  00101C                     u1160:
   995  00101C  0012               	return		;funcret
   996  00101E                     __end_of_verification:
   997                           	opt callstack 0
   998                           
   999 ;; *************** function _start *****************
  1000 ;; Defined at:
  1001 ;;		line 15 in file "cases.c"
  1002 ;; Parameters:    Size  Location     Type
  1003 ;;		None
  1004 ;; Auto vars:     Size  Location     Type
  1005 ;;		None
  1006 ;; Return value:  Size  Location     Type
  1007 ;;                  1    wreg      unsigned char 
  1008 ;; Registers used:
  1009 ;;		wreg, status,2, status,0, tblptrl, tblptrh, tblptru, cstack
  1010 ;; Tracked objects:
  1011 ;;		On entry : 0/0
  1012 ;;		On exit  : 0/0
  1013 ;;		Unchanged: 0/0
  1014 ;; Data sizes:     COMRAM   BANK0   BANK1   BANK2   BANK3   BANK4   BANK5   BANK6   BANK7
  1015 ;;      Params:         0       0       0       0       0       0       0       0       0
  1016 ;;      Locals:         0       0       0       0       0       0       0       0       0
  1017 ;;      Temps:          0       0       0       0       0       0       0       0       0
  1018 ;;      Totals:         0       0       0       0       0       0       0       0       0
  1019 ;;Total ram usage:        0 bytes
  1020 ;; Hardware stack levels used:    1
  1021 ;; Hardware stack levels required when called:    6
  1022 ;; This function calls:
  1023 ;;		_UARTWrite
  1024 ;;		_myPrintf
  1025 ;; This function is called by:
  1026 ;;		_verification
  1027 ;; This function uses a non-reentrant model
  1028 ;;
  1029                           
  1030                           	psect	text2
  1031  00168C                     __ptext2:
  1032                           	opt callstack 0
  1033  00168C                     _start:
  1034                           	opt callstack 23
  1035  00168C                     
  1036                           ;cases.c: 17:     UARTWrite(0x0D);
  1037  00168C  0E0D               	movlw	13
  1038  00168E  EC51  F00B         	call	_UARTWrite
  1039  001692                     
  1040                           ;cases.c: 18:     myPrintf("Waiting...");
  1041  001692  0ECF               	movlw	low STR_1
  1042  001694  6E05               	movwf	myPrintf@PointString^0,c
  1043  001696  0E08               	movlw	high STR_1
  1044  001698  6E06               	movwf	(myPrintf@PointString+1)^0,c
  1045  00169A  EC69  F009         	call	_myPrintf	;wreg free
  1046  00169E                     
  1047                           ;cases.c: 19:     return wait_cmd_State;
  1048  00169E  0E01               	movlw	1
  1049  0016A0  0012               	return		;funcret
  1050  0016A2                     __end_of_start:
  1051                           	opt callstack 0
  1052                           
  1053 ;; *************** function _end *****************
  1054 ;; Defined at:
  1055 ;;		line 113 in file "cases.c"
  1056 ;; Parameters:    Size  Location     Type
  1057 ;;		None
  1058 ;; Auto vars:     Size  Location     Type
  1059 ;;		None
  1060 ;; Return value:  Size  Location     Type
  1061 ;;                  1    wreg      void 
  1062 ;; Registers used:
  1063 ;;		wreg, status,2, status,0, tblptrl, tblptrh, tblptru, cstack
  1064 ;; Tracked objects:
  1065 ;;		On entry : 0/0
  1066 ;;		On exit  : 0/0
  1067 ;;		Unchanged: 0/0
  1068 ;; Data sizes:     COMRAM   BANK0   BANK1   BANK2   BANK3   BANK4   BANK5   BANK6   BANK7
  1069 ;;      Params:         0       0       0       0       0       0       0       0       0
  1070 ;;      Locals:         0       0       0       0       0       0       0       0       0
  1071 ;;      Temps:          0       0       0       0       0       0       0       0       0
  1072 ;;      Totals:         0       0       0       0       0       0       0       0       0
  1073 ;;Total ram usage:        0 bytes
  1074 ;; Hardware stack levels used:    1
  1075 ;; Hardware stack levels required when called:    6
  1076 ;; This function calls:
  1077 ;;		_UARTWrite
  1078 ;;		_myPrintf
  1079 ;; This function is called by:
  1080 ;;		_verification
  1081 ;; This function uses a non-reentrant model
  1082 ;;
  1083                           
  1084                           	psect	text3
  1085  0015FA                     __ptext3:
  1086                           	opt callstack 0
  1087  0015FA                     _end:
  1088                           	opt callstack 23
  1089  0015FA                     
  1090                           ;cases.c: 115:     UARTWrite(0x0D);
  1091  0015FA  0E0D               	movlw	13
  1092  0015FC  EC51  F00B         	call	_UARTWrite
  1093  001600                     
  1094                           ;cases.c: 117:         myPrintf("Verify Completed");
  1095  001600  0E80               	movlw	low STR_7
  1096  001602  6E05               	movwf	myPrintf@PointString^0,c
  1097  001604  0E08               	movlw	high STR_7
  1098  001606  6E06               	movwf	(myPrintf@PointString+1)^0,c
  1099  001608  EC69  F009         	call	_myPrintf	;wreg free
  1100  00160C                     
  1101                           ;cases.c: 118:         UARTWrite(0x0A);
  1102  00160C  0E0A               	movlw	10
  1103  00160E  EC51  F00B         	call	_UARTWrite
  1104  001612                     
  1105                           ;cases.c: 123:     ControlFlagVerification = 0;
  1106  001612  0E00               	movlw	0
  1107  001614  6E31               	movwf	(_ControlFlagVerification+1)^0,c
  1108  001616  0E00               	movlw	0
  1109  001618  6E30               	movwf	_ControlFlagVerification^0,c
  1110  00161A  0012               	return		;funcret
  1111  00161C                     __end_of_end:
  1112                           	opt callstack 0
  1113                           
  1114 ;; *************** function _cmd *****************
  1115 ;; Defined at:
  1116 ;;		line 22 in file "cases.c"
  1117 ;; Parameters:    Size  Location     Type
  1118 ;;		None
  1119 ;; Auto vars:     Size  Location     Type
  1120 ;;		None
  1121 ;; Return value:  Size  Location     Type
  1122 ;;                  1    wreg      unsigned char 
  1123 ;; Registers used:
  1124 ;;		wreg, fsr2l, fsr2h, status,2, status,0, tblptrl, tblptrh, tblptru, prodl, prodh, cstack
  1125 ;; Tracked objects:
  1126 ;;		On entry : 0/0
  1127 ;;		On exit  : 0/0
  1128 ;;		Unchanged: 0/0
  1129 ;; Data sizes:     COMRAM   BANK0   BANK1   BANK2   BANK3   BANK4   BANK5   BANK6   BANK7
  1130 ;;      Params:         0       0       0       0       0       0       0       0       0
  1131 ;;      Locals:         0       0       0       0       0       0       0       0       0
  1132 ;;      Temps:          0       0       0       0       0       0       0       0       0
  1133 ;;      Totals:         0       0       0       0       0       0       0       0       0
  1134 ;;Total ram usage:        0 bytes
  1135 ;; Hardware stack levels used:    1
  1136 ;; Hardware stack levels required when called:    6
  1137 ;; This function calls:
  1138 ;;		_UARTWrite
  1139 ;;		_coord
  1140 ;;		_myPrintf
  1141 ;; This function is called by:
  1142 ;;		_verification
  1143 ;; This function uses a non-reentrant model
  1144 ;;
  1145                           
  1146                           	psect	text4
  1147  001196                     __ptext4:
  1148                           	opt callstack 0
  1149  001196                     _cmd:
  1150                           	opt callstack 23
  1151  001196                     
  1152                           ;cases.c: 24:     UARTWrite(0x0D);
  1153  001196  0E0D               	movlw	13
  1154  001198  EC51  F00B         	call	_UARTWrite
  1155  00119C                     
  1156                           ;cases.c: 25:     myPrintf("Enter command");
  1157  00119C  0E91               	movlw	low STR_2
  1158  00119E  6E05               	movwf	myPrintf@PointString^0,c
  1159  0011A0  0E08               	movlw	high STR_2
  1160  0011A2  6E06               	movwf	(myPrintf@PointString+1)^0,c
  1161  0011A4  EC69  F009         	call	_myPrintf	;wreg free
  1162  0011A8                     
  1163                           ;cases.c: 27:     if(coord(&Par1,&letter,&cord_x, &cord_y, &Par2) == 1)
  1164  0011A8  0E3E               	movlw	low _Par1
  1165  0011AA  6E05               	movwf	coord@P1^0,c
  1166  0011AC  0E00               	movlw	high _Par1
  1167  0011AE  6E06               	movwf	(coord@P1+1)^0,c
  1168  0011B0  0E3D               	movlw	low _letter
  1169  0011B2  6E07               	movwf	coord@L^0,c
  1170  0011B4  0E00               	movlw	high _letter
  1171  0011B6  6E08               	movwf	(coord@L+1)^0,c
  1172  0011B8  0E3A               	movlw	low _cord_x
  1173  0011BA  6E09               	movwf	coord@x^0,c
  1174  0011BC  0E00               	movlw	high _cord_x
  1175  0011BE  6E0A               	movwf	(coord@x+1)^0,c
  1176  0011C0  0E38               	movlw	low _cord_y
  1177  0011C2  6E0B               	movwf	coord@y^0,c
  1178  0011C4  0E00               	movlw	high _cord_y
  1179  0011C6  6E0C               	movwf	(coord@y+1)^0,c
  1180  0011C8  0E3C               	movlw	low _Par2
  1181  0011CA  6E0D               	movwf	coord@P2^0,c
  1182  0011CC  0E00               	movlw	high _Par2
  1183  0011CE  6E0E               	movwf	(coord@P2+1)^0,c
  1184  0011D0  EC74  F004         	call	_coord	;wreg free
  1185  0011D4  0405               	decf	?_coord^0,w,c
  1186  0011D6  1006               	iorwf	(?_coord+1)^0,w,c
  1187  0011D8  A4D8               	btfss	status,2,c
  1188  0011DA  EFF1  F008         	goto	u921
  1189  0011DE  EFF3  F008         	goto	u920
  1190  0011E2                     u921:
  1191  0011E2  EFF6  F008         	goto	l2131
  1192  0011E6                     u920:
  1193  0011E6                     
  1194                           ;cases.c: 28:     {;cases.c: 29:         return validate_Par_State;
  1195  0011E6  0E02               	movlw	2
  1196  0011E8  EF00  F009         	goto	l49
  1197  0011EC                     l2131:
  1198                           
  1199                           ;cases.c: 32:     {;cases.c: 34:         myPrintf("Commands were not recognized");
  1200  0011EC  0E48               	movlw	low STR_3
  1201  0011EE  6E05               	movwf	myPrintf@PointString^0,c
  1202  0011F0  0E08               	movlw	high STR_3
  1203  0011F2  6E06               	movwf	(myPrintf@PointString+1)^0,c
  1204  0011F4  EC69  F009         	call	_myPrintf	;wreg free
  1205  0011F8                     
  1206                           ;cases.c: 35:         UARTWrite(0x0A);
  1207  0011F8  0E0A               	movlw	10
  1208  0011FA  EC51  F00B         	call	_UARTWrite
  1209  0011FE                     
  1210                           ;cases.c: 41:         return wait_cmd_State;
  1211  0011FE  0E01               	movlw	1
  1212  001200                     l49:
  1213  001200  0012               	return		;funcret
  1214  001202                     __end_of_cmd:
  1215                           	opt callstack 0
  1216                           
  1217 ;; *************** function _coord *****************
  1218 ;; Defined at:
  1219 ;;		line 14 in file "coordenadas.c"
  1220 ;; Parameters:    Size  Location     Type
  1221 ;;  P1              2    4[COMRAM] PTR unsigned char 
  1222 ;;		 -> Par1(1), 
  1223 ;;  L               2    6[COMRAM] PTR unsigned char 
  1224 ;;		 -> letter(1), 
  1225 ;;  x               2    8[COMRAM] PTR unsigned short 
  1226 ;;		 -> cord_x(2), 
  1227 ;;  y               2   10[COMRAM] PTR unsigned short 
  1228 ;;		 -> cord_y(2), 
  1229 ;;  P2              2   12[COMRAM] PTR unsigned char 
  1230 ;;		 -> Par2(1), 
  1231 ;; Auto vars:     Size  Location     Type
  1232 ;;  n               1   32[COMRAM] unsigned char 
  1233 ;;  i               2   30[COMRAM] int 
  1234 ;;  buffer          9   18[COMRAM] unsigned char [9]
  1235 ;;  counterRevis    1   29[COMRAM] unsigned char 
  1236 ;;  flagBuffer      1    0        unsigned char 
  1237 ;;  read            1   27[COMRAM] unsigned char 
  1238 ;; Return value:  Size  Location     Type
  1239 ;;                  2    4[COMRAM] int 
  1240 ;; Registers used:
  1241 ;;		wreg, fsr2l, fsr2h, status,2, status,0, prodl, prodh, cstack
  1242 ;; Tracked objects:
  1243 ;;		On entry : 0/0
  1244 ;;		On exit  : 0/0
  1245 ;;		Unchanged: 0/0
  1246 ;; Data sizes:     COMRAM   BANK0   BANK1   BANK2   BANK3   BANK4   BANK5   BANK6   BANK7
  1247 ;;      Params:        10       0       0       0       0       0       0       0       0
  1248 ;;      Locals:        15       0       0       0       0       0       0       0       0
  1249 ;;      Temps:          4       0       0       0       0       0       0       0       0
  1250 ;;      Totals:        29       0       0       0       0       0       0       0       0
  1251 ;;Total ram usage:       29 bytes
  1252 ;; Hardware stack levels used:    1
  1253 ;; Hardware stack levels required when called:    5
  1254 ;; This function calls:
  1255 ;;		_UARTRead
  1256 ;; This function is called by:
  1257 ;;		_cmd
  1258 ;; This function uses a non-reentrant model
  1259 ;;
  1260                           
  1261                           	psect	text5
  1262  0008E8                     __ptext5:
  1263                           	opt callstack 0
  1264  0008E8                     _coord:
  1265                           	opt callstack 23
  1266  0008E8                     
  1267                           ;coordenadas.c: 18:         char counterRevision = 0;
  1268  0008E8  0E00               	movlw	0
  1269  0008EA  6E1E               	movwf	coord@counterRevision^0,c
  1270  0008EC                     
  1271                           ;coordenadas.c: 20:         RCSTAbits.CREN = 1;
  1272  0008EC  88AB               	bsf	171,4,c	;volatile
  1273                           
  1274                           ;coordenadas.c: 22:         for(int i=StartCommandCharacter; i<(EndCommandCharacter+1); 
      +                          i++){
  1275  0008EE  0E00               	movlw	0
  1276  0008F0  6E20               	movwf	(coord@i+1)^0,c
  1277  0008F2  0E00               	movlw	0
  1278  0008F4  6E1F               	movwf	coord@i^0,c
  1279  0008F6                     l1991:
  1280                           
  1281                           ;coordenadas.c: 23:             read= UARTRead();
  1282  0008F6  EC39  F00B         	call	_UARTRead	;wreg free
  1283  0008FA  6E1C               	movwf	coord@read^0,c
  1284  0008FC                     
  1285                           ;coordenadas.c: 24:             buffer[i]=read;
  1286  0008FC  0E13               	movlw	low coord@buffer
  1287  0008FE  241F               	addwf	coord@i^0,w,c
  1288  000900  6ED9               	movwf	fsr2l,c
  1289  000902  0E00               	movlw	high coord@buffer
  1290  000904  2020               	addwfc	(coord@i+1)^0,w,c
  1291  000906  6EDA               	movwf	fsr2h,c
  1292  000908  C01C  FFDF         	movff	coord@read,indf2
  1293  00090C                     
  1294                           ;coordenadas.c: 27:             if(i == (EndCommandCharacter))
  1295  00090C  0E08               	movlw	8
  1296  00090E  181F               	xorwf	coord@i^0,w,c
  1297  000910  1020               	iorwf	(coord@i+1)^0,w,c
  1298  000912  A4D8               	btfss	status,2,c
  1299  000914  EF8E  F004         	goto	u761
  1300  000918  EF90  F004         	goto	u760
  1301  00091C                     u761:
  1302  00091C  EF91  F004         	goto	l1999
  1303  000920                     u760:
  1304  000920                     
  1305                           ;coordenadas.c: 28:             {;coordenadas.c: 29:                 RCSTAbits.CREN = 0;
  1306  000920  98AB               	bcf	171,4,c	;volatile
  1307  000922                     l1999:
  1308                           
  1309                           ;coordenadas.c: 32:         }
  1310  000922  4A1F               	infsnz	coord@i^0,f,c
  1311  000924  2A20               	incf	(coord@i+1)^0,f,c
  1312  000926  BE20               	btfsc	(coord@i+1)^0,7,c
  1313  000928  EF9F  F004         	goto	u771
  1314  00092C  5020               	movf	(coord@i+1)^0,w,c
  1315  00092E  E109               	bnz	u770
  1316  000930  0E09               	movlw	9
  1317  000932  5C1F               	subwf	coord@i^0,w,c
  1318  000934  A0D8               	btfss	status,0,c
  1319  000936  EF9F  F004         	goto	u771
  1320  00093A  EFA1  F004         	goto	u770
  1321  00093E                     u771:
  1322  00093E  EF7B  F004         	goto	l1991
  1323  000942                     u770:
  1324  000942                     
  1325                           ;coordenadas.c: 34:         if(RCSTAbits.OERR == 1)
  1326  000942  A2AB               	btfss	171,1,c	;volatile
  1327  000944  EFA6  F004         	goto	u781
  1328  000948  EFA8  F004         	goto	u780
  1329  00094C                     u781:
  1330  00094C  EFB4  F004         	goto	l2011
  1331  000950                     u780:
  1332  000950                     
  1333                           ;coordenadas.c: 35:         {;coordenadas.c: 36:             TXSTA1bits.TXEN = 0;
  1334  000950  9AAC               	bcf	172,5,c	;volatile
  1335                           
  1336                           ;coordenadas.c: 37:             RCSTA1bits.CREN = 0;
  1337  000952  98AB               	bcf	171,4,c	;volatile
  1338  000954                     
  1339                           ;coordenadas.c: 38:             _delay((unsigned long)((15)*(8000000L/4000.0)));
  1340  000954  0E27               	movlw	39
  1341  000956  6E0F               	movwf	??_coord^0,c
  1342  000958  0EF5               	movlw	245
  1343  00095A                     u1327:
  1344  00095A  2EE8               	decfsz	wreg,f,c
  1345  00095C  D7FE               	bra	u1327
  1346  00095E  2E0F               	decfsz	??_coord^0,f,c
  1347  000960  D7FC               	bra	u1327
  1348  000962  F000               	nop	
  1349  000964                     
  1350                           ;coordenadas.c: 39:             TXSTA1bits.TXEN = 1;
  1351  000964  8AAC               	bsf	172,5,c	;volatile
  1352  000966                     
  1353                           ;coordenadas.c: 40:             RCSTA1bits.CREN = 1;
  1354  000966  88AB               	bsf	171,4,c	;volatile
  1355  000968                     l2011:
  1356                           
  1357                           ;coordenadas.c: 43:         *P1= buffer[StartCommandCharacter];
  1358  000968  C005  FFD9         	movff	coord@P1,fsr2l
  1359  00096C  C006  FFDA         	movff	coord@P1+1,fsr2h
  1360  000970  C013  FFDF         	movff	coord@buffer,indf2
  1361  000974                     
  1362                           ;coordenadas.c: 44:         *L= buffer[InstructionCharacter];
  1363  000974  C007  FFD9         	movff	coord@L,fsr2l
  1364  000978  C008  FFDA         	movff	coord@L+1,fsr2h
  1365  00097C  C014  FFDF         	movff	coord@buffer+1,indf2
  1366  000980                     
  1367                           ;coordenadas.c: 45:         *P2= buffer[EndCommandCharacter];
  1368  000980  C00D  FFD9         	movff	coord@P2,fsr2l
  1369  000984  C00E  FFDA         	movff	coord@P2+1,fsr2h
  1370  000988  C01B  FFDF         	movff	coord@buffer+8,indf2
  1371  00098C                     
  1372                           ;coordenadas.c: 47:         for(char n=CharacterX1; n<(CharacterY3+1); n++)
  1373  00098C  0E02               	movlw	2
  1374  00098E  6E21               	movwf	coord@n^0,c
  1375  000990                     l2023:
  1376                           
  1377                           ;coordenadas.c: 48:         {;coordenadas.c: 49:             if(buffer[n] <= 57 && buffe
      +                          r[n] >= 48)
  1378  000990  0E13               	movlw	low coord@buffer
  1379  000992  2421               	addwf	coord@n^0,w,c
  1380  000994  6ED9               	movwf	fsr2l,c
  1381  000996  6ADA               	clrf	fsr2h,c
  1382  000998  0E00               	movlw	high coord@buffer
  1383  00099A  22DA               	addwfc	fsr2h,f,c
  1384  00099C  0E3A               	movlw	58
  1385  00099E  60DF               	cpfslt	indf2,c
  1386  0009A0  EFD4  F004         	goto	u791
  1387  0009A4  EFD6  F004         	goto	u790
  1388  0009A8                     u791:
  1389  0009A8  EFE5  F004         	goto	l190
  1390  0009AC                     u790:
  1391  0009AC  0E13               	movlw	low coord@buffer
  1392  0009AE  2421               	addwf	coord@n^0,w,c
  1393  0009B0  6ED9               	movwf	fsr2l,c
  1394  0009B2  6ADA               	clrf	fsr2h,c
  1395  0009B4  0E00               	movlw	high coord@buffer
  1396  0009B6  22DA               	addwfc	fsr2h,f,c
  1397  0009B8  0E2F               	movlw	47
  1398  0009BA  64DF               	cpfsgt	indf2,c
  1399  0009BC  EFE2  F004         	goto	u801
  1400  0009C0  EFE4  F004         	goto	u800
  1401  0009C4                     u801:
  1402  0009C4  EFE5  F004         	goto	l190
  1403  0009C8                     u800:
  1404  0009C8                     
  1405                           ;coordenadas.c: 50:             {;coordenadas.c: 51:                 counterRevision++;
  1406  0009C8  2A1E               	incf	coord@counterRevision^0,f,c
  1407  0009CA                     l190:
  1408                           
  1409                           ;coordenadas.c: 53:         }
  1410  0009CA  2A21               	incf	coord@n^0,f,c
  1411  0009CC  0E07               	movlw	7
  1412  0009CE  6421               	cpfsgt	coord@n^0,c
  1413  0009D0  EFEC  F004         	goto	u811
  1414  0009D4  EFEE  F004         	goto	u810
  1415  0009D8                     u811:
  1416  0009D8  EFC8  F004         	goto	l2023
  1417  0009DC                     u810:
  1418  0009DC                     
  1419                           ;coordenadas.c: 54:             if(counterRevision == 6)
  1420  0009DC  0E06               	movlw	6
  1421  0009DE  181E               	xorwf	coord@counterRevision^0,w,c
  1422  0009E0  A4D8               	btfss	status,2,c
  1423  0009E2  EFF5  F004         	goto	u821
  1424  0009E6  EFF7  F004         	goto	u820
  1425  0009EA                     u821:
  1426  0009EA  EFF9  F004         	goto	l2035
  1427  0009EE                     u820:
  1428  0009EE                     
  1429                           ;coordenadas.c: 57:             }
  1430  0009EE  EFFF  F004         	goto	l2039
  1431  0009F2                     l2035:
  1432                           
  1433                           ;coordenadas.c: 60:             {;coordenadas.c: 61:                 return 0;
  1434  0009F2  0E00               	movlw	0
  1435  0009F4  6E06               	movwf	(?_coord+1)^0,c
  1436  0009F6  0E00               	movlw	0
  1437  0009F8  6E05               	movwf	?_coord^0,c
  1438  0009FA  EF43  F005         	goto	l193
  1439  0009FE                     l2039:
  1440  0009FE                     
  1441                           ;coordenadas.c: 65:         {;coordenadas.c: 66:             *x = 1*(buffer[CharacterX3]
      +                          -48) + 10*(buffer[CharacterX2]-48) + 100*(buffer[CharacterX1]-48);
  1442  0009FE  0E30               	movlw	48
  1443  000A00  6E0F               	movwf	??_coord^0,c
  1444  000A02  0EEB               	movlw	235
  1445  000A04  6E10               	movwf	(??_coord+1)^0,c
  1446  000A06  5015               	movf	(coord@buffer+2)^0,w,c
  1447  000A08  0D64               	mullw	100
  1448  000A0A  CFF3 F011          	movff	prodl,??_coord+2
  1449  000A0E  CFF4 F012          	movff	prodh,??_coord+3
  1450  000A12  5016               	movf	(coord@buffer+3)^0,w,c
  1451  000A14  0D0A               	mullw	10
  1452  000A16  50F3               	movf	243,w,c
  1453  000A18  2611               	addwf	(??_coord+2)^0,f,c
  1454  000A1A  50F4               	movf	244,w,c
  1455  000A1C  2212               	addwfc	(??_coord+3)^0,f,c
  1456  000A1E  5017               	movf	(coord@buffer+4)^0,w,c
  1457  000A20  2611               	addwf	(??_coord+2)^0,f,c
  1458  000A22  0E00               	movlw	0
  1459  000A24  2212               	addwfc	(??_coord+3)^0,f,c
  1460  000A26  500F               	movf	??_coord^0,w,c
  1461  000A28  2611               	addwf	(??_coord+2)^0,f,c
  1462  000A2A  5010               	movf	(??_coord+1)^0,w,c
  1463  000A2C  2212               	addwfc	(??_coord+3)^0,f,c
  1464  000A2E  C009  FFD9         	movff	coord@x,fsr2l
  1465  000A32  C00A  FFDA         	movff	coord@x+1,fsr2h
  1466  000A36  C011  FFDE         	movff	??_coord+2,postinc2
  1467  000A3A  C012  FFDD         	movff	??_coord+3,postdec2
  1468                           
  1469                           ;coordenadas.c: 67:             *y = 1*(buffer[CharacterY3]-48) + 10*(buffer[CharacterY2
      +                          ]-48) + 100*(buffer[CharacterY1]-48);
  1470  000A3E  0E30               	movlw	48
  1471  000A40  6E0F               	movwf	??_coord^0,c
  1472  000A42  0EEB               	movlw	235
  1473  000A44  6E10               	movwf	(??_coord+1)^0,c
  1474  000A46  5018               	movf	(coord@buffer+5)^0,w,c
  1475  000A48  0D64               	mullw	100
  1476  000A4A  CFF3 F011          	movff	prodl,??_coord+2
  1477  000A4E  CFF4 F012          	movff	prodh,??_coord+3
  1478  000A52  5019               	movf	(coord@buffer+6)^0,w,c
  1479  000A54  0D0A               	mullw	10
  1480  000A56  50F3               	movf	243,w,c
  1481  000A58  2611               	addwf	(??_coord+2)^0,f,c
  1482  000A5A  50F4               	movf	244,w,c
  1483  000A5C  2212               	addwfc	(??_coord+3)^0,f,c
  1484  000A5E  501A               	movf	(coord@buffer+7)^0,w,c
  1485  000A60  2611               	addwf	(??_coord+2)^0,f,c
  1486  000A62  0E00               	movlw	0
  1487  000A64  2212               	addwfc	(??_coord+3)^0,f,c
  1488  000A66  500F               	movf	??_coord^0,w,c
  1489  000A68  2611               	addwf	(??_coord+2)^0,f,c
  1490  000A6A  5010               	movf	(??_coord+1)^0,w,c
  1491  000A6C  2212               	addwfc	(??_coord+3)^0,f,c
  1492  000A6E  C00B  FFD9         	movff	coord@y,fsr2l
  1493  000A72  C00C  FFDA         	movff	coord@y+1,fsr2h
  1494  000A76  C011  FFDE         	movff	??_coord+2,postinc2
  1495  000A7A  C012  FFDD         	movff	??_coord+3,postdec2
  1496  000A7E                     
  1497                           ;coordenadas.c: 69:             return 1;
  1498  000A7E  0E00               	movlw	0
  1499  000A80  6E06               	movwf	(?_coord+1)^0,c
  1500  000A82  0E01               	movlw	1
  1501  000A84  6E05               	movwf	?_coord^0,c
  1502  000A86                     l193:
  1503  000A86  0012               	return		;funcret
  1504  000A88                     __end_of_coord:
  1505                           	opt callstack 0
  1506                           
  1507 ;; *************** function _UARTRead *****************
  1508 ;; Defined at:
  1509 ;;		line 40 in file "UART.c"
  1510 ;; Parameters:    Size  Location     Type
  1511 ;;		None
  1512 ;; Auto vars:     Size  Location     Type
  1513 ;;  Lecture         1    3[COMRAM] unsigned char 
  1514 ;; Return value:  Size  Location     Type
  1515 ;;                  1    wreg      unsigned char 
  1516 ;; Registers used:
  1517 ;;		wreg, status,2
  1518 ;; Tracked objects:
  1519 ;;		On entry : 0/0
  1520 ;;		On exit  : 0/0
  1521 ;;		Unchanged: 0/0
  1522 ;; Data sizes:     COMRAM   BANK0   BANK1   BANK2   BANK3   BANK4   BANK5   BANK6   BANK7
  1523 ;;      Params:         0       0       0       0       0       0       0       0       0
  1524 ;;      Locals:         1       0       0       0       0       0       0       0       0
  1525 ;;      Temps:          0       0       0       0       0       0       0       0       0
  1526 ;;      Totals:         1       0       0       0       0       0       0       0       0
  1527 ;;Total ram usage:        1 bytes
  1528 ;; Hardware stack levels used:    1
  1529 ;; Hardware stack levels required when called:    4
  1530 ;; This function calls:
  1531 ;;		Nothing
  1532 ;; This function is called by:
  1533 ;;		_coord
  1534 ;; This function uses a non-reentrant model
  1535 ;;
  1536                           
  1537                           	psect	text6
  1538  001672                     __ptext6:
  1539                           	opt callstack 0
  1540  001672                     _UARTRead:
  1541                           	opt callstack 23
  1542  001672                     l132:
  1543  001672  AA9E               	btfss	158,5,c	;volatile
  1544  001674  EF3E  F00B         	goto	u21
  1545  001678  EF40  F00B         	goto	u20
  1546  00167C                     u21:
  1547  00167C  EF39  F00B         	goto	l132
  1548  001680                     u20:
  1549  001680                     
  1550                           ;UART.c: 52:     Lecture = RCREG;
  1551  001680  CFAE F004          	movff	4014,UARTRead@Lecture	;volatile
  1552  001684                     
  1553                           ;UART.c: 53:     RCREG = 0;
  1554  001684  0E00               	movlw	0
  1555  001686  6EAE               	movwf	174,c	;volatile
  1556                           
  1557                           ;UART.c: 54:     return Lecture;
  1558  001688  5004               	movf	UARTRead@Lecture^0,w,c
  1559  00168A  0012               	return		;funcret
  1560  00168C                     __end_of_UARTRead:
  1561                           	opt callstack 0
  1562                           
  1563 ;; *************** function _Par_Validated *****************
  1564 ;; Defined at:
  1565 ;;		line 45 in file "cases.c"
  1566 ;; Parameters:    Size  Location     Type
  1567 ;;		None
  1568 ;; Auto vars:     Size  Location     Type
  1569 ;;		None
  1570 ;; Return value:  Size  Location     Type
  1571 ;;                  1    wreg      unsigned char 
  1572 ;; Registers used:
  1573 ;;		wreg, status,2, status,0, tblptrl, tblptrh, tblptru, cstack
  1574 ;; Tracked objects:
  1575 ;;		On entry : 0/0
  1576 ;;		On exit  : 0/0
  1577 ;;		Unchanged: 0/0
  1578 ;; Data sizes:     COMRAM   BANK0   BANK1   BANK2   BANK3   BANK4   BANK5   BANK6   BANK7
  1579 ;;      Params:         0       0       0       0       0       0       0       0       0
  1580 ;;      Locals:         0       0       0       0       0       0       0       0       0
  1581 ;;      Temps:          0       0       0       0       0       0       0       0       0
  1582 ;;      Totals:         0       0       0       0       0       0       0       0       0
  1583 ;;Total ram usage:        0 bytes
  1584 ;; Hardware stack levels used:    1
  1585 ;; Hardware stack levels required when called:    6
  1586 ;; This function calls:
  1587 ;;		_UARTWrite
  1588 ;;		_myPrintf
  1589 ;; This function is called by:
  1590 ;;		_verification
  1591 ;; This function uses a non-reentrant model
  1592 ;;
  1593                           
  1594                           	psect	text7
  1595  0014DC                     __ptext7:
  1596                           	opt callstack 0
  1597  0014DC                     _Par_Validated:
  1598                           	opt callstack 23
  1599  0014DC                     
  1600                           ;cases.c: 47:     if(Par1==0X3C && Par2==0x3E)
  1601  0014DC  0E3C               	movlw	60
  1602  0014DE  183E               	xorwf	_Par1^0,w,c
  1603  0014E0  A4D8               	btfss	status,2,c
  1604  0014E2  EF75  F00A         	goto	u931
  1605  0014E6  EF77  F00A         	goto	u930
  1606  0014EA                     u931:
  1607  0014EA  EF83  F00A         	goto	l2149
  1608  0014EE                     u930:
  1609  0014EE  0E3E               	movlw	62
  1610  0014F0  183C               	xorwf	_Par2^0,w,c
  1611  0014F2  A4D8               	btfss	status,2,c
  1612  0014F4  EF7E  F00A         	goto	u941
  1613  0014F8  EF80  F00A         	goto	u940
  1614  0014FC                     u941:
  1615  0014FC  EF83  F00A         	goto	l2149
  1616  001500                     u940:
  1617  001500                     
  1618                           ;cases.c: 48:     {;cases.c: 49:         return validate_Instruct_State;
  1619  001500  0E03               	movlw	3
  1620  001502  EF8D  F00A         	goto	l54
  1621  001506                     l2149:
  1622                           
  1623                           ;cases.c: 52:     {;cases.c: 54:         myPrintf("Frames are not inserted correctly");
  1624  001506  0E26               	movlw	low STR_4
  1625  001508  6E05               	movwf	myPrintf@PointString^0,c
  1626  00150A  0E08               	movlw	high STR_4
  1627  00150C  6E06               	movwf	(myPrintf@PointString+1)^0,c
  1628  00150E  EC69  F009         	call	_myPrintf	;wreg free
  1629  001512                     
  1630                           ;cases.c: 55:         UARTWrite(0x0A);
  1631  001512  0E0A               	movlw	10
  1632  001514  EC51  F00B         	call	_UARTWrite
  1633  001518                     
  1634                           ;cases.c: 61:         return wait_cmd_State;
  1635  001518  0E01               	movlw	1
  1636  00151A                     l54:
  1637  00151A  0012               	return		;funcret
  1638  00151C                     __end_of_Par_Validated:
  1639                           	opt callstack 0
  1640                           
  1641 ;; *************** function _Ins_Validated *****************
  1642 ;; Defined at:
  1643 ;;		line 65 in file "cases.c"
  1644 ;; Parameters:    Size  Location     Type
  1645 ;;		None
  1646 ;; Auto vars:     Size  Location     Type
  1647 ;;		None
  1648 ;; Return value:  Size  Location     Type
  1649 ;;                  1    wreg      unsigned char 
  1650 ;; Registers used:
  1651 ;;		wreg, status,2, status,0, tblptrl, tblptrh, tblptru, cstack
  1652 ;; Tracked objects:
  1653 ;;		On entry : 0/0
  1654 ;;		On exit  : 0/0
  1655 ;;		Unchanged: 0/0
  1656 ;; Data sizes:     COMRAM   BANK0   BANK1   BANK2   BANK3   BANK4   BANK5   BANK6   BANK7
  1657 ;;      Params:         0       0       0       0       0       0       0       0       0
  1658 ;;      Locals:         0       0       0       0       0       0       0       0       0
  1659 ;;      Temps:          0       0       0       0       0       0       0       0       0
  1660 ;;      Totals:         0       0       0       0       0       0       0       0       0
  1661 ;;Total ram usage:        0 bytes
  1662 ;; Hardware stack levels used:    1
  1663 ;; Hardware stack levels required when called:    6
  1664 ;; This function calls:
  1665 ;;		_UARTWrite
  1666 ;;		_myPrintf
  1667 ;; This function is called by:
  1668 ;;		_verification
  1669 ;; This function uses a non-reentrant model
  1670 ;;
  1671                           
  1672                           	psect	text8
  1673  001448                     __ptext8:
  1674                           	opt callstack 0
  1675  001448                     _Ins_Validated:
  1676                           	opt callstack 23
  1677  001448                     
  1678                           ;cases.c: 67:     if(letter == 0x43)
  1679  001448  0E43               	movlw	67
  1680  00144A  183D               	xorwf	_letter^0,w,c
  1681  00144C  A4D8               	btfss	status,2,c
  1682  00144E  EF2B  F00A         	goto	u951
  1683  001452  EF2D  F00A         	goto	u950
  1684  001456                     u951:
  1685  001456  EF32  F00A         	goto	l2167
  1686  00145A                     u950:
  1687  00145A                     
  1688                           ;cases.c: 68:     {;cases.c: 69:         click=1;
  1689  00145A  0E01               	movlw	1
  1690  00145C  6E32               	movwf	_click^0,c
  1691  00145E                     l2161:
  1692                           
  1693                           ;cases.c: 70:         return validate_Coord_State;
  1694  00145E  0E04               	movlw	4
  1695  001460  EF49  F00A         	goto	l59
  1696  001464                     l2167:
  1697  001464  0E53               	movlw	83
  1698  001466  183D               	xorwf	_letter^0,w,c
  1699  001468  A4D8               	btfss	status,2,c
  1700  00146A  EF39  F00A         	goto	u961
  1701  00146E  EF3B  F00A         	goto	u960
  1702  001472                     u961:
  1703  001472  EF3F  F00A         	goto	l2177
  1704  001476                     u960:
  1705  001476                     
  1706                           ;cases.c: 74:     {;cases.c: 75:         click=0;
  1707  001476  0E00               	movlw	0
  1708  001478  6E32               	movwf	_click^0,c
  1709  00147A  EF2F  F00A         	goto	l2161
  1710  00147E                     l2177:
  1711                           
  1712                           ;cases.c: 79:     {;cases.c: 82:         myPrintf("Touch Instrucction is not recognized"
      +                          );
  1713  00147E  0E01               	movlw	low STR_5
  1714  001480  6E05               	movwf	myPrintf@PointString^0,c
  1715  001482  0E08               	movlw	high STR_5
  1716  001484  6E06               	movwf	(myPrintf@PointString+1)^0,c
  1717  001486  EC69  F009         	call	_myPrintf	;wreg free
  1718  00148A                     
  1719                           ;cases.c: 83:         UARTWrite(0x0A);
  1720  00148A  0E0A               	movlw	10
  1721  00148C  EC51  F00B         	call	_UARTWrite
  1722  001490                     
  1723                           ;cases.c: 89:         return wait_cmd_State;
  1724  001490  0E01               	movlw	1
  1725  001492                     l59:
  1726  001492  0012               	return		;funcret
  1727  001494                     __end_of_Ins_Validated:
  1728                           	opt callstack 0
  1729                           
  1730 ;; *************** function _Coord_Validated *****************
  1731 ;; Defined at:
  1732 ;;		line 93 in file "cases.c"
  1733 ;; Parameters:    Size  Location     Type
  1734 ;;		None
  1735 ;; Auto vars:     Size  Location     Type
  1736 ;;		None
  1737 ;; Return value:  Size  Location     Type
  1738 ;;                  1    wreg      unsigned char 
  1739 ;; Registers used:
  1740 ;;		wreg, status,2, status,0, tblptrl, tblptrh, tblptru, cstack
  1741 ;; Tracked objects:
  1742 ;;		On entry : 0/0
  1743 ;;		On exit  : 0/0
  1744 ;;		Unchanged: 0/0
  1745 ;; Data sizes:     COMRAM   BANK0   BANK1   BANK2   BANK3   BANK4   BANK5   BANK6   BANK7
  1746 ;;      Params:         0       0       0       0       0       0       0       0       0
  1747 ;;      Locals:         0       0       0       0       0       0       0       0       0
  1748 ;;      Temps:          0       0       0       0       0       0       0       0       0
  1749 ;;      Totals:         0       0       0       0       0       0       0       0       0
  1750 ;;Total ram usage:        0 bytes
  1751 ;; Hardware stack levels used:    1
  1752 ;; Hardware stack levels required when called:    6
  1753 ;; This function calls:
  1754 ;;		_UARTWrite
  1755 ;;		_myPrintf
  1756 ;; This function is called by:
  1757 ;;		_verification
  1758 ;; This function uses a non-reentrant model
  1759 ;;
  1760                           
  1761                           	psect	text9
  1762  001494                     __ptext9:
  1763                           	opt callstack 0
  1764  001494                     _Coord_Validated:
  1765                           	opt callstack 23
  1766  001494                     
  1767                           ;cases.c: 95:     if(cord_x<=300 && cord_y<=300)
  1768  001494  0E2D               	movlw	45
  1769  001496  5C3A               	subwf	_cord_x^0,w,c
  1770  001498  0E01               	movlw	1
  1771  00149A  583B               	subwfb	(_cord_x+1)^0,w,c
  1772  00149C  B0D8               	btfsc	status,0,c
  1773  00149E  EF53  F00A         	goto	u971
  1774  0014A2  EF55  F00A         	goto	u970
  1775  0014A6                     u971:
  1776  0014A6  EF63  F00A         	goto	l2195
  1777  0014AA                     u970:
  1778  0014AA  0E2D               	movlw	45
  1779  0014AC  5C38               	subwf	_cord_y^0,w,c
  1780  0014AE  0E01               	movlw	1
  1781  0014B0  5839               	subwfb	(_cord_y+1)^0,w,c
  1782  0014B2  B0D8               	btfsc	status,0,c
  1783  0014B4  EF5E  F00A         	goto	u981
  1784  0014B8  EF60  F00A         	goto	u980
  1785  0014BC                     u981:
  1786  0014BC  EF63  F00A         	goto	l2195
  1787  0014C0                     u980:
  1788  0014C0                     
  1789                           ;cases.c: 96:     {;cases.c: 97:         return end_State;
  1790  0014C0  0E05               	movlw	5
  1791  0014C2  EF6D  F00A         	goto	l66
  1792  0014C6                     l2195:
  1793                           
  1794                           ;cases.c: 100:     {;cases.c: 102:         myPrintf("Surpasses coordinates size");
  1795  0014C6  0E65               	movlw	low STR_6
  1796  0014C8  6E05               	movwf	myPrintf@PointString^0,c
  1797  0014CA  0E08               	movlw	high STR_6
  1798  0014CC  6E06               	movwf	(myPrintf@PointString+1)^0,c
  1799  0014CE  EC69  F009         	call	_myPrintf	;wreg free
  1800  0014D2                     
  1801                           ;cases.c: 103:         UARTWrite(0x0A);
  1802  0014D2  0E0A               	movlw	10
  1803  0014D4  EC51  F00B         	call	_UARTWrite
  1804  0014D8                     
  1805                           ;cases.c: 109:         return wait_cmd_State;
  1806  0014D8  0E01               	movlw	1
  1807  0014DA                     l66:
  1808  0014DA  0012               	return		;funcret
  1809  0014DC                     __end_of_Coord_Validated:
  1810                           	opt callstack 0
  1811                           
  1812 ;; *************** function _PrintMyActulPosition *****************
  1813 ;; Defined at:
  1814 ;;		line 103 in file "main.c"
  1815 ;; Parameters:    Size  Location     Type
  1816 ;;		None
  1817 ;; Auto vars:     Size  Location     Type
  1818 ;;  i               2   25[COMRAM] int 
  1819 ;;  i               2   23[COMRAM] int 
  1820 ;;  b               3   18[COMRAM] unsigned char [3]
  1821 ;;  a               3   15[COMRAM] unsigned char [3]
  1822 ;; Return value:  Size  Location     Type
  1823 ;;                  1    wreg      void 
  1824 ;; Registers used:
  1825 ;;		wreg, fsr2l, fsr2h, status,2, status,0, cstack
  1826 ;; Tracked objects:
  1827 ;;		On entry : 0/0
  1828 ;;		On exit  : 0/0
  1829 ;;		Unchanged: 0/0
  1830 ;; Data sizes:     COMRAM   BANK0   BANK1   BANK2   BANK3   BANK4   BANK5   BANK6   BANK7
  1831 ;;      Params:         0       0       0       0       0       0       0       0       0
  1832 ;;      Locals:        12       0       0       0       0       0       0       0       0
  1833 ;;      Temps:          0       0       0       0       0       0       0       0       0
  1834 ;;      Totals:        12       0       0       0       0       0       0       0       0
  1835 ;;Total ram usage:       12 bytes
  1836 ;; Hardware stack levels used:    1
  1837 ;; Hardware stack levels required when called:    5
  1838 ;; This function calls:
  1839 ;;		_UARTWrite
  1840 ;;		___lwdiv
  1841 ;;		___lwmod
  1842 ;; This function is called by:
  1843 ;;		_main
  1844 ;; This function uses a non-reentrant model
  1845 ;;
  1846                           
  1847                           	psect	text10
  1848  000C22                     __ptext10:
  1849                           	opt callstack 0
  1850  000C22                     _PrintMyActulPosition:
  1851                           	opt callstack 25
  1852  000C22                     
  1853                           ;main.c: 106:         char a[3];;main.c: 107:         char b[3];;main.c: 109:         a[
      +                          0]=(CoordAntX/100)+48;
  1854  000C22  C041  F009         	movff	_CoordAntX,___lwdiv@dividend
  1855  000C26  C042  F00A         	movff	_CoordAntX+1,___lwdiv@dividend+1
  1856  000C2A  0E00               	movlw	0
  1857  000C2C  6E0C               	movwf	(___lwdiv@divisor+1)^0,c
  1858  000C2E  0E64               	movlw	100
  1859  000C30  6E0B               	movwf	___lwdiv@divisor^0,c
  1860  000C32  EC58  F008         	call	___lwdiv	;wreg free
  1861  000C36  5009               	movf	?___lwdiv^0,w,c
  1862  000C38  0F30               	addlw	48
  1863  000C3A  6E10               	movwf	PrintMyActulPosition@a^0,c
  1864                           
  1865                           ;main.c: 110:         a[1]=((CoordAntX%100)/10)+48;
  1866  000C3C  0E00               	movlw	0
  1867  000C3E  6E07               	movwf	(___lwmod@divisor+1)^0,c
  1868  000C40  0E64               	movlw	100
  1869  000C42  6E06               	movwf	___lwmod@divisor^0,c
  1870  000C44  C041  F004         	movff	_CoordAntX,___lwmod@dividend
  1871  000C48  C042  F005         	movff	_CoordAntX+1,___lwmod@dividend+1
  1872  000C4C  EC37  F009         	call	___lwmod	;wreg free
  1873  000C50  C004  F009         	movff	?___lwmod,___lwdiv@dividend
  1874  000C54  C005  F00A         	movff	?___lwmod+1,___lwdiv@dividend+1
  1875  000C58  0E00               	movlw	0
  1876  000C5A  6E0C               	movwf	(___lwdiv@divisor+1)^0,c
  1877  000C5C  0E0A               	movlw	10
  1878  000C5E  6E0B               	movwf	___lwdiv@divisor^0,c
  1879  000C60  EC58  F008         	call	___lwdiv	;wreg free
  1880  000C64  5009               	movf	?___lwdiv^0,w,c
  1881  000C66  0F30               	addlw	48
  1882  000C68  6E11               	movwf	(PrintMyActulPosition@a+1)^0,c
  1883                           
  1884                           ;main.c: 111:         a[2]=((CoordAntX%100)%10)+48;
  1885  000C6A  0E00               	movlw	0
  1886  000C6C  6E07               	movwf	(___lwmod@divisor+1)^0,c
  1887  000C6E  0E64               	movlw	100
  1888  000C70  6E06               	movwf	___lwmod@divisor^0,c
  1889  000C72  C041  F004         	movff	_CoordAntX,___lwmod@dividend
  1890  000C76  C042  F005         	movff	_CoordAntX+1,___lwmod@dividend+1
  1891  000C7A  EC37  F009         	call	___lwmod	;wreg free
  1892  000C7E  C004  F016         	movff	?___lwmod,_PrintMyActulPosition$2005
  1893  000C82  C005  F017         	movff	?___lwmod+1,_PrintMyActulPosition$2005+1
  1894                           
  1895                           ;main.c: 111:         a[2]=((CoordAntX%100)%10)+48;
  1896  000C86  C016  F004         	movff	_PrintMyActulPosition$2005,___lwmod@dividend
  1897  000C8A  C017  F005         	movff	_PrintMyActulPosition$2005+1,___lwmod@dividend+1
  1898  000C8E  0E00               	movlw	0
  1899  000C90  6E07               	movwf	(___lwmod@divisor+1)^0,c
  1900  000C92  0E0A               	movlw	10
  1901  000C94  6E06               	movwf	___lwmod@divisor^0,c
  1902  000C96  EC37  F009         	call	___lwmod	;wreg free
  1903  000C9A  5004               	movf	?___lwmod^0,w,c
  1904  000C9C  0F30               	addlw	48
  1905  000C9E  6E12               	movwf	(PrintMyActulPosition@a+2)^0,c
  1906                           
  1907                           ;main.c: 113:         b[0]=(CoordAntY/100)+48;
  1908  000CA0  C03F  F009         	movff	_CoordAntY,___lwdiv@dividend
  1909  000CA4  C040  F00A         	movff	_CoordAntY+1,___lwdiv@dividend+1
  1910  000CA8  0E00               	movlw	0
  1911  000CAA  6E0C               	movwf	(___lwdiv@divisor+1)^0,c
  1912  000CAC  0E64               	movlw	100
  1913  000CAE  6E0B               	movwf	___lwdiv@divisor^0,c
  1914  000CB0  EC58  F008         	call	___lwdiv	;wreg free
  1915  000CB4  5009               	movf	?___lwdiv^0,w,c
  1916  000CB6  0F30               	addlw	48
  1917  000CB8  6E13               	movwf	PrintMyActulPosition@b^0,c
  1918                           
  1919                           ;main.c: 114:         b[1]=((CoordAntY%100)/10)+48;
  1920  000CBA  0E00               	movlw	0
  1921  000CBC  6E07               	movwf	(___lwmod@divisor+1)^0,c
  1922  000CBE  0E64               	movlw	100
  1923  000CC0  6E06               	movwf	___lwmod@divisor^0,c
  1924  000CC2  C03F  F004         	movff	_CoordAntY,___lwmod@dividend
  1925  000CC6  C040  F005         	movff	_CoordAntY+1,___lwmod@dividend+1
  1926  000CCA  EC37  F009         	call	___lwmod	;wreg free
  1927  000CCE  C004  F009         	movff	?___lwmod,___lwdiv@dividend
  1928  000CD2  C005  F00A         	movff	?___lwmod+1,___lwdiv@dividend+1
  1929  000CD6  0E00               	movlw	0
  1930  000CD8  6E0C               	movwf	(___lwdiv@divisor+1)^0,c
  1931  000CDA  0E0A               	movlw	10
  1932  000CDC  6E0B               	movwf	___lwdiv@divisor^0,c
  1933  000CDE  EC58  F008         	call	___lwdiv	;wreg free
  1934  000CE2  5009               	movf	?___lwdiv^0,w,c
  1935  000CE4  0F30               	addlw	48
  1936  000CE6  6E14               	movwf	(PrintMyActulPosition@b+1)^0,c
  1937                           
  1938                           ;main.c: 115:         b[2]=((CoordAntY%100)%10)+48;
  1939  000CE8  0E00               	movlw	0
  1940  000CEA  6E07               	movwf	(___lwmod@divisor+1)^0,c
  1941  000CEC  0E64               	movlw	100
  1942  000CEE  6E06               	movwf	___lwmod@divisor^0,c
  1943  000CF0  C03F  F004         	movff	_CoordAntY,___lwmod@dividend
  1944  000CF4  C040  F005         	movff	_CoordAntY+1,___lwmod@dividend+1
  1945  000CF8  EC37  F009         	call	___lwmod	;wreg free
  1946  000CFC  C004  F016         	movff	?___lwmod,_PrintMyActulPosition$2005
  1947  000D00  C005  F017         	movff	?___lwmod+1,_PrintMyActulPosition$2005+1
  1948                           
  1949                           ;main.c: 115:         b[2]=((CoordAntY%100)%10)+48;
  1950  000D04  C016  F004         	movff	_PrintMyActulPosition$2005,___lwmod@dividend
  1951  000D08  C017  F005         	movff	_PrintMyActulPosition$2005+1,___lwmod@dividend+1
  1952  000D0C  0E00               	movlw	0
  1953  000D0E  6E07               	movwf	(___lwmod@divisor+1)^0,c
  1954  000D10  0E0A               	movlw	10
  1955  000D12  6E06               	movwf	___lwmod@divisor^0,c
  1956  000D14  EC37  F009         	call	___lwmod	;wreg free
  1957  000D18  5004               	movf	?___lwmod^0,w,c
  1958  000D1A  0F30               	addlw	48
  1959  000D1C  6E15               	movwf	(PrintMyActulPosition@b+2)^0,c
  1960  000D1E                     
  1961                           ;main.c: 117:         for(int i=0; i<3; i++){
  1962  000D1E  0E00               	movlw	0
  1963  000D20  6E19               	movwf	(PrintMyActulPosition@i+1)^0,c
  1964  000D22  0E00               	movlw	0
  1965  000D24  6E18               	movwf	PrintMyActulPosition@i^0,c
  1966  000D26                     l2421:
  1967                           
  1968                           ;main.c: 119:             UARTWrite(a[i]);
  1969  000D26  0E10               	movlw	low PrintMyActulPosition@a
  1970  000D28  2418               	addwf	PrintMyActulPosition@i^0,w,c
  1971  000D2A  6ED9               	movwf	fsr2l,c
  1972  000D2C  0E00               	movlw	high PrintMyActulPosition@a
  1973  000D2E  2019               	addwfc	(PrintMyActulPosition@i+1)^0,w,c
  1974  000D30  6EDA               	movwf	fsr2h,c
  1975  000D32  50DF               	movf	indf2,w,c
  1976  000D34  EC51  F00B         	call	_UARTWrite
  1977  000D38                     
  1978                           ;main.c: 120:         }
  1979  000D38  4A18               	infsnz	PrintMyActulPosition@i^0,f,c
  1980  000D3A  2A19               	incf	(PrintMyActulPosition@i+1)^0,f,c
  1981  000D3C  BE19               	btfsc	(PrintMyActulPosition@i+1)^0,7,c
  1982  000D3E  EFAA  F006         	goto	u1171
  1983  000D42  5019               	movf	(PrintMyActulPosition@i+1)^0,w,c
  1984  000D44  E109               	bnz	u1170
  1985  000D46  0E03               	movlw	3
  1986  000D48  5C18               	subwf	PrintMyActulPosition@i^0,w,c
  1987  000D4A  A0D8               	btfss	status,0,c
  1988  000D4C  EFAA  F006         	goto	u1171
  1989  000D50  EFAC  F006         	goto	u1170
  1990  000D54                     u1171:
  1991  000D54  EF93  F006         	goto	l2421
  1992  000D58                     u1170:
  1993  000D58                     
  1994                           ;main.c: 121:         UARTWrite(0x2C);
  1995  000D58  0E2C               	movlw	44
  1996  000D5A  EC51  F00B         	call	_UARTWrite
  1997  000D5E                     
  1998                           ;main.c: 122:         for(int i=0; i<3; i++){
  1999  000D5E  0E00               	movlw	0
  2000  000D60  6E1B               	movwf	(PrintMyActulPosition@i_811+1)^0,c
  2001  000D62  0E00               	movlw	0
  2002  000D64  6E1A               	movwf	PrintMyActulPosition@i_811^0,c
  2003  000D66                     l2435:
  2004                           
  2005                           ;main.c: 124:             UARTWrite(b[i]);
  2006  000D66  0E13               	movlw	low PrintMyActulPosition@b
  2007  000D68  241A               	addwf	PrintMyActulPosition@i_811^0,w,c
  2008  000D6A  6ED9               	movwf	fsr2l,c
  2009  000D6C  0E00               	movlw	high PrintMyActulPosition@b
  2010  000D6E  201B               	addwfc	(PrintMyActulPosition@i_811+1)^0,w,c
  2011  000D70  6EDA               	movwf	fsr2h,c
  2012  000D72  50DF               	movf	indf2,w,c
  2013  000D74  EC51  F00B         	call	_UARTWrite
  2014  000D78                     
  2015                           ;main.c: 125:         }
  2016  000D78  4A1A               	infsnz	PrintMyActulPosition@i_811^0,f,c
  2017  000D7A  2A1B               	incf	(PrintMyActulPosition@i_811+1)^0,f,c
  2018  000D7C  BE1B               	btfsc	(PrintMyActulPosition@i_811+1)^0,7,c
  2019  000D7E  EFCA  F006         	goto	u1181
  2020  000D82  501B               	movf	(PrintMyActulPosition@i_811+1)^0,w,c
  2021  000D84  E109               	bnz	u1180
  2022  000D86  0E03               	movlw	3
  2023  000D88  5C1A               	subwf	PrintMyActulPosition@i_811^0,w,c
  2024  000D8A  A0D8               	btfss	status,0,c
  2025  000D8C  EFCA  F006         	goto	u1181
  2026  000D90  EFCC  F006         	goto	u1180
  2027  000D94                     u1181:
  2028  000D94  EFB3  F006         	goto	l2435
  2029  000D98                     u1180:
  2030  000D98  0012               	return		;funcret
  2031  000D9A                     __end_of_PrintMyActulPosition:
  2032                           	opt callstack 0
  2033                           
  2034 ;; *************** function ___lwmod *****************
  2035 ;; Defined at:
  2036 ;;		line 7 in file "C:\Program Files (x86)\Microchip\xc8\v2.10\pic\sources\c99\common\lwmod.c"
  2037 ;; Parameters:    Size  Location     Type
  2038 ;;  dividend        2    3[COMRAM] unsigned int 
  2039 ;;  divisor         2    5[COMRAM] unsigned int 
  2040 ;; Auto vars:     Size  Location     Type
  2041 ;;  counter         1    7[COMRAM] unsigned char 
  2042 ;; Return value:  Size  Location     Type
  2043 ;;                  2    3[COMRAM] unsigned int 
  2044 ;; Registers used:
  2045 ;;		wreg, status,2, status,0
  2046 ;; Tracked objects:
  2047 ;;		On entry : 0/0
  2048 ;;		On exit  : 0/0
  2049 ;;		Unchanged: 0/0
  2050 ;; Data sizes:     COMRAM   BANK0   BANK1   BANK2   BANK3   BANK4   BANK5   BANK6   BANK7
  2051 ;;      Params:         4       0       0       0       0       0       0       0       0
  2052 ;;      Locals:         1       0       0       0       0       0       0       0       0
  2053 ;;      Temps:          0       0       0       0       0       0       0       0       0
  2054 ;;      Totals:         5       0       0       0       0       0       0       0       0
  2055 ;;Total ram usage:        5 bytes
  2056 ;; Hardware stack levels used:    1
  2057 ;; Hardware stack levels required when called:    4
  2058 ;; This function calls:
  2059 ;;		Nothing
  2060 ;; This function is called by:
  2061 ;;		_PrintMyActulPosition
  2062 ;; This function uses a non-reentrant model
  2063 ;;
  2064                           
  2065                           	psect	text11
  2066  00126E                     __ptext11:
  2067                           	opt callstack 0
  2068  00126E                     ___lwmod:
  2069                           	opt callstack 25
  2070  00126E  5006               	movf	___lwmod@divisor^0,w,c
  2071  001270  1007               	iorwf	(___lwmod@divisor+1)^0,w,c
  2072  001272  B4D8               	btfsc	status,2,c
  2073  001274  EF3E  F009         	goto	u1101
  2074  001278  EF40  F009         	goto	u1100
  2075  00127C                     u1101:
  2076  00127C  EF64  F009         	goto	l1145
  2077  001280                     u1100:
  2078  001280  0E01               	movlw	1
  2079  001282  6E08               	movwf	___lwmod@counter^0,c
  2080  001284  EF48  F009         	goto	l2313
  2081  001288                     l2311:
  2082  001288  90D8               	bcf	status,0,c
  2083  00128A  3606               	rlcf	___lwmod@divisor^0,f,c
  2084  00128C  3607               	rlcf	(___lwmod@divisor+1)^0,f,c
  2085  00128E  2A08               	incf	___lwmod@counter^0,f,c
  2086  001290                     l2313:
  2087  001290  AE07               	btfss	(___lwmod@divisor+1)^0,7,c
  2088  001292  EF4D  F009         	goto	u1111
  2089  001296  EF4F  F009         	goto	u1110
  2090  00129A                     u1111:
  2091  00129A  EF44  F009         	goto	l2311
  2092  00129E                     u1110:
  2093  00129E                     l2315:
  2094  00129E  5006               	movf	___lwmod@divisor^0,w,c
  2095  0012A0  5C04               	subwf	___lwmod@dividend^0,w,c
  2096  0012A2  5007               	movf	(___lwmod@divisor+1)^0,w,c
  2097  0012A4  5805               	subwfb	(___lwmod@dividend+1)^0,w,c
  2098  0012A6  A0D8               	btfss	status,0,c
  2099  0012A8  EF58  F009         	goto	u1121
  2100  0012AC  EF5A  F009         	goto	u1120
  2101  0012B0                     u1121:
  2102  0012B0  EF5E  F009         	goto	l2319
  2103  0012B4                     u1120:
  2104  0012B4  5006               	movf	___lwmod@divisor^0,w,c
  2105  0012B6  5E04               	subwf	___lwmod@dividend^0,f,c
  2106  0012B8  5007               	movf	(___lwmod@divisor+1)^0,w,c
  2107  0012BA  5A05               	subwfb	(___lwmod@dividend+1)^0,f,c
  2108  0012BC                     l2319:
  2109  0012BC  90D8               	bcf	status,0,c
  2110  0012BE  3207               	rrcf	(___lwmod@divisor+1)^0,f,c
  2111  0012C0  3206               	rrcf	___lwmod@divisor^0,f,c
  2112  0012C2  2E08               	decfsz	___lwmod@counter^0,f,c
  2113  0012C4  EF4F  F009         	goto	l2315
  2114  0012C8                     l1145:
  2115  0012C8  C004  F004         	movff	___lwmod@dividend,?___lwmod
  2116  0012CC  C005  F005         	movff	___lwmod@dividend+1,?___lwmod+1
  2117  0012D0  0012               	return		;funcret
  2118  0012D2                     __end_of___lwmod:
  2119                           	opt callstack 0
  2120                           
  2121 ;; *************** function ___lwdiv *****************
  2122 ;; Defined at:
  2123 ;;		line 7 in file "C:\Program Files (x86)\Microchip\xc8\v2.10\pic\sources\c99\common\lwdiv.c"
  2124 ;; Parameters:    Size  Location     Type
  2125 ;;  dividend        2    8[COMRAM] unsigned int 
  2126 ;;  divisor         2   10[COMRAM] unsigned int 
  2127 ;; Auto vars:     Size  Location     Type
  2128 ;;  quotient        2   12[COMRAM] unsigned int 
  2129 ;;  counter         1   14[COMRAM] unsigned char 
  2130 ;; Return value:  Size  Location     Type
  2131 ;;                  2    8[COMRAM] unsigned int 
  2132 ;; Registers used:
  2133 ;;		wreg, status,2, status,0
  2134 ;; Tracked objects:
  2135 ;;		On entry : 0/0
  2136 ;;		On exit  : 0/0
  2137 ;;		Unchanged: 0/0
  2138 ;; Data sizes:     COMRAM   BANK0   BANK1   BANK2   BANK3   BANK4   BANK5   BANK6   BANK7
  2139 ;;      Params:         4       0       0       0       0       0       0       0       0
  2140 ;;      Locals:         3       0       0       0       0       0       0       0       0
  2141 ;;      Temps:          0       0       0       0       0       0       0       0       0
  2142 ;;      Totals:         7       0       0       0       0       0       0       0       0
  2143 ;;Total ram usage:        7 bytes
  2144 ;; Hardware stack levels used:    1
  2145 ;; Hardware stack levels required when called:    4
  2146 ;; This function calls:
  2147 ;;		Nothing
  2148 ;; This function is called by:
  2149 ;;		_PrintMyActulPosition
  2150 ;; This function uses a non-reentrant model
  2151 ;;
  2152                           
  2153                           	psect	text12
  2154  0010B0                     __ptext12:
  2155                           	opt callstack 0
  2156  0010B0                     ___lwdiv:
  2157                           	opt callstack 25
  2158  0010B0  0E00               	movlw	0
  2159  0010B2  6E0E               	movwf	(___lwdiv@quotient+1)^0,c
  2160  0010B4  0E00               	movlw	0
  2161  0010B6  6E0D               	movwf	___lwdiv@quotient^0,c
  2162  0010B8  500B               	movf	___lwdiv@divisor^0,w,c
  2163  0010BA  100C               	iorwf	(___lwdiv@divisor+1)^0,w,c
  2164  0010BC  B4D8               	btfsc	status,2,c
  2165  0010BE  EF63  F008         	goto	u1071
  2166  0010C2  EF65  F008         	goto	u1070
  2167  0010C6                     u1071:
  2168  0010C6  EF8D  F008         	goto	l1135
  2169  0010CA                     u1070:
  2170  0010CA  0E01               	movlw	1
  2171  0010CC  6E0F               	movwf	___lwdiv@counter^0,c
  2172  0010CE  EF6D  F008         	goto	l2293
  2173  0010D2                     l2291:
  2174  0010D2  90D8               	bcf	status,0,c
  2175  0010D4  360B               	rlcf	___lwdiv@divisor^0,f,c
  2176  0010D6  360C               	rlcf	(___lwdiv@divisor+1)^0,f,c
  2177  0010D8  2A0F               	incf	___lwdiv@counter^0,f,c
  2178  0010DA                     l2293:
  2179  0010DA  AE0C               	btfss	(___lwdiv@divisor+1)^0,7,c
  2180  0010DC  EF72  F008         	goto	u1081
  2181  0010E0  EF74  F008         	goto	u1080
  2182  0010E4                     u1081:
  2183  0010E4  EF69  F008         	goto	l2291
  2184  0010E8                     u1080:
  2185  0010E8                     l2295:
  2186  0010E8  90D8               	bcf	status,0,c
  2187  0010EA  360D               	rlcf	___lwdiv@quotient^0,f,c
  2188  0010EC  360E               	rlcf	(___lwdiv@quotient+1)^0,f,c
  2189  0010EE  500B               	movf	___lwdiv@divisor^0,w,c
  2190  0010F0  5C09               	subwf	___lwdiv@dividend^0,w,c
  2191  0010F2  500C               	movf	(___lwdiv@divisor+1)^0,w,c
  2192  0010F4  580A               	subwfb	(___lwdiv@dividend+1)^0,w,c
  2193  0010F6  A0D8               	btfss	status,0,c
  2194  0010F8  EF80  F008         	goto	u1091
  2195  0010FC  EF82  F008         	goto	u1090
  2196  001100                     u1091:
  2197  001100  EF87  F008         	goto	l2303
  2198  001104                     u1090:
  2199  001104  500B               	movf	___lwdiv@divisor^0,w,c
  2200  001106  5E09               	subwf	___lwdiv@dividend^0,f,c
  2201  001108  500C               	movf	(___lwdiv@divisor+1)^0,w,c
  2202  00110A  5A0A               	subwfb	(___lwdiv@dividend+1)^0,f,c
  2203  00110C  800D               	bsf	___lwdiv@quotient^0,0,c
  2204  00110E                     l2303:
  2205  00110E  90D8               	bcf	status,0,c
  2206  001110  320C               	rrcf	(___lwdiv@divisor+1)^0,f,c
  2207  001112  320B               	rrcf	___lwdiv@divisor^0,f,c
  2208  001114  2E0F               	decfsz	___lwdiv@counter^0,f,c
  2209  001116  EF74  F008         	goto	l2295
  2210  00111A                     l1135:
  2211  00111A  C00D  F009         	movff	___lwdiv@quotient,?___lwdiv
  2212  00111E  C00E  F00A         	movff	___lwdiv@quotient+1,?___lwdiv+1
  2213  001122  0012               	return		;funcret
  2214  001124                     __end_of___lwdiv:
  2215                           	opt callstack 0
  2216                           
  2217 ;; *************** function _Movement *****************
  2218 ;; Defined at:
  2219 ;;		line 14 in file "Movimiento.c"
  2220 ;; Parameters:    Size  Location     Type
  2221 ;;		None
  2222 ;; Auto vars:     Size  Location     Type
  2223 ;;		None
  2224 ;; Return value:  Size  Location     Type
  2225 ;;                  2  220[None  ] int 
  2226 ;; Registers used:
  2227 ;;		wreg, status,2, status,0, tblptrl, tblptrh, tblptru, prodl, prodh, cstack
  2228 ;; Tracked objects:
  2229 ;;		On entry : 0/0
  2230 ;;		On exit  : 0/0
  2231 ;;		Unchanged: 0/0
  2232 ;; Data sizes:     COMRAM   BANK0   BANK1   BANK2   BANK3   BANK4   BANK5   BANK6   BANK7
  2233 ;;      Params:         0       0       0       0       0       0       0       0       0
  2234 ;;      Locals:         0       0       0       0       0       0       0       0       0
  2235 ;;      Temps:          2       0       0       0       0       0       0       0       0
  2236 ;;      Totals:         2       0       0       0       0       0       0       0       0
  2237 ;;Total ram usage:        2 bytes
  2238 ;; Hardware stack levels used:    1
  2239 ;; Hardware stack levels required when called:    7
  2240 ;; This function calls:
  2241 ;;		_PWM
  2242 ;;		_myPrintf
  2243 ;; This function is called by:
  2244 ;;		_main
  2245 ;; This function uses a non-reentrant model
  2246 ;;
  2247                           
  2248                           	psect	text13
  2249  001202                     __ptext13:
  2250                           	opt callstack 0
  2251  001202                     _Movement:
  2252                           	opt callstack 23
  2253  001202                     
  2254                           ;Movimiento.c: 16:     if(click == 1){
  2255  001202  0432               	decf	_click^0,w,c
  2256  001204  A4D8               	btfss	status,2,c
  2257  001206  EF07  F009         	goto	u1191
  2258  00120A  EF09  F009         	goto	u1190
  2259  00120E                     u1191:
  2260  00120E  EF20  F009         	goto	l2453
  2261  001212                     u1190:
  2262  001212                     
  2263                           ;Movimiento.c: 17:         PWM();
  2264  001212  EC44  F005         	call	_PWM	;wreg free
  2265  001216                     
  2266                           ;Movimiento.c: 18:         PORTDbits.RD7=1;
  2267  001216  8E83               	bsf	131,7,c	;volatile
  2268  001218                     
  2269                           ;Movimiento.c: 19:         _delay((unsigned long)((1200)*(8000000L/4000.0)));
  2270  001218  0E0D               	movlw	13
  2271  00121A  6E0B               	movwf	(??_Movement+1)^0,c
  2272  00121C  0E2D               	movlw	45
  2273  00121E  6E0A               	movwf	??_Movement^0,c
  2274  001220  0ED8               	movlw	216
  2275  001222                     u1337:
  2276  001222  2EE8               	decfsz	wreg,f,c
  2277  001224  D7FE               	bra	u1337
  2278  001226  2E0A               	decfsz	??_Movement^0,f,c
  2279  001228  D7FC               	bra	u1337
  2280  00122A  2E0B               	decfsz	(??_Movement+1)^0,f,c
  2281  00122C  D7FA               	bra	u1337
  2282  00122E                     
  2283                           ;Movimiento.c: 20:         PORTDbits.RD7=0;
  2284  00122E  9E83               	bcf	131,7,c	;volatile
  2285  001230                     
  2286                           ;Movimiento.c: 21:         myPrintf("Click");
  2287  001230  0EE0               	movlw	low STR_12
  2288  001232  6E05               	movwf	myPrintf@PointString^0,c
  2289  001234  0E08               	movlw	high STR_12
  2290  001236  6E06               	movwf	(myPrintf@PointString+1)^0,c
  2291  001238  EC69  F009         	call	_myPrintf	;wreg free
  2292                           
  2293                           ;Movimiento.c: 22:     }
  2294  00123C  EF32  F009         	goto	l2463
  2295  001240                     l2453:
  2296                           
  2297                           ;Movimiento.c: 24:         if(click == 0)
  2298  001240  5032               	movf	_click^0,w,c
  2299  001242  A4D8               	btfss	status,2,c
  2300  001244  EF26  F009         	goto	u1201
  2301  001248  EF28  F009         	goto	u1200
  2302  00124C                     u1201:
  2303  00124C  EF32  F009         	goto	l2463
  2304  001250                     u1200:
  2305  001250                     
  2306                           ;Movimiento.c: 25:         {;Movimiento.c: 26:             PORTDbits.RD7=1;
  2307  001250  8E83               	bsf	131,7,c	;volatile
  2308  001252                     
  2309                           ;Movimiento.c: 27:             PWM();
  2310  001252  EC44  F005         	call	_PWM	;wreg free
  2311  001256                     
  2312                           ;Movimiento.c: 28:             PORTDbits.RD7=0;
  2313  001256  9E83               	bcf	131,7,c	;volatile
  2314  001258                     
  2315                           ;Movimiento.c: 29:             myPrintf("Slide");
  2316  001258  0EDA               	movlw	low STR_13
  2317  00125A  6E05               	movwf	myPrintf@PointString^0,c
  2318  00125C  0E08               	movlw	high STR_13
  2319  00125E  6E06               	movwf	(myPrintf@PointString+1)^0,c
  2320  001260  EC69  F009         	call	_myPrintf	;wreg free
  2321  001264                     l2463:
  2322                           
  2323                           ;Movimiento.c: 33:     ControlFlagVerification = 1;
  2324  001264  0E00               	movlw	0
  2325  001266  6E31               	movwf	(_ControlFlagVerification+1)^0,c
  2326  001268  0E01               	movlw	1
  2327  00126A  6E30               	movwf	_ControlFlagVerification^0,c
  2328  00126C  0012               	return		;funcret
  2329  00126E                     __end_of_Movement:
  2330                           	opt callstack 0
  2331                           
  2332 ;; *************** function _myPrintf *****************
  2333 ;; Defined at:
  2334 ;;		line 128 in file "main.c"
  2335 ;; Parameters:    Size  Location     Type
  2336 ;;  PointString     2    4[COMRAM] PTR unsigned char 
  2337 ;;		 -> STR_13(6), STR_12(6), STR_11(11), STR_10(13), 
  2338 ;;		 -> STR_9(11), STR_8(13), STR_7(17), STR_6(27), 
  2339 ;;		 -> STR_5(37), STR_4(34), STR_3(29), STR_2(14), 
  2340 ;;		 -> STR_1(11), 
  2341 ;; Auto vars:     Size  Location     Type
  2342 ;;  i               1    8[COMRAM] unsigned char 
  2343 ;; Return value:  Size  Location     Type
  2344 ;;                  1    wreg      void 
  2345 ;; Registers used:
  2346 ;;		wreg, status,2, status,0, tblptrl, tblptrh, tblptru, cstack
  2347 ;; Tracked objects:
  2348 ;;		On entry : 0/0
  2349 ;;		On exit  : 0/0
  2350 ;;		Unchanged: 0/0
  2351 ;; Data sizes:     COMRAM   BANK0   BANK1   BANK2   BANK3   BANK4   BANK5   BANK6   BANK7
  2352 ;;      Params:         2       0       0       0       0       0       0       0       0
  2353 ;;      Locals:         1       0       0       0       0       0       0       0       0
  2354 ;;      Temps:          2       0       0       0       0       0       0       0       0
  2355 ;;      Totals:         5       0       0       0       0       0       0       0       0
  2356 ;;Total ram usage:        5 bytes
  2357 ;; Hardware stack levels used:    1
  2358 ;; Hardware stack levels required when called:    5
  2359 ;; This function calls:
  2360 ;;		_UARTWrite
  2361 ;; This function is called by:
  2362 ;;		_start
  2363 ;;		_cmd
  2364 ;;		_Par_Validated
  2365 ;;		_Ins_Validated
  2366 ;;		_Coord_Validated
  2367 ;;		_end
  2368 ;;		_main
  2369 ;;		_Movement
  2370 ;; This function uses a non-reentrant model
  2371 ;;
  2372                           
  2373                           	psect	text14
  2374  0012D2                     __ptext14:
  2375                           	opt callstack 0
  2376  0012D2                     _myPrintf:
  2377                           	opt callstack 23
  2378  0012D2                     
  2379                           ;main.c: 128: void myPrintf(unsigned char *PointString);main.c: 129: {;main.c: 130:     
      +                          for (unsigned char i = 0; i < 255; i++) {
  2380  0012D2  0E00               	movlw	0
  2381  0012D4  6E09               	movwf	myPrintf@i^0,c
  2382  0012D6                     l1971:
  2383                           
  2384                           ;main.c: 131:         if (PointString[i] == ((void*)0)) {
  2385  0012D6  5009               	movf	myPrintf@i^0,w,c
  2386  0012D8  2405               	addwf	myPrintf@PointString^0,w,c
  2387  0012DA  6E07               	movwf	??_myPrintf^0,c
  2388  0012DC  0E00               	movlw	0
  2389  0012DE  2006               	addwfc	(myPrintf@PointString+1)^0,w,c
  2390  0012E0  6E08               	movwf	(??_myPrintf+1)^0,c
  2391  0012E2  C007  FFF6         	movff	??_myPrintf,tblptrl
  2392  0012E6  C008  FFF7         	movff	??_myPrintf+1,tblptrh
  2393  0012EA                     	if	0	;tblptru may be non-zero
  2394  0012EA                     	endif
  2395  0012EA                     	if	0	;tblptru may be non-zero
  2396  0012EA                     	endif
  2397  0012EA  0008               	tblrd		*
  2398  0012EC  50F5               	movf	tablat,w,c
  2399  0012EE  0900               	iorlw	0
  2400  0012F0  A4D8               	btfss	status,2,c
  2401  0012F2  EF7D  F009         	goto	u741
  2402  0012F6  EF7F  F009         	goto	u740
  2403  0012FA                     u741:
  2404  0012FA  EF81  F009         	goto	l1977
  2405  0012FE                     u740:
  2406  0012FE  EF98  F009         	goto	l297
  2407  001302                     l1977:
  2408                           
  2409                           ;main.c: 134:             UARTWrite(PointString[i]);
  2410  001302  5009               	movf	myPrintf@i^0,w,c
  2411  001304  2405               	addwf	myPrintf@PointString^0,w,c
  2412  001306  6E07               	movwf	??_myPrintf^0,c
  2413  001308  0E00               	movlw	0
  2414  00130A  2006               	addwfc	(myPrintf@PointString+1)^0,w,c
  2415  00130C  6E08               	movwf	(??_myPrintf+1)^0,c
  2416  00130E  C007  FFF6         	movff	??_myPrintf,tblptrl
  2417  001312  C008  FFF7         	movff	??_myPrintf+1,tblptrh
  2418  001316                     	if	0	;tblptru may be non-zero
  2419  001316                     	endif
  2420  001316                     	if	0	;tblptru may be non-zero
  2421  001316                     	endif
  2422  001316  0008               	tblrd		*
  2423  001318  50F5               	movf	tablat,w,c
  2424  00131A  EC51  F00B         	call	_UARTWrite
  2425  00131E                     
  2426                           ;main.c: 135:     }
  2427  00131E  2A09               	incf	myPrintf@i^0,f,c
  2428  001320  2809               	incf	myPrintf@i^0,w,c
  2429  001322  A4D8               	btfss	status,2,c
  2430  001324  EF96  F009         	goto	u751
  2431  001328  EF98  F009         	goto	u750
  2432  00132C                     u751:
  2433  00132C  EF6B  F009         	goto	l1971
  2434  001330                     u750:
  2435  001330                     l297:
  2436  001330  0012               	return		;funcret
  2437  001332                     __end_of_myPrintf:
  2438                           	opt callstack 0
  2439                           
  2440 ;; *************** function _UARTWrite *****************
  2441 ;; Defined at:
  2442 ;;		line 34 in file "UART.c"
  2443 ;; Parameters:    Size  Location     Type
  2444 ;;  data            1    wreg     unsigned char 
  2445 ;; Auto vars:     Size  Location     Type
  2446 ;;  data            1    3[COMRAM] unsigned char 
  2447 ;; Return value:  Size  Location     Type
  2448 ;;                  1    wreg      void 
  2449 ;; Registers used:
  2450 ;;		wreg
  2451 ;; Tracked objects:
  2452 ;;		On entry : 0/0
  2453 ;;		On exit  : 0/0
  2454 ;;		Unchanged: 0/0
  2455 ;; Data sizes:     COMRAM   BANK0   BANK1   BANK2   BANK3   BANK4   BANK5   BANK6   BANK7
  2456 ;;      Params:         0       0       0       0       0       0       0       0       0
  2457 ;;      Locals:         1       0       0       0       0       0       0       0       0
  2458 ;;      Temps:          0       0       0       0       0       0       0       0       0
  2459 ;;      Totals:         1       0       0       0       0       0       0       0       0
  2460 ;;Total ram usage:        1 bytes
  2461 ;; Hardware stack levels used:    1
  2462 ;; Hardware stack levels required when called:    4
  2463 ;; This function calls:
  2464 ;;		Nothing
  2465 ;; This function is called by:
  2466 ;;		_start
  2467 ;;		_cmd
  2468 ;;		_Par_Validated
  2469 ;;		_Ins_Validated
  2470 ;;		_Coord_Validated
  2471 ;;		_end
  2472 ;;		_PrintMyActulPosition
  2473 ;;		_myPrintf
  2474 ;; This function uses a non-reentrant model
  2475 ;;
  2476                           
  2477                           	psect	text15
  2478  0016A2                     __ptext15:
  2479                           	opt callstack 0
  2480  0016A2                     _UARTWrite:
  2481                           	opt callstack 23
  2482                           
  2483                           ;incstack = 0
  2484                           ;UARTWrite@data stored from wreg
  2485  0016A2  6E04               	movwf	UARTWrite@data^0,c
  2486  0016A4                     l126:
  2487  0016A4  A89E               	btfss	158,4,c	;volatile
  2488  0016A6  EF57  F00B         	goto	u731
  2489  0016AA  EF59  F00B         	goto	u730
  2490  0016AE                     u731:
  2491  0016AE  EF52  F00B         	goto	l126
  2492  0016B2                     u730:
  2493  0016B2                     
  2494                           ;UART.c: 36:     TXREG= data;
  2495  0016B2  C004  FFAD         	movff	UARTWrite@data,4013	;volatile
  2496  0016B6  0012               	return		;funcret
  2497  0016B8                     __end_of_UARTWrite:
  2498                           	opt callstack 0
  2499                           
  2500 ;; *************** function _PWM *****************
  2501 ;; Defined at:
  2502 ;;		line 23 in file "PWM.c"
  2503 ;; Parameters:    Size  Location     Type
  2504 ;;		None
  2505 ;; Auto vars:     Size  Location     Type
  2506 ;;		None
  2507 ;; Return value:  Size  Location     Type
  2508 ;;                  1    wreg      void 
  2509 ;; Registers used:
  2510 ;;		wreg, status,2, status,0, prodl, prodh, cstack
  2511 ;; Tracked objects:
  2512 ;;		On entry : 0/0
  2513 ;;		On exit  : 0/0
  2514 ;;		Unchanged: 0/0
  2515 ;; Data sizes:     COMRAM   BANK0   BANK1   BANK2   BANK3   BANK4   BANK5   BANK6   BANK7
  2516 ;;      Params:         0       0       0       0       0       0       0       0       0
  2517 ;;      Locals:         0       0       0       0       0       0       0       0       0
  2518 ;;      Temps:          0       0       0       0       0       0       0       0       0
  2519 ;;      Totals:         0       0       0       0       0       0       0       0       0
  2520 ;;Total ram usage:        0 bytes
  2521 ;; Hardware stack levels used:    1
  2522 ;; Hardware stack levels required when called:    6
  2523 ;; This function calls:
  2524 ;;		_ContarPulsos
  2525 ;;		___wmul
  2526 ;; This function is called by:
  2527 ;;		_Movement
  2528 ;; This function uses a non-reentrant model
  2529 ;;
  2530                           
  2531                           	psect	text16
  2532  000A88                     __ptext16:
  2533                           	opt callstack 0
  2534  000A88                     _PWM:
  2535                           	opt callstack 23
  2536  000A88                     
  2537                           ;PWM.c: 25:     FlagDirectionX= 1;
  2538  000A88  0E00               	movlw	0
  2539  000A8A  6E27               	movwf	(_FlagDirectionX+1)^0,c
  2540  000A8C  0E01               	movlw	1
  2541  000A8E  6E26               	movwf	_FlagDirectionX^0,c
  2542                           
  2543                           ;PWM.c: 26:     FlagDirectionY= 1;
  2544  000A90  0E00               	movlw	0
  2545  000A92  6E25               	movwf	(_FlagDirectionY+1)^0,c
  2546  000A94  0E01               	movlw	1
  2547  000A96  6E24               	movwf	_FlagDirectionY^0,c
  2548  000A98                     
  2549                           ;PWM.c: 29:     if(CoordAntX==0)
  2550  000A98  5041               	movf	_CoordAntX^0,w,c
  2551  000A9A  1042               	iorwf	(_CoordAntX+1)^0,w,c
  2552  000A9C  A4D8               	btfss	status,2,c
  2553  000A9E  EF53  F005         	goto	u991
  2554  000AA2  EF55  F005         	goto	u990
  2555  000AA6                     u991:
  2556  000AA6  EF5B  F005         	goto	l2237
  2557  000AAA                     u990:
  2558  000AAA                     
  2559                           ;PWM.c: 30:     {;PWM.c: 31:         CoordRelatX=cord_x;
  2560  000AAA  C03A  F036         	movff	_cord_x,_CoordRelatX
  2561  000AAE  C03B  F037         	movff	_cord_x+1,_CoordRelatX+1
  2562                           
  2563                           ;PWM.c: 32:     }else{
  2564  000AB2  EF61  F005         	goto	l347
  2565  000AB6                     l2237:
  2566                           
  2567                           ;PWM.c: 33:         CoordRelatX=cord_x-CoordAntX;
  2568  000AB6  5041               	movf	_CoordAntX^0,w,c
  2569  000AB8  5C3A               	subwf	_cord_x^0,w,c
  2570  000ABA  6E36               	movwf	_CoordRelatX^0,c
  2571  000ABC  5042               	movf	(_CoordAntX+1)^0,w,c
  2572  000ABE  583B               	subwfb	(_cord_x+1)^0,w,c
  2573  000AC0  6E37               	movwf	(_CoordRelatX+1)^0,c
  2574  000AC2                     l347:
  2575                           
  2576                           ;PWM.c: 37:     if (CoordRelatX<0)
  2577  000AC2  BE37               	btfsc	(_CoordRelatX+1)^0,7,c
  2578  000AC4  EF68  F005         	goto	u1000
  2579  000AC8  EF66  F005         	goto	u1001
  2580  000ACC                     u1001:
  2581  000ACC  EF74  F005         	goto	l348
  2582  000AD0                     u1000:
  2583  000AD0                     
  2584                           ;PWM.c: 38:     {;PWM.c: 39:         PORTDbits.RD0= 1;
  2585  000AD0  8083               	bsf	131,0,c	;volatile
  2586                           
  2587                           ;PWM.c: 40:         PORTDbits.RD1= 1;
  2588  000AD2  8283               	bsf	131,1,c	;volatile
  2589  000AD4                     
  2590                           ;PWM.c: 41:         CoordRelatX=CoordRelatX*(-1);
  2591  000AD4  6C36               	negf	_CoordRelatX^0,c
  2592  000AD6  1E37               	comf	(_CoordRelatX+1)^0,f,c
  2593  000AD8  B0D8               	btfsc	status,0,c
  2594  000ADA  2A37               	incf	(_CoordRelatX+1)^0,f,c
  2595  000ADC                     
  2596                           ;PWM.c: 42:         FlagDirectionX= 0;
  2597  000ADC  0E00               	movlw	0
  2598  000ADE  6E27               	movwf	(_FlagDirectionX+1)^0,c
  2599  000AE0  0E00               	movlw	0
  2600  000AE2  6E26               	movwf	_FlagDirectionX^0,c
  2601                           
  2602                           ;PWM.c: 43:     }
  2603  000AE4  EF7A  F005         	goto	l2247
  2604  000AE8                     l348:
  2605                           
  2606                           ;PWM.c: 45:             PORTDbits.RD0= 0;
  2607  000AE8  9083               	bcf	131,0,c	;volatile
  2608                           
  2609                           ;PWM.c: 46:             PORTDbits.RD1= 0;
  2610  000AEA  9283               	bcf	131,1,c	;volatile
  2611  000AEC                     
  2612                           ;PWM.c: 47:             FlagDirectionX= 1;
  2613  000AEC  0E00               	movlw	0
  2614  000AEE  6E27               	movwf	(_FlagDirectionX+1)^0,c
  2615  000AF0  0E01               	movlw	1
  2616  000AF2  6E26               	movwf	_FlagDirectionX^0,c
  2617  000AF4                     l2247:
  2618                           
  2619                           ;PWM.c: 50:     StepsOnX=CoordRelatX*5;
  2620  000AF4  C036  F004         	movff	_CoordRelatX,___wmul@multiplier
  2621  000AF8  C037  F005         	movff	_CoordRelatX+1,___wmul@multiplier+1
  2622  000AFC  0E00               	movlw	0
  2623  000AFE  6E07               	movwf	(___wmul@multiplicand+1)^0,c
  2624  000B00  0E05               	movlw	5
  2625  000B02  6E06               	movwf	___wmul@multiplicand^0,c
  2626  000B04  ECEA  F00A         	call	___wmul	;wreg free
  2627  000B08  C004  F02A         	movff	?___wmul,_StepsOnX
  2628  000B0C  C005  F02B         	movff	?___wmul+1,_StepsOnX+1
  2629  000B10                     
  2630                           ;PWM.c: 51:     ContarPulsos(StepsOnX);
  2631  000B10  C02A  F004         	movff	_StepsOnX,ContarPulsos@pasos
  2632  000B14  C02B  F005         	movff	_StepsOnX+1,ContarPulsos@pasos+1
  2633  000B18  ECC8  F009         	call	_ContarPulsos	;wreg free
  2634  000B1C                     
  2635                           ;PWM.c: 54:     if(FlagDirectionX==0)
  2636  000B1C  5026               	movf	_FlagDirectionX^0,w,c
  2637  000B1E  1027               	iorwf	(_FlagDirectionX+1)^0,w,c
  2638  000B20  A4D8               	btfss	status,2,c
  2639  000B22  EF95  F005         	goto	u1011
  2640  000B26  EF97  F005         	goto	u1010
  2641  000B2A                     u1011:
  2642  000B2A  EF9F  F005         	goto	l2255
  2643  000B2E                     u1010:
  2644  000B2E                     
  2645                           ;PWM.c: 55:     {;PWM.c: 56:         CoordAntX= CoordAntX-CoordRelatX;
  2646  000B2E  5036               	movf	_CoordRelatX^0,w,c
  2647  000B30  5C41               	subwf	_CoordAntX^0,w,c
  2648  000B32  6E41               	movwf	_CoordAntX^0,c
  2649  000B34  5037               	movf	(_CoordRelatX+1)^0,w,c
  2650  000B36  5842               	subwfb	(_CoordAntX+1)^0,w,c
  2651  000B38  6E42               	movwf	(_CoordAntX+1)^0,c
  2652                           
  2653                           ;PWM.c: 57:     }
  2654  000B3A  EFAE  F005         	goto	l351
  2655  000B3E                     l2255:
  2656                           
  2657                           ;PWM.c: 59:         if(FlagDirectionX== 1)
  2658  000B3E  0426               	decf	_FlagDirectionX^0,w,c
  2659  000B40  1027               	iorwf	(_FlagDirectionX+1)^0,w,c
  2660  000B42  A4D8               	btfss	status,2,c
  2661  000B44  EFA6  F005         	goto	u1021
  2662  000B48  EFA8  F005         	goto	u1020
  2663  000B4C                     u1021:
  2664  000B4C  EFAE  F005         	goto	l351
  2665  000B50                     u1020:
  2666  000B50                     
  2667                           ;PWM.c: 60:         {;PWM.c: 61:             CoordAntX=CoordAntX+CoordRelatX;
  2668  000B50  5041               	movf	_CoordAntX^0,w,c
  2669  000B52  2436               	addwf	_CoordRelatX^0,w,c
  2670  000B54  6E41               	movwf	_CoordAntX^0,c
  2671  000B56  5042               	movf	(_CoordAntX+1)^0,w,c
  2672  000B58  2037               	addwfc	(_CoordRelatX+1)^0,w,c
  2673  000B5A  6E42               	movwf	(_CoordAntX+1)^0,c
  2674  000B5C                     l351:
  2675                           
  2676                           ;PWM.c: 67:     if(CoordAntY==0)
  2677  000B5C  503F               	movf	_CoordAntY^0,w,c
  2678  000B5E  1040               	iorwf	(_CoordAntY+1)^0,w,c
  2679  000B60  A4D8               	btfss	status,2,c
  2680  000B62  EFB5  F005         	goto	u1031
  2681  000B66  EFB7  F005         	goto	u1030
  2682  000B6A                     u1031:
  2683  000B6A  EFBD  F005         	goto	l2261
  2684  000B6E                     u1030:
  2685  000B6E                     
  2686                           ;PWM.c: 68:     {;PWM.c: 69:         CoordRelatY=cord_y;
  2687  000B6E  C038  F034         	movff	_cord_y,_CoordRelatY
  2688  000B72  C039  F035         	movff	_cord_y+1,_CoordRelatY+1
  2689                           
  2690                           ;PWM.c: 70:     }
  2691  000B76  EFC3  F005         	goto	l354
  2692  000B7A                     l2261:
  2693                           
  2694                           ;PWM.c: 72:             CoordRelatY=cord_y-CoordAntY;
  2695  000B7A  503F               	movf	_CoordAntY^0,w,c
  2696  000B7C  5C38               	subwf	_cord_y^0,w,c
  2697  000B7E  6E34               	movwf	_CoordRelatY^0,c
  2698  000B80  5040               	movf	(_CoordAntY+1)^0,w,c
  2699  000B82  5839               	subwfb	(_cord_y+1)^0,w,c
  2700  000B84  6E35               	movwf	(_CoordRelatY+1)^0,c
  2701  000B86                     l354:
  2702                           
  2703                           ;PWM.c: 74:     if(CoordRelatY<0)
  2704  000B86  BE35               	btfsc	(_CoordRelatY+1)^0,7,c
  2705  000B88  EFCA  F005         	goto	u1040
  2706  000B8C  EFC8  F005         	goto	u1041
  2707  000B90                     u1041:
  2708  000B90  EFD6  F005         	goto	l355
  2709  000B94                     u1040:
  2710  000B94                     
  2711                           ;PWM.c: 75:     {;PWM.c: 76:         PORTDbits.RD0= 0;
  2712  000B94  9083               	bcf	131,0,c	;volatile
  2713                           
  2714                           ;PWM.c: 77:         PORTDbits.RD1= 1;
  2715  000B96  8283               	bsf	131,1,c	;volatile
  2716  000B98                     
  2717                           ;PWM.c: 78:         CoordRelatY=CoordRelatY*(-1);
  2718  000B98  6C34               	negf	_CoordRelatY^0,c
  2719  000B9A  1E35               	comf	(_CoordRelatY+1)^0,f,c
  2720  000B9C  B0D8               	btfsc	status,0,c
  2721  000B9E  2A35               	incf	(_CoordRelatY+1)^0,f,c
  2722  000BA0                     
  2723                           ;PWM.c: 79:         FlagDirectionY= 0;
  2724  000BA0  0E00               	movlw	0
  2725  000BA2  6E25               	movwf	(_FlagDirectionY+1)^0,c
  2726  000BA4  0E00               	movlw	0
  2727  000BA6  6E24               	movwf	_FlagDirectionY^0,c
  2728                           
  2729                           ;PWM.c: 80:     }
  2730  000BA8  EFDC  F005         	goto	l2271
  2731  000BAC                     l355:
  2732                           
  2733                           ;PWM.c: 82:         PORTDbits.RD0= 1;
  2734  000BAC  8083               	bsf	131,0,c	;volatile
  2735                           
  2736                           ;PWM.c: 83:         PORTDbits.RD1= 0;
  2737  000BAE  9283               	bcf	131,1,c	;volatile
  2738  000BB0                     
  2739                           ;PWM.c: 84:         FlagDirectionY= 1;
  2740  000BB0  0E00               	movlw	0
  2741  000BB2  6E25               	movwf	(_FlagDirectionY+1)^0,c
  2742  000BB4  0E01               	movlw	1
  2743  000BB6  6E24               	movwf	_FlagDirectionY^0,c
  2744  000BB8                     l2271:
  2745                           
  2746                           ;PWM.c: 87:     StepsOnY=CoordRelatY*5;
  2747  000BB8  C034  F004         	movff	_CoordRelatY,___wmul@multiplier
  2748  000BBC  C035  F005         	movff	_CoordRelatY+1,___wmul@multiplier+1
  2749  000BC0  0E00               	movlw	0
  2750  000BC2  6E07               	movwf	(___wmul@multiplicand+1)^0,c
  2751  000BC4  0E05               	movlw	5
  2752  000BC6  6E06               	movwf	___wmul@multiplicand^0,c
  2753  000BC8  ECEA  F00A         	call	___wmul	;wreg free
  2754  000BCC  C004  F028         	movff	?___wmul,_StepsOnY
  2755  000BD0  C005  F029         	movff	?___wmul+1,_StepsOnY+1
  2756  000BD4                     
  2757                           ;PWM.c: 88:     ContarPulsos(StepsOnY);
  2758  000BD4  C028  F004         	movff	_StepsOnY,ContarPulsos@pasos
  2759  000BD8  C029  F005         	movff	_StepsOnY+1,ContarPulsos@pasos+1
  2760  000BDC  ECC8  F009         	call	_ContarPulsos	;wreg free
  2761  000BE0                     
  2762                           ;PWM.c: 91:     if(FlagDirectionY== 0)
  2763  000BE0  5024               	movf	_FlagDirectionY^0,w,c
  2764  000BE2  1025               	iorwf	(_FlagDirectionY+1)^0,w,c
  2765  000BE4  A4D8               	btfss	status,2,c
  2766  000BE6  EFF7  F005         	goto	u1051
  2767  000BEA  EFF9  F005         	goto	u1050
  2768  000BEE                     u1051:
  2769  000BEE  EF01  F006         	goto	l2279
  2770  000BF2                     u1050:
  2771  000BF2                     
  2772                           ;PWM.c: 92:     {;PWM.c: 93:         CoordAntY= CoordAntY-CoordRelatY;
  2773  000BF2  5034               	movf	_CoordRelatY^0,w,c
  2774  000BF4  5C3F               	subwf	_CoordAntY^0,w,c
  2775  000BF6  6E3F               	movwf	_CoordAntY^0,c
  2776  000BF8  5035               	movf	(_CoordRelatY+1)^0,w,c
  2777  000BFA  5840               	subwfb	(_CoordAntY+1)^0,w,c
  2778  000BFC  6E40               	movwf	(_CoordAntY+1)^0,c
  2779                           
  2780                           ;PWM.c: 94:     }
  2781  000BFE  EF10  F006         	goto	l360
  2782  000C02                     l2279:
  2783                           
  2784                           ;PWM.c: 96:             if(FlagDirectionY==1)
  2785  000C02  0424               	decf	_FlagDirectionY^0,w,c
  2786  000C04  1025               	iorwf	(_FlagDirectionY+1)^0,w,c
  2787  000C06  A4D8               	btfss	status,2,c
  2788  000C08  EF08  F006         	goto	u1061
  2789  000C0C  EF0A  F006         	goto	u1060
  2790  000C10                     u1061:
  2791  000C10  EF10  F006         	goto	l360
  2792  000C14                     u1060:
  2793  000C14                     
  2794                           ;PWM.c: 97:             {;PWM.c: 98:                 CoordAntY=CoordAntY+CoordRelatY;
  2795  000C14  503F               	movf	_CoordAntY^0,w,c
  2796  000C16  2434               	addwf	_CoordRelatY^0,w,c
  2797  000C18  6E3F               	movwf	_CoordAntY^0,c
  2798  000C1A  5040               	movf	(_CoordAntY+1)^0,w,c
  2799  000C1C  2035               	addwfc	(_CoordRelatY+1)^0,w,c
  2800  000C1E  6E40               	movwf	(_CoordAntY+1)^0,c
  2801  000C20                     l360:
  2802  000C20  0012               	return		;funcret
  2803  000C22                     __end_of_PWM:
  2804                           	opt callstack 0
  2805                           
  2806 ;; *************** function ___wmul *****************
  2807 ;; Defined at:
  2808 ;;		line 15 in file "C:\Program Files (x86)\Microchip\xc8\v2.10\pic\sources\c99\common\Umul16.c"
  2809 ;; Parameters:    Size  Location     Type
  2810 ;;  multiplier      2    3[COMRAM] unsigned int 
  2811 ;;  multiplicand    2    5[COMRAM] unsigned int 
  2812 ;; Auto vars:     Size  Location     Type
  2813 ;;  product         2    7[COMRAM] unsigned int 
  2814 ;; Return value:  Size  Location     Type
  2815 ;;                  2    3[COMRAM] unsigned int 
  2816 ;; Registers used:
  2817 ;;		wreg, status,2, status,0, prodl, prodh
  2818 ;; Tracked objects:
  2819 ;;		On entry : 0/0
  2820 ;;		On exit  : 0/0
  2821 ;;		Unchanged: 0/0
  2822 ;; Data sizes:     COMRAM   BANK0   BANK1   BANK2   BANK3   BANK4   BANK5   BANK6   BANK7
  2823 ;;      Params:         4       0       0       0       0       0       0       0       0
  2824 ;;      Locals:         2       0       0       0       0       0       0       0       0
  2825 ;;      Temps:          0       0       0       0       0       0       0       0       0
  2826 ;;      Totals:         6       0       0       0       0       0       0       0       0
  2827 ;;Total ram usage:        6 bytes
  2828 ;; Hardware stack levels used:    1
  2829 ;; Hardware stack levels required when called:    4
  2830 ;; This function calls:
  2831 ;;		Nothing
  2832 ;; This function is called by:
  2833 ;;		_PWM
  2834 ;; This function uses a non-reentrant model
  2835 ;;
  2836                           
  2837                           	psect	text17
  2838  0015D4                     __ptext17:
  2839                           	opt callstack 0
  2840  0015D4                     ___wmul:
  2841                           	opt callstack 24
  2842  0015D4  5004               	movf	___wmul@multiplier^0,w,c
  2843  0015D6  0206               	mulwf	___wmul@multiplicand^0,c
  2844  0015D8  CFF3 F008          	movff	prodl,___wmul@product
  2845  0015DC  CFF4 F009          	movff	prodh,___wmul@product+1
  2846  0015E0  5004               	movf	___wmul@multiplier^0,w,c
  2847  0015E2  0207               	mulwf	(___wmul@multiplicand+1)^0,c
  2848  0015E4  50F3               	movf	243,w,c
  2849  0015E6  2609               	addwf	(___wmul@product+1)^0,f,c
  2850  0015E8  5005               	movf	(___wmul@multiplier+1)^0,w,c
  2851  0015EA  0206               	mulwf	___wmul@multiplicand^0,c
  2852  0015EC  50F3               	movf	243,w,c
  2853  0015EE  2609               	addwf	(___wmul@product+1)^0,f,c
  2854  0015F0  C008  F004         	movff	___wmul@product,?___wmul
  2855  0015F4  C009  F005         	movff	___wmul@product+1,?___wmul+1
  2856  0015F8  0012               	return		;funcret
  2857  0015FA                     __end_of___wmul:
  2858                           	opt callstack 0
  2859                           
  2860 ;; *************** function _ContarPulsos *****************
  2861 ;; Defined at:
  2862 ;;		line 104 in file "PWM.c"
  2863 ;; Parameters:    Size  Location     Type
  2864 ;;  pasos           2    3[COMRAM] int 
  2865 ;; Auto vars:     Size  Location     Type
  2866 ;;		None
  2867 ;; Return value:  Size  Location     Type
  2868 ;;                  1    wreg      void 
  2869 ;; Registers used:
  2870 ;;		wreg, status,2, status,0, cstack
  2871 ;; Tracked objects:
  2872 ;;		On entry : 0/0
  2873 ;;		On exit  : 0/0
  2874 ;;		Unchanged: 0/0
  2875 ;; Data sizes:     COMRAM   BANK0   BANK1   BANK2   BANK3   BANK4   BANK5   BANK6   BANK7
  2876 ;;      Params:         2       0       0       0       0       0       0       0       0
  2877 ;;      Locals:         0       0       0       0       0       0       0       0       0
  2878 ;;      Temps:          0       0       0       0       0       0       0       0       0
  2879 ;;      Totals:         2       0       0       0       0       0       0       0       0
  2880 ;;Total ram usage:        2 bytes
  2881 ;; Hardware stack levels used:    1
  2882 ;; Hardware stack levels required when called:    5
  2883 ;; This function calls:
  2884 ;;		_OneShot
  2885 ;;		_ResetOneShot
  2886 ;; This function is called by:
  2887 ;;		_PWM
  2888 ;; This function uses a non-reentrant model
  2889 ;;
  2890                           
  2891                           	psect	text18
  2892  001390                     __ptext18:
  2893                           	opt callstack 0
  2894  001390                     _ContarPulsos:
  2895                           	opt callstack 23
  2896  001390                     
  2897                           ;PWM.c: 104: void ContarPulsos(int pasos);PWM.c: 105: {;PWM.c: 106:     ActualSteps=0;
  2898  001390  0E00               	movlw	0
  2899  001392  6E2F               	movwf	(_ActualSteps+1)^0,c
  2900  001394  0E00               	movlw	0
  2901  001396  6E2E               	movwf	_ActualSteps^0,c
  2902                           
  2903                           ;PWM.c: 107:     ons=0;
  2904  001398  0E00               	movlw	0
  2905  00139A  6E2D               	movwf	(_ons+1)^0,c
  2906  00139C  0E00               	movlw	0
  2907  00139E  6E2C               	movwf	_ons^0,c
  2908  0013A0                     
  2909                           ;PWM.c: 108:     PORTDbits.RD2= 0;
  2910  0013A0  9483               	bcf	131,2,c	;volatile
  2911  0013A2                     
  2912                           ;PWM.c: 109:     PORTDbits.RD3= 0;
  2913  0013A2  9683               	bcf	131,3,c	;volatile
  2914                           
  2915                           ;PWM.c: 110:     while(ActualSteps< pasos)
  2916  0013A4  EFE8  F009         	goto	l2059
  2917  0013A8                     l364:
  2918                           
  2919                           ;PWM.c: 111:     {;PWM.c: 112:         if (PORTCbits.CCP1==1)
  2920  0013A8  A482               	btfss	130,2,c	;volatile
  2921  0013AA  EFD9  F009         	goto	u831
  2922  0013AE  EFDB  F009         	goto	u830
  2923  0013B2                     u831:
  2924  0013B2  EFDD  F009         	goto	l2055
  2925  0013B6                     u830:
  2926  0013B6                     
  2927                           ;PWM.c: 113:         {;PWM.c: 114:             OneShot();
  2928  0013B6  EC8E  F00A         	call	_OneShot	;wreg free
  2929  0013BA                     l2055:
  2930                           
  2931                           ;PWM.c: 116:         if(ons==1)
  2932  0013BA  042C               	decf	_ons^0,w,c
  2933  0013BC  102D               	iorwf	(_ons+1)^0,w,c
  2934  0013BE  A4D8               	btfss	status,2,c
  2935  0013C0  EFE4  F009         	goto	u841
  2936  0013C4  EFE6  F009         	goto	u840
  2937  0013C8                     u841:
  2938  0013C8  EFE8  F009         	goto	l2059
  2939  0013CC                     u840:
  2940  0013CC                     
  2941                           ;PWM.c: 117:         {;PWM.c: 118:             ResetOneShot();
  2942  0013CC  ECC0  F00A         	call	_ResetOneShot	;wreg free
  2943  0013D0                     l2059:
  2944                           
  2945                           ;PWM.c: 110:     while(ActualSteps< pasos)
  2946  0013D0  5004               	movf	ContarPulsos@pasos^0,w,c
  2947  0013D2  5C2E               	subwf	_ActualSteps^0,w,c
  2948  0013D4  5005               	movf	(ContarPulsos@pasos+1)^0,w,c
  2949  0013D6  582F               	subwfb	(_ActualSteps+1)^0,w,c
  2950  0013D8  A0D8               	btfss	status,0,c
  2951  0013DA  EFF1  F009         	goto	u851
  2952  0013DE  EFF3  F009         	goto	u850
  2953  0013E2                     u851:
  2954  0013E2  EFD4  F009         	goto	l364
  2955  0013E6                     u850:
  2956  0013E6                     
  2957                           ;PWM.c: 122:     PORTDbits.RD2= 1;
  2958  0013E6  8483               	bsf	131,2,c	;volatile
  2959                           
  2960                           ;PWM.c: 123:     PORTDbits.RD3= 1;
  2961  0013E8  8683               	bsf	131,3,c	;volatile
  2962  0013EA  0012               	return		;funcret
  2963  0013EC                     __end_of_ContarPulsos:
  2964                           	opt callstack 0
  2965                           
  2966 ;; *************** function _ResetOneShot *****************
  2967 ;; Defined at:
  2968 ;;		line 142 in file "PWM.c"
  2969 ;; Parameters:    Size  Location     Type
  2970 ;;		None
  2971 ;; Auto vars:     Size  Location     Type
  2972 ;;		None
  2973 ;; Return value:  Size  Location     Type
  2974 ;;                  1    wreg      void 
  2975 ;; Registers used:
  2976 ;;		wreg, status,2
  2977 ;; Tracked objects:
  2978 ;;		On entry : 0/0
  2979 ;;		On exit  : 0/0
  2980 ;;		Unchanged: 0/0
  2981 ;; Data sizes:     COMRAM   BANK0   BANK1   BANK2   BANK3   BANK4   BANK5   BANK6   BANK7
  2982 ;;      Params:         0       0       0       0       0       0       0       0       0
  2983 ;;      Locals:         0       0       0       0       0       0       0       0       0
  2984 ;;      Temps:          0       0       0       0       0       0       0       0       0
  2985 ;;      Totals:         0       0       0       0       0       0       0       0       0
  2986 ;;Total ram usage:        0 bytes
  2987 ;; Hardware stack levels used:    1
  2988 ;; Hardware stack levels required when called:    4
  2989 ;; This function calls:
  2990 ;;		Nothing
  2991 ;; This function is called by:
  2992 ;;		_ContarPulsos
  2993 ;; This function uses a non-reentrant model
  2994 ;;
  2995                           
  2996                           	psect	text19
  2997  001580                     __ptext19:
  2998                           	opt callstack 0
  2999  001580                     _ResetOneShot:
  3000                           	opt callstack 23
  3001  001580                     
  3002                           ;PWM.c: 144:     if(PORTCbits.CCP1==1)
  3003  001580  A482               	btfss	130,2,c	;volatile
  3004  001582  EFC5  F00A         	goto	u51
  3005  001586  EFC7  F00A         	goto	u50
  3006  00158A                     u51:
  3007  00158A  EFC9  F00A         	goto	l376
  3008  00158E                     u50:
  3009  00158E  EFD4  F00A         	goto	l377
  3010  001592                     l376:
  3011                           
  3012                           ;PWM.c: 148:     if(PORTCbits.CCP1==0)
  3013  001592  B482               	btfsc	130,2,c	;volatile
  3014  001594  EFCE  F00A         	goto	u61
  3015  001598  EFD0  F00A         	goto	u60
  3016  00159C                     u61:
  3017  00159C  EFD4  F00A         	goto	l377
  3018  0015A0                     u60:
  3019  0015A0                     
  3020                           ;PWM.c: 149:     {;PWM.c: 150:         ons=0;
  3021  0015A0  0E00               	movlw	0
  3022  0015A2  6E2D               	movwf	(_ons+1)^0,c
  3023  0015A4  0E00               	movlw	0
  3024  0015A6  6E2C               	movwf	_ons^0,c
  3025  0015A8                     l377:
  3026  0015A8  0012               	return		;funcret
  3027  0015AA                     __end_of_ResetOneShot:
  3028                           	opt callstack 0
  3029                           
  3030 ;; *************** function _OneShot *****************
  3031 ;; Defined at:
  3032 ;;		line 128 in file "PWM.c"
  3033 ;; Parameters:    Size  Location     Type
  3034 ;;		None
  3035 ;; Auto vars:     Size  Location     Type
  3036 ;;		None
  3037 ;; Return value:  Size  Location     Type
  3038 ;;                  1    wreg      void 
  3039 ;; Registers used:
  3040 ;;		wreg, status,2, status,0
  3041 ;; Tracked objects:
  3042 ;;		On entry : 0/0
  3043 ;;		On exit  : 0/0
  3044 ;;		Unchanged: 0/0
  3045 ;; Data sizes:     COMRAM   BANK0   BANK1   BANK2   BANK3   BANK4   BANK5   BANK6   BANK7
  3046 ;;      Params:         0       0       0       0       0       0       0       0       0
  3047 ;;      Locals:         0       0       0       0       0       0       0       0       0
  3048 ;;      Temps:          0       0       0       0       0       0       0       0       0
  3049 ;;      Totals:         0       0       0       0       0       0       0       0       0
  3050 ;;Total ram usage:        0 bytes
  3051 ;; Hardware stack levels used:    1
  3052 ;; Hardware stack levels required when called:    4
  3053 ;; This function calls:
  3054 ;;		Nothing
  3055 ;; This function is called by:
  3056 ;;		_ContarPulsos
  3057 ;; This function uses a non-reentrant model
  3058 ;;
  3059                           
  3060                           	psect	text20
  3061  00151C                     __ptext20:
  3062                           	opt callstack 0
  3063  00151C                     _OneShot:
  3064                           	opt callstack 23
  3065  00151C                     
  3066                           ;PWM.c: 130:     if(ons==1)
  3067  00151C  042C               	decf	_ons^0,w,c
  3068  00151E  102D               	iorwf	(_ons+1)^0,w,c
  3069  001520  A4D8               	btfss	status,2,c
  3070  001522  EF95  F00A         	goto	u31
  3071  001526  EF97  F00A         	goto	u30
  3072  00152A                     u31:
  3073  00152A  EF99  F00A         	goto	l371
  3074  00152E                     u30:
  3075  00152E  EFA6  F00A         	goto	l372
  3076  001532                     l371:
  3077                           
  3078                           ;PWM.c: 134:     if(PORTCbits.CCP1==1)
  3079  001532  A482               	btfss	130,2,c	;volatile
  3080  001534  EF9E  F00A         	goto	u41
  3081  001538  EFA0  F00A         	goto	u40
  3082  00153C                     u41:
  3083  00153C  EFA6  F00A         	goto	l372
  3084  001540                     u40:
  3085  001540                     
  3086                           ;PWM.c: 135:     {;PWM.c: 136:         ActualSteps++;
  3087  001540  4A2E               	infsnz	_ActualSteps^0,f,c
  3088  001542  2A2F               	incf	(_ActualSteps+1)^0,f,c
  3089  001544                     
  3090                           ;PWM.c: 137:         ons=1;
  3091  001544  0E00               	movlw	0
  3092  001546  6E2D               	movwf	(_ons+1)^0,c
  3093  001548  0E01               	movlw	1
  3094  00154A  6E2C               	movwf	_ons^0,c
  3095  00154C                     l372:
  3096  00154C  0012               	return		;funcret
  3097  00154E                     __end_of_OneShot:
  3098                           	opt callstack 0
  3099                           
  3100 ;; *************** function _Configuracion *****************
  3101 ;; Defined at:
  3102 ;;		line 15 in file "CONFIGUR.c"
  3103 ;; Parameters:    Size  Location     Type
  3104 ;;		None
  3105 ;; Auto vars:     Size  Location     Type
  3106 ;;		None
  3107 ;; Return value:  Size  Location     Type
  3108 ;;                  1    wreg      void 
  3109 ;; Registers used:
  3110 ;;		wreg, status,2, status,0, cstack
  3111 ;; Tracked objects:
  3112 ;;		On entry : 0/0
  3113 ;;		On exit  : 0/0
  3114 ;;		Unchanged: 0/0
  3115 ;; Data sizes:     COMRAM   BANK0   BANK1   BANK2   BANK3   BANK4   BANK5   BANK6   BANK7
  3116 ;;      Params:         0       0       0       0       0       0       0       0       0
  3117 ;;      Locals:         0       0       0       0       0       0       0       0       0
  3118 ;;      Temps:          0       0       0       0       0       0       0       0       0
  3119 ;;      Totals:         0       0       0       0       0       0       0       0       0
  3120 ;;Total ram usage:        0 bytes
  3121 ;; Hardware stack levels used:    1
  3122 ;; Hardware stack levels required when called:    6
  3123 ;; This function calls:
  3124 ;;		_UARTConfi
  3125 ;; This function is called by:
  3126 ;;		_main
  3127 ;; This function uses a non-reentrant model
  3128 ;;
  3129                           
  3130                           	psect	text21
  3131  001332                     __ptext21:
  3132                           	opt callstack 0
  3133  001332                     _Configuracion:
  3134                           	opt callstack 24
  3135  001332                     
  3136                           ;CONFIGUR.c: 19:    OSCCON=0x72;
  3137  001332  0E72               	movlw	114
  3138  001334  6ED3               	movwf	211,c	;volatile
  3139  001336                     
  3140                           ;CONFIGUR.c: 23:    CMCON = 0xFF;
  3141  001336  68B4               	setf	180,c	;volatile
  3142  001338                     
  3143                           ;CONFIGUR.c: 24:    CVRCONbits.CVREN = 0;
  3144  001338  9EB5               	bcf	181,7,c	;volatile
  3145                           
  3146                           ;CONFIGUR.c: 25:    ADCON1 = 0x0F;
  3147  00133A  0E0F               	movlw	15
  3148  00133C  6EC1               	movwf	193,c	;volatile
  3149                           
  3150                           ;CONFIGUR.c: 29:    PORTD = 0x00;
  3151  00133E  0E00               	movlw	0
  3152  001340  6E83               	movwf	131,c	;volatile
  3153                           
  3154                           ;CONFIGUR.c: 30:    LATD = 0x00;
  3155  001342  0E00               	movlw	0
  3156  001344  6E8C               	movwf	140,c	;volatile
  3157                           
  3158                           ;CONFIGUR.c: 31:    TRISD = 0x00;
  3159  001346  0E00               	movlw	0
  3160  001348  6E95               	movwf	149,c	;volatile
  3161                           
  3162                           ;CONFIGUR.c: 33:    PORTC = 0x00;
  3163  00134A  0E00               	movlw	0
  3164  00134C  6E82               	movwf	130,c	;volatile
  3165                           
  3166                           ;CONFIGUR.c: 34:    LATC= 0x00;
  3167  00134E  0E00               	movlw	0
  3168  001350  6E8B               	movwf	139,c	;volatile
  3169                           
  3170                           ;CONFIGUR.c: 35:    TRISC= 0x00;
  3171  001352  0E00               	movlw	0
  3172  001354  6E94               	movwf	148,c	;volatile
  3173                           
  3174                           ;CONFIGUR.c: 37:    PORTB = 0x00;
  3175  001356  0E00               	movlw	0
  3176  001358  6E81               	movwf	129,c	;volatile
  3177                           
  3178                           ;CONFIGUR.c: 38:    LATB= 0x00;
  3179  00135A  0E00               	movlw	0
  3180  00135C  6E8A               	movwf	138,c	;volatile
  3181  00135E                     
  3182                           ;CONFIGUR.c: 39:    TRISB= 0xFF;
  3183  00135E  6893               	setf	147,c	;volatile
  3184  001360                     
  3185                           ;CONFIGUR.c: 43:    UARTConfi(9600);
  3186  001360  0E25               	movlw	37
  3187  001362  6E13               	movwf	(UARTConfi@BAUD+1)^0,c
  3188  001364  0E80               	movlw	128
  3189  001366  6E12               	movwf	UARTConfi@BAUD^0,c
  3190  001368  EC92  F008         	call	_UARTConfi	;wreg free
  3191  00136C                     
  3192                           ;CONFIGUR.c: 44:     TRISC=0X00;
  3193  00136C  0E00               	movlw	0
  3194  00136E  6E94               	movwf	148,c	;volatile
  3195  001370                     
  3196                           ;CONFIGUR.c: 48:      PR2 = 0xF9;
  3197  001370  0EF9               	movlw	249
  3198  001372  6ECB               	movwf	203,c	;volatile
  3199  001374                     
  3200                           ;CONFIGUR.c: 51:     CCP1CON = 0x0C;
  3201  001374  0E0C               	movlw	12
  3202  001376  6EBD               	movwf	189,c	;volatile
  3203  001378                     
  3204                           ;CONFIGUR.c: 52:     CCPR1L = 0x7D;
  3205  001378  0E7D               	movlw	125
  3206  00137A  6EBE               	movwf	190,c	;volatile
  3207  00137C                     
  3208                           ;CONFIGUR.c: 55:     CCP2CON = 0x0C;
  3209  00137C  0E0C               	movlw	12
  3210  00137E  6EBA               	movwf	186,c	;volatile
  3211  001380                     
  3212                           ;CONFIGUR.c: 56:     CCPR2L = 0x7D;
  3213  001380  0E7D               	movlw	125
  3214  001382  6EBB               	movwf	187,c	;volatile
  3215  001384                     
  3216                           ;CONFIGUR.c: 59:     T2CON = 0x03;
  3217  001384  0E03               	movlw	3
  3218  001386  6ECA               	movwf	202,c	;volatile
  3219  001388                     
  3220                           ;CONFIGUR.c: 60:     TMR2 = 0;
  3221  001388  0E00               	movlw	0
  3222  00138A  6ECC               	movwf	204,c	;volatile
  3223  00138C                     
  3224                           ;CONFIGUR.c: 61:     TMR2ON = 1;
  3225  00138C  84CA               	bsf	4042,2,c	;volatile
  3226  00138E  0012               	return		;funcret
  3227  001390                     __end_of_Configuracion:
  3228                           	opt callstack 0
  3229                           
  3230 ;; *************** function _UARTConfi *****************
  3231 ;; Defined at:
  3232 ;;		line 15 in file "UART.c"
  3233 ;; Parameters:    Size  Location     Type
  3234 ;;  BAUD            2   17[COMRAM] int 
  3235 ;; Auto vars:     Size  Location     Type
  3236 ;;		None
  3237 ;; Return value:  Size  Location     Type
  3238 ;;                  1    wreg      void 
  3239 ;; Registers used:
  3240 ;;		wreg, status,2, status,0, cstack
  3241 ;; Tracked objects:
  3242 ;;		On entry : 0/0
  3243 ;;		On exit  : 0/0
  3244 ;;		Unchanged: 0/0
  3245 ;; Data sizes:     COMRAM   BANK0   BANK1   BANK2   BANK3   BANK4   BANK5   BANK6   BANK7
  3246 ;;      Params:         2       0       0       0       0       0       0       0       0
  3247 ;;      Locals:         4       0       0       0       0       0       0       0       0
  3248 ;;      Temps:          0       0       0       0       0       0       0       0       0
  3249 ;;      Totals:         6       0       0       0       0       0       0       0       0
  3250 ;;Total ram usage:        6 bytes
  3251 ;; Hardware stack levels used:    1
  3252 ;; Hardware stack levels required when called:    5
  3253 ;; This function calls:
  3254 ;;		___aldiv
  3255 ;; This function is called by:
  3256 ;;		_Configuracion
  3257 ;; This function uses a non-reentrant model
  3258 ;;
  3259                           
  3260                           	psect	text22
  3261  001124                     __ptext22:
  3262                           	opt callstack 0
  3263  001124                     _UARTConfi:
  3264                           	opt callstack 24
  3265  001124                     
  3266                           ;UART.c: 17:     TRISCbits.RC6=0;
  3267  001124  9C94               	bcf	148,6,c	;volatile
  3268                           
  3269                           ;UART.c: 18:     TRISCbits.RC7=1;
  3270  001126  8E94               	bsf	148,7,c	;volatile
  3271  001128                     
  3272                           ;UART.c: 20:     SPBRG = (unsigned char)((8000000L/BAUD)/64)-1;
  3273  001128  C012  F008         	movff	UARTConfi@BAUD,___aldiv@divisor
  3274  00112C  C013  F009         	movff	UARTConfi@BAUD+1,___aldiv@divisor+1
  3275  001130  0E00               	movlw	0
  3276  001132  BE09               	btfsc	(___aldiv@divisor+1)^0,7,c
  3277  001134  0EFF               	movlw	-1
  3278  001136  6E0A               	movwf	(___aldiv@divisor+2)^0,c
  3279  001138  6E0B               	movwf	(___aldiv@divisor+3)^0,c
  3280  00113A  0E00               	movlw	0
  3281  00113C  6E04               	movwf	___aldiv@dividend^0,c
  3282  00113E  0E12               	movlw	18
  3283  001140  6E05               	movwf	(___aldiv@dividend+1)^0,c
  3284  001142  0E7A               	movlw	122
  3285  001144  6E06               	movwf	(___aldiv@dividend+2)^0,c
  3286  001146  0E00               	movlw	0
  3287  001148  6E07               	movwf	(___aldiv@dividend+3)^0,c
  3288  00114A  ECCD  F006         	call	___aldiv	;wreg free
  3289  00114E  C004  F014         	movff	?___aldiv,_UARTConfi$2004
  3290  001152  C005  F015         	movff	?___aldiv+1,_UARTConfi$2004+1
  3291  001156  C006  F016         	movff	?___aldiv+2,_UARTConfi$2004+2
  3292  00115A  C007  F017         	movff	?___aldiv+3,_UARTConfi$2004+3
  3293                           
  3294                           ;UART.c: 20:     SPBRG = (unsigned char)((8000000L/BAUD)/64)-1;
  3295  00115E  C014  F004         	movff	_UARTConfi$2004,___aldiv@dividend
  3296  001162  C015  F005         	movff	_UARTConfi$2004+1,___aldiv@dividend+1
  3297  001166  C016  F006         	movff	_UARTConfi$2004+2,___aldiv@dividend+2
  3298  00116A  C017  F007         	movff	_UARTConfi$2004+3,___aldiv@dividend+3
  3299  00116E  0E40               	movlw	64
  3300  001170  6E08               	movwf	___aldiv@divisor^0,c
  3301  001172  0E00               	movlw	0
  3302  001174  6E09               	movwf	(___aldiv@divisor+1)^0,c
  3303  001176  0E00               	movlw	0
  3304  001178  6E0A               	movwf	(___aldiv@divisor+2)^0,c
  3305  00117A  0E00               	movlw	0
  3306  00117C  6E0B               	movwf	(___aldiv@divisor+3)^0,c
  3307  00117E  ECCD  F006         	call	___aldiv	;wreg free
  3308  001182  0404               	decf	?___aldiv^0,w,c
  3309  001184  6EAF               	movwf	175,c	;volatile
  3310  001186                     
  3311                           ;UART.c: 21:     TXSTAbits.BRGH = 0;
  3312  001186  94AC               	bcf	172,2,c	;volatile
  3313  001188                     
  3314                           ;UART.c: 22:     TXSTAbits.SYNC = 0;
  3315  001188  98AC               	bcf	172,4,c	;volatile
  3316  00118A                     
  3317                           ;UART.c: 23:     RCSTAbits.SPEN = 1;
  3318  00118A  8EAB               	bsf	171,7,c	;volatile
  3319  00118C                     
  3320                           ;UART.c: 26:     TXSTAbits.TX9 = 0;
  3321  00118C  9CAC               	bcf	172,6,c	;volatile
  3322  00118E                     
  3323                           ;UART.c: 27:     TXSTAbits.TXEN = 1;
  3324  00118E  8AAC               	bsf	172,5,c	;volatile
  3325  001190                     
  3326                           ;UART.c: 30:     RCSTAbits.RC9 = 0;
  3327  001190  9CAB               	bcf	171,6,c	;volatile
  3328  001192                     
  3329                           ;UART.c: 31:     RCSTAbits.CREN = 1;
  3330  001192  88AB               	bsf	171,4,c	;volatile
  3331  001194  0012               	return		;funcret
  3332  001196                     __end_of_UARTConfi:
  3333                           	opt callstack 0
  3334                           
  3335 ;; *************** function ___aldiv *****************
  3336 ;; Defined at:
  3337 ;;		line 7 in file "C:\Program Files (x86)\Microchip\xc8\v2.10\pic\sources\c99\common\aldiv.c"
  3338 ;; Parameters:    Size  Location     Type
  3339 ;;  dividend        4    3[COMRAM] long 
  3340 ;;  divisor         4    7[COMRAM] long 
  3341 ;; Auto vars:     Size  Location     Type
  3342 ;;  quotient        4   13[COMRAM] long 
  3343 ;;  sign            1   12[COMRAM] unsigned char 
  3344 ;;  counter         1   11[COMRAM] unsigned char 
  3345 ;; Return value:  Size  Location     Type
  3346 ;;                  4    3[COMRAM] long 
  3347 ;; Registers used:
  3348 ;;		wreg, status,2, status,0
  3349 ;; Tracked objects:
  3350 ;;		On entry : 0/0
  3351 ;;		On exit  : 0/0
  3352 ;;		Unchanged: 0/0
  3353 ;; Data sizes:     COMRAM   BANK0   BANK1   BANK2   BANK3   BANK4   BANK5   BANK6   BANK7
  3354 ;;      Params:         8       0       0       0       0       0       0       0       0
  3355 ;;      Locals:         6       0       0       0       0       0       0       0       0
  3356 ;;      Temps:          0       0       0       0       0       0       0       0       0
  3357 ;;      Totals:        14       0       0       0       0       0       0       0       0
  3358 ;;Total ram usage:       14 bytes
  3359 ;; Hardware stack levels used:    1
  3360 ;; Hardware stack levels required when called:    4
  3361 ;; This function calls:
  3362 ;;		Nothing
  3363 ;; This function is called by:
  3364 ;;		_UARTConfi
  3365 ;; This function uses a non-reentrant model
  3366 ;;
  3367                           
  3368                           	psect	text23
  3369  000D9A                     __ptext23:
  3370                           	opt callstack 0
  3371  000D9A                     ___aldiv:
  3372                           	opt callstack 24
  3373  000D9A  0E00               	movlw	0
  3374  000D9C  6E0D               	movwf	___aldiv@sign^0,c
  3375  000D9E  BE0B               	btfsc	(___aldiv@divisor+3)^0,7,c
  3376  000DA0  EFD6  F006         	goto	u860
  3377  000DA4  EFD4  F006         	goto	u861
  3378  000DA8                     u861:
  3379  000DA8  EFE0  F006         	goto	l2075
  3380  000DAC                     u860:
  3381  000DAC  1E0B               	comf	(___aldiv@divisor+3)^0,f,c
  3382  000DAE  1E0A               	comf	(___aldiv@divisor+2)^0,f,c
  3383  000DB0  1E09               	comf	(___aldiv@divisor+1)^0,f,c
  3384  000DB2  6C08               	negf	___aldiv@divisor^0,c
  3385  000DB4  0E00               	movlw	0
  3386  000DB6  2209               	addwfc	(___aldiv@divisor+1)^0,f,c
  3387  000DB8  220A               	addwfc	(___aldiv@divisor+2)^0,f,c
  3388  000DBA  220B               	addwfc	(___aldiv@divisor+3)^0,f,c
  3389  000DBC  0E01               	movlw	1
  3390  000DBE  6E0D               	movwf	___aldiv@sign^0,c
  3391  000DC0                     l2075:
  3392  000DC0  BE07               	btfsc	(___aldiv@dividend+3)^0,7,c
  3393  000DC2  EFE7  F006         	goto	u870
  3394  000DC6  EFE5  F006         	goto	u871
  3395  000DCA                     u871:
  3396  000DCA  EFF1  F006         	goto	l2081
  3397  000DCE                     u870:
  3398  000DCE  1E07               	comf	(___aldiv@dividend+3)^0,f,c
  3399  000DD0  1E06               	comf	(___aldiv@dividend+2)^0,f,c
  3400  000DD2  1E05               	comf	(___aldiv@dividend+1)^0,f,c
  3401  000DD4  6C04               	negf	___aldiv@dividend^0,c
  3402  000DD6  0E00               	movlw	0
  3403  000DD8  2205               	addwfc	(___aldiv@dividend+1)^0,f,c
  3404  000DDA  2206               	addwfc	(___aldiv@dividend+2)^0,f,c
  3405  000DDC  2207               	addwfc	(___aldiv@dividend+3)^0,f,c
  3406  000DDE  0E01               	movlw	1
  3407  000DE0  1A0D               	xorwf	___aldiv@sign^0,f,c
  3408  000DE2                     l2081:
  3409  000DE2  0E00               	movlw	0
  3410  000DE4  6E0E               	movwf	___aldiv@quotient^0,c
  3411  000DE6  0E00               	movlw	0
  3412  000DE8  6E0F               	movwf	(___aldiv@quotient+1)^0,c
  3413  000DEA  0E00               	movlw	0
  3414  000DEC  6E10               	movwf	(___aldiv@quotient+2)^0,c
  3415  000DEE  0E00               	movlw	0
  3416  000DF0  6E11               	movwf	(___aldiv@quotient+3)^0,c
  3417  000DF2  5008               	movf	___aldiv@divisor^0,w,c
  3418  000DF4  1009               	iorwf	(___aldiv@divisor+1)^0,w,c
  3419  000DF6  100A               	iorwf	(___aldiv@divisor+2)^0,w,c
  3420  000DF8  100B               	iorwf	(___aldiv@divisor+3)^0,w,c
  3421  000DFA  B4D8               	btfsc	status,2,c
  3422  000DFC  EF02  F007         	goto	u881
  3423  000E00  EF04  F007         	goto	u880
  3424  000E04                     u881:
  3425  000E04  EF3A  F007         	goto	l2103
  3426  000E08                     u880:
  3427  000E08  0E01               	movlw	1
  3428  000E0A  6E0C               	movwf	___aldiv@counter^0,c
  3429  000E0C  EF0E  F007         	goto	l2089
  3430  000E10                     l2087:
  3431  000E10  90D8               	bcf	status,0,c
  3432  000E12  3608               	rlcf	___aldiv@divisor^0,f,c
  3433  000E14  3609               	rlcf	(___aldiv@divisor+1)^0,f,c
  3434  000E16  360A               	rlcf	(___aldiv@divisor+2)^0,f,c
  3435  000E18  360B               	rlcf	(___aldiv@divisor+3)^0,f,c
  3436  000E1A  2A0C               	incf	___aldiv@counter^0,f,c
  3437  000E1C                     l2089:
  3438  000E1C  AE0B               	btfss	(___aldiv@divisor+3)^0,7,c
  3439  000E1E  EF13  F007         	goto	u891
  3440  000E22  EF15  F007         	goto	u890
  3441  000E26                     u891:
  3442  000E26  EF08  F007         	goto	l2087
  3443  000E2A                     u890:
  3444  000E2A                     l2091:
  3445  000E2A  90D8               	bcf	status,0,c
  3446  000E2C  360E               	rlcf	___aldiv@quotient^0,f,c
  3447  000E2E  360F               	rlcf	(___aldiv@quotient+1)^0,f,c
  3448  000E30  3610               	rlcf	(___aldiv@quotient+2)^0,f,c
  3449  000E32  3611               	rlcf	(___aldiv@quotient+3)^0,f,c
  3450  000E34  5008               	movf	___aldiv@divisor^0,w,c
  3451  000E36  5C04               	subwf	___aldiv@dividend^0,w,c
  3452  000E38  5009               	movf	(___aldiv@divisor+1)^0,w,c
  3453  000E3A  5805               	subwfb	(___aldiv@dividend+1)^0,w,c
  3454  000E3C  500A               	movf	(___aldiv@divisor+2)^0,w,c
  3455  000E3E  5806               	subwfb	(___aldiv@dividend+2)^0,w,c
  3456  000E40  500B               	movf	(___aldiv@divisor+3)^0,w,c
  3457  000E42  5807               	subwfb	(___aldiv@dividend+3)^0,w,c
  3458  000E44  A0D8               	btfss	status,0,c
  3459  000E46  EF27  F007         	goto	u901
  3460  000E4A  EF29  F007         	goto	u900
  3461  000E4E                     u901:
  3462  000E4E  EF32  F007         	goto	l2099
  3463  000E52                     u900:
  3464  000E52  5008               	movf	___aldiv@divisor^0,w,c
  3465  000E54  5E04               	subwf	___aldiv@dividend^0,f,c
  3466  000E56  5009               	movf	(___aldiv@divisor+1)^0,w,c
  3467  000E58  5A05               	subwfb	(___aldiv@dividend+1)^0,f,c
  3468  000E5A  500A               	movf	(___aldiv@divisor+2)^0,w,c
  3469  000E5C  5A06               	subwfb	(___aldiv@dividend+2)^0,f,c
  3470  000E5E  500B               	movf	(___aldiv@divisor+3)^0,w,c
  3471  000E60  5A07               	subwfb	(___aldiv@dividend+3)^0,f,c
  3472  000E62  800E               	bsf	___aldiv@quotient^0,0,c
  3473  000E64                     l2099:
  3474  000E64  90D8               	bcf	status,0,c
  3475  000E66  320B               	rrcf	(___aldiv@divisor+3)^0,f,c
  3476  000E68  320A               	rrcf	(___aldiv@divisor+2)^0,f,c
  3477  000E6A  3209               	rrcf	(___aldiv@divisor+1)^0,f,c
  3478  000E6C  3208               	rrcf	___aldiv@divisor^0,f,c
  3479  000E6E  2E0C               	decfsz	___aldiv@counter^0,f,c
  3480  000E70  EF15  F007         	goto	l2091
  3481  000E74                     l2103:
  3482  000E74  500D               	movf	___aldiv@sign^0,w,c
  3483  000E76  B4D8               	btfsc	status,2,c
  3484  000E78  EF40  F007         	goto	u911
  3485  000E7C  EF42  F007         	goto	u910
  3486  000E80                     u911:
  3487  000E80  EF4A  F007         	goto	l2107
  3488  000E84                     u910:
  3489  000E84  1E11               	comf	(___aldiv@quotient+3)^0,f,c
  3490  000E86  1E10               	comf	(___aldiv@quotient+2)^0,f,c
  3491  000E88  1E0F               	comf	(___aldiv@quotient+1)^0,f,c
  3492  000E8A  6C0E               	negf	___aldiv@quotient^0,c
  3493  000E8C  0E00               	movlw	0
  3494  000E8E  220F               	addwfc	(___aldiv@quotient+1)^0,f,c
  3495  000E90  2210               	addwfc	(___aldiv@quotient+2)^0,f,c
  3496  000E92  2211               	addwfc	(___aldiv@quotient+3)^0,f,c
  3497  000E94                     l2107:
  3498  000E94  C00E  F004         	movff	___aldiv@quotient,?___aldiv
  3499  000E98  C00F  F005         	movff	___aldiv@quotient+1,?___aldiv+1
  3500  000E9C  C010  F006         	movff	___aldiv@quotient+2,?___aldiv+2
  3501  000EA0  C011  F007         	movff	___aldiv@quotient+3,?___aldiv+3
  3502  000EA4  0012               	return		;funcret
  3503  000EA6                     __end_of___aldiv:
  3504                           	opt callstack 0
  3505                           
  3506 ;; *************** function _INT_ISR *****************
  3507 ;; Defined at:
  3508 ;;		line 14 in file "main.c"
  3509 ;; Parameters:    Size  Location     Type
  3510 ;;		None
  3511 ;; Auto vars:     Size  Location     Type
  3512 ;;		None
  3513 ;; Return value:  Size  Location     Type
  3514 ;;                  1    wreg      void 
  3515 ;; Registers used:
  3516 ;;		wreg, status,2, status,0, cstack
  3517 ;; Tracked objects:
  3518 ;;		On entry : 0/0
  3519 ;;		On exit  : 0/0
  3520 ;;		Unchanged: 0/0
  3521 ;; Data sizes:     COMRAM   BANK0   BANK1   BANK2   BANK3   BANK4   BANK5   BANK6   BANK7
  3522 ;;      Params:         0       0       0       0       0       0       0       0       0
  3523 ;;      Locals:         0       0       0       0       0       0       0       0       0
  3524 ;;      Temps:          1       0       0       0       0       0       0       0       0
  3525 ;;      Totals:         1       0       0       0       0       0       0       0       0
  3526 ;;Total ram usage:        1 bytes
  3527 ;; Hardware stack levels used:    1
  3528 ;; Hardware stack levels required when called:    3
  3529 ;; This function calls:
  3530 ;;		_GoToInitialXPosition
  3531 ;;		_GoToInitialYPosition
  3532 ;;		i2_UARTWrite
  3533 ;; This function is called by:
  3534 ;;		Interrupt level 2
  3535 ;; This function uses a non-reentrant model
  3536 ;;
  3537                           
  3538                           	psect	intcode
  3539  000008                     __pintcode:
  3540                           	opt callstack 0
  3541  000008                     _INT_ISR:
  3542                           	opt callstack 23
  3543                           
  3544                           ;incstack = 0
  3545  000008  8243               	bsf	int$flags,1,c	;set compiler interrupt flag (level 2)
  3546  00000A  ED0F  F008         	call	int_func,f	;refresh shadow registers
  3547                           
  3548                           	psect	intcode_body
  3549  00101E                     __pintcode_body:
  3550                           	opt callstack 23
  3551  00101E                     int_func:
  3552                           	opt callstack 23
  3553  00101E  0006               	pop		; remove dummy address from shadow register refresh
  3554  001020                     
  3555                           ;main.c: 16:     if(INTCONbits.INT0IF == 1)
  3556  001020  A2F2               	btfss	242,1,c	;volatile
  3557  001022  EF15  F008         	goto	i2u122_41
  3558  001026  EF17  F008         	goto	i2u122_40
  3559  00102A                     i2u122_41:
  3560  00102A  EF33  F008         	goto	i2l261
  3561  00102E                     i2u122_40:
  3562  00102E                     
  3563                           ;main.c: 17:     {;main.c: 18:         UARTWrite(0x45);
  3564  00102E  0E45               	movlw	69
  3565  001030  EC5C  F00B         	call	i2_UARTWrite
  3566  001034                     
  3567                           ;main.c: 19:         GoToInitialXPosition();
  3568  001034  EC1D  F00B         	call	_GoToInitialXPosition	;wreg free
  3569  001038                     
  3570                           ;main.c: 20:         if(PORTBbits.RB0 == 0)
  3571  001038  B081               	btfsc	129,0,c	;volatile
  3572  00103A  EF21  F008         	goto	i2u123_41
  3573  00103E  EF23  F008         	goto	i2u123_40
  3574  001042                     i2u123_41:
  3575  001042  EF33  F008         	goto	i2l261
  3576  001046                     i2u123_40:
  3577  001046                     
  3578                           ;main.c: 21:         {;main.c: 22:             _delay((unsigned long)((15)*(8000000L/400
      +                          0.0)));
  3579  001046  0E27               	movlw	39
  3580  001048  6E03               	movwf	??_INT_ISR^0,c
  3581  00104A  0EF5               	movlw	245
  3582  00104C                     i2u134_47:
  3583  00104C  2EE8               	decfsz	wreg,f,c
  3584  00104E  D7FE               	bra	i2u134_47
  3585  001050  2E03               	decfsz	??_INT_ISR^0,f,c
  3586  001052  D7FC               	bra	i2u134_47
  3587  001054  F000               	nop	
  3588  001056                     
  3589                           ;main.c: 23:             if(PORTBbits.RB0 == 0)
  3590  001056  B081               	btfsc	129,0,c	;volatile
  3591  001058  EF30  F008         	goto	i2u124_41
  3592  00105C  EF32  F008         	goto	i2u124_40
  3593  001060                     i2u124_41:
  3594  001060  EF33  F008         	goto	i2l261
  3595  001064                     i2u124_40:
  3596  001064                     
  3597                           ;main.c: 24:             {;main.c: 25:                 INTCONbits.INT0IF = 0;
  3598  001064  92F2               	bcf	242,1,c	;volatile
  3599  001066                     i2l261:
  3600                           
  3601                           ;main.c: 30:     if(INTCON3bits.INT1IF == 1)
  3602  001066  A0F0               	btfss	240,0,c	;volatile
  3603  001068  EF38  F008         	goto	i2u125_41
  3604  00106C  EF3A  F008         	goto	i2u125_40
  3605  001070                     i2u125_41:
  3606  001070  EF56  F008         	goto	i2l267
  3607  001074                     i2u125_40:
  3608  001074                     
  3609                           ;main.c: 31:     {;main.c: 32:         UARTWrite(0x65);
  3610  001074  0E65               	movlw	101
  3611  001076  EC5C  F00B         	call	i2_UARTWrite
  3612  00107A                     
  3613                           ;main.c: 33:         GoToInitialYPosition();
  3614  00107A  EC0E  F00B         	call	_GoToInitialYPosition	;wreg free
  3615  00107E                     
  3616                           ;main.c: 34:         if(PORTBbits.RB1 == 0)
  3617  00107E  B281               	btfsc	129,1,c	;volatile
  3618  001080  EF44  F008         	goto	i2u126_41
  3619  001084  EF46  F008         	goto	i2u126_40
  3620  001088                     i2u126_41:
  3621  001088  EF56  F008         	goto	i2l267
  3622  00108C                     i2u126_40:
  3623  00108C                     
  3624                           ;main.c: 35:         {;main.c: 36:             _delay((unsigned long)((15)*(8000000L/400
      +                          0.0)));
  3625  00108C  0E27               	movlw	39
  3626  00108E  6E03               	movwf	??_INT_ISR^0,c
  3627  001090  0EF5               	movlw	245
  3628  001092                     i2u135_47:
  3629  001092  2EE8               	decfsz	wreg,f,c
  3630  001094  D7FE               	bra	i2u135_47
  3631  001096  2E03               	decfsz	??_INT_ISR^0,f,c
  3632  001098  D7FC               	bra	i2u135_47
  3633  00109A  F000               	nop	
  3634  00109C                     
  3635                           ;main.c: 37:             if(PORTBbits.RB1 == 0)
  3636  00109C  B281               	btfsc	129,1,c	;volatile
  3637  00109E  EF53  F008         	goto	i2u127_41
  3638  0010A2  EF55  F008         	goto	i2u127_40
  3639  0010A6                     i2u127_41:
  3640  0010A6  EF56  F008         	goto	i2l267
  3641  0010AA                     i2u127_40:
  3642  0010AA                     
  3643                           ;main.c: 38:             {;main.c: 39:                 INTCON3bits.INT1IF = 0;
  3644  0010AA  90F0               	bcf	240,0,c	;volatile
  3645  0010AC                     i2l267:
  3646  0010AC  9243               	bcf	int$flags,1,c	;clear compiler interrupt flag (level 2)
  3647  0010AE  0011               	retfie		f
  3648  0010B0                     __end_of_INT_ISR:
  3649                           	opt callstack 0
  3650                           
  3651 ;; *************** function i2_UARTWrite *****************
  3652 ;; Defined at:
  3653 ;;		line 34 in file "UART.c"
  3654 ;; Parameters:    Size  Location     Type
  3655 ;;  data            1    wreg     unsigned char 
  3656 ;; Auto vars:     Size  Location     Type
  3657 ;;  data            1    0[COMRAM] unsigned char 
  3658 ;; Return value:  Size  Location     Type
  3659 ;;                  1    wreg      void 
  3660 ;; Registers used:
  3661 ;;		wreg
  3662 ;; Tracked objects:
  3663 ;;		On entry : 0/0
  3664 ;;		On exit  : 0/0
  3665 ;;		Unchanged: 0/0
  3666 ;; Data sizes:     COMRAM   BANK0   BANK1   BANK2   BANK3   BANK4   BANK5   BANK6   BANK7
  3667 ;;      Params:         0       0       0       0       0       0       0       0       0
  3668 ;;      Locals:         1       0       0       0       0       0       0       0       0
  3669 ;;      Temps:          0       0       0       0       0       0       0       0       0
  3670 ;;      Totals:         1       0       0       0       0       0       0       0       0
  3671 ;;Total ram usage:        1 bytes
  3672 ;; Hardware stack levels used:    1
  3673 ;; This function calls:
  3674 ;;		Nothing
  3675 ;; This function is called by:
  3676 ;;		_INT_ISR
  3677 ;; This function uses a non-reentrant model
  3678 ;;
  3679                           
  3680                           	psect	text25
  3681  0016B8                     __ptext25:
  3682                           	opt callstack 0
  3683  0016B8                     i2_UARTWrite:
  3684                           	opt callstack 25
  3685                           
  3686                           ;incstack = 0
  3687                           ;i2UARTWrite@data stored from wreg
  3688  0016B8  6E01               	movwf	i2UARTWrite@data^0,c
  3689  0016BA                     i2l126:
  3690  0016BA  A89E               	btfss	158,4,c	;volatile
  3691  0016BC  EF62  F00B         	goto	i2u121_41
  3692  0016C0  EF64  F00B         	goto	i2u121_40
  3693  0016C4                     i2u121_41:
  3694  0016C4  EF5D  F00B         	goto	i2l126
  3695  0016C8                     i2u121_40:
  3696  0016C8                     
  3697                           ;UART.c: 36:     TXREG= data;
  3698  0016C8  C001  FFAD         	movff	i2UARTWrite@data,4013	;volatile
  3699  0016CC  0012               	return		;funcret
  3700  0016CE                     __end_ofi2_UARTWrite:
  3701                           	opt callstack 0
  3702                           
  3703 ;; *************** function _GoToInitialYPosition *****************
  3704 ;; Defined at:
  3705 ;;		line 199 in file "PWM.c"
  3706 ;; Parameters:    Size  Location     Type
  3707 ;;		None
  3708 ;; Auto vars:     Size  Location     Type
  3709 ;;		None
  3710 ;; Return value:  Size  Location     Type
  3711 ;;                  1    wreg      void 
  3712 ;; Registers used:
  3713 ;;		wreg, status,2, status,0, cstack
  3714 ;; Tracked objects:
  3715 ;;		On entry : 0/0
  3716 ;;		On exit  : 0/0
  3717 ;;		Unchanged: 0/0
  3718 ;; Data sizes:     COMRAM   BANK0   BANK1   BANK2   BANK3   BANK4   BANK5   BANK6   BANK7
  3719 ;;      Params:         0       0       0       0       0       0       0       0       0
  3720 ;;      Locals:         0       0       0       0       0       0       0       0       0
  3721 ;;      Temps:          0       0       0       0       0       0       0       0       0
  3722 ;;      Totals:         0       0       0       0       0       0       0       0       0
  3723 ;;Total ram usage:        0 bytes
  3724 ;; Hardware stack levels used:    1
  3725 ;; Hardware stack levels required when called:    2
  3726 ;; This function calls:
  3727 ;;		i2_ContarPulsos
  3728 ;; This function is called by:
  3729 ;;		_INT_ISR
  3730 ;; This function uses a non-reentrant model
  3731 ;;
  3732                           
  3733                           	psect	text26
  3734  00161C                     __ptext26:
  3735                           	opt callstack 0
  3736  00161C                     _GoToInitialYPosition:
  3737                           	opt callstack 23
  3738  00161C                     
  3739                           ;PWM.c: 201:     PORTDbits.RD0= 1;
  3740  00161C  8083               	bsf	131,0,c	;volatile
  3741                           
  3742                           ;PWM.c: 202:     PORTDbits.RD1= 0;
  3743  00161E  9283               	bcf	131,1,c	;volatile
  3744  001620                     
  3745                           ;PWM.c: 203:     ContarPulsos(25);
  3746  001620  0E00               	movlw	0
  3747  001622  6E02               	movwf	(i2ContarPulsos@pasos+1)^0,c
  3748  001624  0E19               	movlw	25
  3749  001626  6E01               	movwf	i2ContarPulsos@pasos^0,c
  3750  001628  ECF6  F009         	call	i2_ContarPulsos	;wreg free
  3751  00162C                     
  3752                           ;PWM.c: 204:     PORTDbits.RD2= 1;
  3753  00162C  8483               	bsf	131,2,c	;volatile
  3754  00162E                     
  3755                           ;PWM.c: 205:     PORTDbits.RD3= 1;
  3756  00162E  8683               	bsf	131,3,c	;volatile
  3757  001630                     
  3758                           ;PWM.c: 206:     CoordAntY = 0;
  3759  001630  0E00               	movlw	0
  3760  001632  6E40               	movwf	(_CoordAntY+1)^0,c
  3761  001634  0E00               	movlw	0
  3762  001636  6E3F               	movwf	_CoordAntY^0,c
  3763  001638  0012               	return		;funcret
  3764  00163A                     __end_of_GoToInitialYPosition:
  3765                           	opt callstack 0
  3766                           
  3767 ;; *************** function _GoToInitialXPosition *****************
  3768 ;; Defined at:
  3769 ;;		line 189 in file "PWM.c"
  3770 ;; Parameters:    Size  Location     Type
  3771 ;;		None
  3772 ;; Auto vars:     Size  Location     Type
  3773 ;;		None
  3774 ;; Return value:  Size  Location     Type
  3775 ;;                  1    wreg      void 
  3776 ;; Registers used:
  3777 ;;		wreg, status,2, status,0, cstack
  3778 ;; Tracked objects:
  3779 ;;		On entry : 0/0
  3780 ;;		On exit  : 0/0
  3781 ;;		Unchanged: 0/0
  3782 ;; Data sizes:     COMRAM   BANK0   BANK1   BANK2   BANK3   BANK4   BANK5   BANK6   BANK7
  3783 ;;      Params:         0       0       0       0       0       0       0       0       0
  3784 ;;      Locals:         0       0       0       0       0       0       0       0       0
  3785 ;;      Temps:          0       0       0       0       0       0       0       0       0
  3786 ;;      Totals:         0       0       0       0       0       0       0       0       0
  3787 ;;Total ram usage:        0 bytes
  3788 ;; Hardware stack levels used:    1
  3789 ;; Hardware stack levels required when called:    2
  3790 ;; This function calls:
  3791 ;;		i2_ContarPulsos
  3792 ;; This function is called by:
  3793 ;;		_INT_ISR
  3794 ;; This function uses a non-reentrant model
  3795 ;;
  3796                           
  3797                           	psect	text27
  3798  00163A                     __ptext27:
  3799                           	opt callstack 0
  3800  00163A                     _GoToInitialXPosition:
  3801                           	opt callstack 23
  3802  00163A                     
  3803                           ;PWM.c: 191:     PORTDbits.RD0= 0;
  3804  00163A  9083               	bcf	131,0,c	;volatile
  3805                           
  3806                           ;PWM.c: 192:     PORTDbits.RD1= 0;
  3807  00163C  9283               	bcf	131,1,c	;volatile
  3808  00163E                     
  3809                           ;PWM.c: 193:     ContarPulsos(25);
  3810  00163E  0E00               	movlw	0
  3811  001640  6E02               	movwf	(i2ContarPulsos@pasos+1)^0,c
  3812  001642  0E19               	movlw	25
  3813  001644  6E01               	movwf	i2ContarPulsos@pasos^0,c
  3814  001646  ECF6  F009         	call	i2_ContarPulsos	;wreg free
  3815  00164A                     
  3816                           ;PWM.c: 194:     PORTDbits.RD2= 1;
  3817  00164A  8483               	bsf	131,2,c	;volatile
  3818  00164C                     
  3819                           ;PWM.c: 195:     PORTDbits.RD3= 1;
  3820  00164C  8683               	bsf	131,3,c	;volatile
  3821  00164E                     
  3822                           ;PWM.c: 196:     CoordAntX = 0;
  3823  00164E  0E00               	movlw	0
  3824  001650  6E42               	movwf	(_CoordAntX+1)^0,c
  3825  001652  0E00               	movlw	0
  3826  001654  6E41               	movwf	_CoordAntX^0,c
  3827  001656  0012               	return		;funcret
  3828  001658                     __end_of_GoToInitialXPosition:
  3829                           	opt callstack 0
  3830                           
  3831 ;; *************** function i2_ContarPulsos *****************
  3832 ;; Defined at:
  3833 ;;		line 104 in file "PWM.c"
  3834 ;; Parameters:    Size  Location     Type
  3835 ;;  pasos           2    0[COMRAM] int 
  3836 ;; Auto vars:     Size  Location     Type
  3837 ;;		None
  3838 ;; Return value:  Size  Location     Type
  3839 ;;                  1    wreg      void 
  3840 ;; Registers used:
  3841 ;;		wreg, status,2, status,0, cstack
  3842 ;; Tracked objects:
  3843 ;;		On entry : 0/0
  3844 ;;		On exit  : 0/0
  3845 ;;		Unchanged: 0/0
  3846 ;; Data sizes:     COMRAM   BANK0   BANK1   BANK2   BANK3   BANK4   BANK5   BANK6   BANK7
  3847 ;;      Params:         2       0       0       0       0       0       0       0       0
  3848 ;;      Locals:         0       0       0       0       0       0       0       0       0
  3849 ;;      Temps:          0       0       0       0       0       0       0       0       0
  3850 ;;      Totals:         2       0       0       0       0       0       0       0       0
  3851 ;;Total ram usage:        2 bytes
  3852 ;; Hardware stack levels used:    1
  3853 ;; Hardware stack levels required when called:    1
  3854 ;; This function calls:
  3855 ;;		i2_OneShot
  3856 ;;		i2_ResetOneShot
  3857 ;; This function is called by:
  3858 ;;		_GoToInitialXPosition
  3859 ;;		_GoToInitialYPosition
  3860 ;; This function uses a non-reentrant model
  3861 ;;
  3862                           
  3863                           	psect	text28
  3864  0013EC                     __ptext28:
  3865                           	opt callstack 0
  3866  0013EC                     i2_ContarPulsos:
  3867                           	opt callstack 23
  3868  0013EC                     
  3869                           ;PWM.c: 104: void ContarPulsos(int pasos);PWM.c: 105: {;PWM.c: 106:     ActualSteps=0;
  3870  0013EC  0E00               	movlw	0
  3871  0013EE  6E2F               	movwf	(_ActualSteps+1)^0,c
  3872  0013F0  0E00               	movlw	0
  3873  0013F2  6E2E               	movwf	_ActualSteps^0,c
  3874                           
  3875                           ;PWM.c: 107:     ons=0;
  3876  0013F4  0E00               	movlw	0
  3877  0013F6  6E2D               	movwf	(_ons+1)^0,c
  3878  0013F8  0E00               	movlw	0
  3879  0013FA  6E2C               	movwf	_ons^0,c
  3880  0013FC                     
  3881                           ;PWM.c: 108:     PORTDbits.RD2= 0;
  3882  0013FC  9483               	bcf	131,2,c	;volatile
  3883  0013FE                     
  3884                           ;PWM.c: 109:     PORTDbits.RD3= 0;
  3885  0013FE  9683               	bcf	131,3,c	;volatile
  3886                           
  3887                           ;PWM.c: 110:     while(ActualSteps< pasos)
  3888  001400  EF16  F00A         	goto	i2l2335
  3889  001404                     i2l364:
  3890                           
  3891                           ;PWM.c: 111:     {;PWM.c: 112:         if (PORTCbits.CCP1==1)
  3892  001404  A482               	btfss	130,2,c	;volatile
  3893  001406  EF07  F00A         	goto	i2u113_41
  3894  00140A  EF09  F00A         	goto	i2u113_40
  3895  00140E                     i2u113_41:
  3896  00140E  EF0B  F00A         	goto	i2l2331
  3897  001412                     i2u113_40:
  3898  001412                     
  3899                           ;PWM.c: 113:         {;PWM.c: 114:             OneShot();
  3900  001412  ECA7  F00A         	call	i2_OneShot	;wreg free
  3901  001416                     i2l2331:
  3902                           
  3903                           ;PWM.c: 116:         if(ons==1)
  3904  001416  042C               	decf	_ons^0,w,c
  3905  001418  102D               	iorwf	(_ons+1)^0,w,c
  3906  00141A  A4D8               	btfss	status,2,c
  3907  00141C  EF12  F00A         	goto	i2u114_41
  3908  001420  EF14  F00A         	goto	i2u114_40
  3909  001424                     i2u114_41:
  3910  001424  EF16  F00A         	goto	i2l2335
  3911  001428                     i2u114_40:
  3912  001428                     
  3913                           ;PWM.c: 117:         {;PWM.c: 118:             ResetOneShot();
  3914  001428  ECD5  F00A         	call	i2_ResetOneShot	;wreg free
  3915  00142C                     i2l2335:
  3916                           
  3917                           ;PWM.c: 110:     while(ActualSteps< pasos)
  3918  00142C  5001               	movf	i2ContarPulsos@pasos^0,w,c
  3919  00142E  5C2E               	subwf	_ActualSteps^0,w,c
  3920  001430  5002               	movf	(i2ContarPulsos@pasos+1)^0,w,c
  3921  001432  582F               	subwfb	(_ActualSteps+1)^0,w,c
  3922  001434  A0D8               	btfss	status,0,c
  3923  001436  EF1F  F00A         	goto	i2u115_41
  3924  00143A  EF21  F00A         	goto	i2u115_40
  3925  00143E                     i2u115_41:
  3926  00143E  EF02  F00A         	goto	i2l364
  3927  001442                     i2u115_40:
  3928  001442                     
  3929                           ;PWM.c: 122:     PORTDbits.RD2= 1;
  3930  001442  8483               	bsf	131,2,c	;volatile
  3931                           
  3932                           ;PWM.c: 123:     PORTDbits.RD3= 1;
  3933  001444  8683               	bsf	131,3,c	;volatile
  3934  001446  0012               	return		;funcret
  3935  001448                     __end_ofi2_ContarPulsos:
  3936                           	opt callstack 0
  3937                           
  3938 ;; *************** function i2_ResetOneShot *****************
  3939 ;; Defined at:
  3940 ;;		line 142 in file "PWM.c"
  3941 ;; Parameters:    Size  Location     Type
  3942 ;;		None
  3943 ;; Auto vars:     Size  Location     Type
  3944 ;;		None
  3945 ;; Return value:  Size  Location     Type
  3946 ;;                  1    wreg      void 
  3947 ;; Registers used:
  3948 ;;		wreg, status,2
  3949 ;; Tracked objects:
  3950 ;;		On entry : 0/0
  3951 ;;		On exit  : 0/0
  3952 ;;		Unchanged: 0/0
  3953 ;; Data sizes:     COMRAM   BANK0   BANK1   BANK2   BANK3   BANK4   BANK5   BANK6   BANK7
  3954 ;;      Params:         0       0       0       0       0       0       0       0       0
  3955 ;;      Locals:         0       0       0       0       0       0       0       0       0
  3956 ;;      Temps:          0       0       0       0       0       0       0       0       0
  3957 ;;      Totals:         0       0       0       0       0       0       0       0       0
  3958 ;;Total ram usage:        0 bytes
  3959 ;; Hardware stack levels used:    1
  3960 ;; This function calls:
  3961 ;;		Nothing
  3962 ;; This function is called by:
  3963 ;;		i2_ContarPulsos
  3964 ;; This function uses a non-reentrant model
  3965 ;;
  3966                           
  3967                           	psect	text29
  3968  0015AA                     __ptext29:
  3969                           	opt callstack 0
  3970  0015AA                     i2_ResetOneShot:
  3971                           	opt callstack 23
  3972  0015AA                     
  3973                           ;PWM.c: 144:     if(PORTCbits.CCP1==1)
  3974  0015AA  A482               	btfss	130,2,c	;volatile
  3975  0015AC  EFDA  F00A         	goto	i2u27_41
  3976  0015B0  EFDC  F00A         	goto	i2u27_40
  3977  0015B4                     i2u27_41:
  3978  0015B4  EFDE  F00A         	goto	i2l376
  3979  0015B8                     i2u27_40:
  3980  0015B8  EFE9  F00A         	goto	i2l377
  3981  0015BC                     i2l376:
  3982                           
  3983                           ;PWM.c: 148:     if(PORTCbits.CCP1==0)
  3984  0015BC  B482               	btfsc	130,2,c	;volatile
  3985  0015BE  EFE3  F00A         	goto	i2u28_41
  3986  0015C2  EFE5  F00A         	goto	i2u28_40
  3987  0015C6                     i2u28_41:
  3988  0015C6  EFE9  F00A         	goto	i2l377
  3989  0015CA                     i2u28_40:
  3990  0015CA                     
  3991                           ;PWM.c: 149:     {;PWM.c: 150:         ons=0;
  3992  0015CA  0E00               	movlw	0
  3993  0015CC  6E2D               	movwf	(_ons+1)^0,c
  3994  0015CE  0E00               	movlw	0
  3995  0015D0  6E2C               	movwf	_ons^0,c
  3996  0015D2                     i2l377:
  3997  0015D2  0012               	return		;funcret
  3998  0015D4                     __end_ofi2_ResetOneShot:
  3999                           	opt callstack 0
  4000                           
  4001 ;; *************** function i2_OneShot *****************
  4002 ;; Defined at:
  4003 ;;		line 128 in file "PWM.c"
  4004 ;; Parameters:    Size  Location     Type
  4005 ;;		None
  4006 ;; Auto vars:     Size  Location     Type
  4007 ;;		None
  4008 ;; Return value:  Size  Location     Type
  4009 ;;                  1    wreg      void 
  4010 ;; Registers used:
  4011 ;;		wreg, status,2, status,0
  4012 ;; Tracked objects:
  4013 ;;		On entry : 0/0
  4014 ;;		On exit  : 0/0
  4015 ;;		Unchanged: 0/0
  4016 ;; Data sizes:     COMRAM   BANK0   BANK1   BANK2   BANK3   BANK4   BANK5   BANK6   BANK7
  4017 ;;      Params:         0       0       0       0       0       0       0       0       0
  4018 ;;      Locals:         0       0       0       0       0       0       0       0       0
  4019 ;;      Temps:          0       0       0       0       0       0       0       0       0
  4020 ;;      Totals:         0       0       0       0       0       0       0       0       0
  4021 ;;Total ram usage:        0 bytes
  4022 ;; Hardware stack levels used:    1
  4023 ;; This function calls:
  4024 ;;		Nothing
  4025 ;; This function is called by:
  4026 ;;		i2_ContarPulsos
  4027 ;; This function uses a non-reentrant model
  4028 ;;
  4029                           
  4030                           	psect	text30
  4031  00154E                     __ptext30:
  4032                           	opt callstack 0
  4033  00154E                     i2_OneShot:
  4034                           	opt callstack 23
  4035  00154E                     
  4036                           ;PWM.c: 130:     if(ons==1)
  4037  00154E  042C               	decf	_ons^0,w,c
  4038  001550  102D               	iorwf	(_ons+1)^0,w,c
  4039  001552  A4D8               	btfss	status,2,c
  4040  001554  EFAE  F00A         	goto	i2u25_41
  4041  001558  EFB0  F00A         	goto	i2u25_40
  4042  00155C                     i2u25_41:
  4043  00155C  EFB2  F00A         	goto	i2l371
  4044  001560                     i2u25_40:
  4045  001560  EFBF  F00A         	goto	i2l372
  4046  001564                     i2l371:
  4047                           
  4048                           ;PWM.c: 134:     if(PORTCbits.CCP1==1)
  4049  001564  A482               	btfss	130,2,c	;volatile
  4050  001566  EFB7  F00A         	goto	i2u26_41
  4051  00156A  EFB9  F00A         	goto	i2u26_40
  4052  00156E                     i2u26_41:
  4053  00156E  EFBF  F00A         	goto	i2l372
  4054  001572                     i2u26_40:
  4055  001572                     
  4056                           ;PWM.c: 135:     {;PWM.c: 136:         ActualSteps++;
  4057  001572  4A2E               	infsnz	_ActualSteps^0,f,c
  4058  001574  2A2F               	incf	(_ActualSteps+1)^0,f,c
  4059  001576                     
  4060                           ;PWM.c: 137:         ons=1;
  4061  001576  0E00               	movlw	0
  4062  001578  6E2D               	movwf	(_ons+1)^0,c
  4063  00157A  0E01               	movlw	1
  4064  00157C  6E2C               	movwf	_ons^0,c
  4065  00157E                     i2l372:
  4066  00157E  0012               	return		;funcret
  4067  001580                     __end_ofi2_OneShot:
  4068                           	opt callstack 0
  4069                           
  4070                           	psect	rparam
  4071  0000                     
  4072                           	psect	temp
  4073  000043                     btemp:
  4074                           	opt callstack 0
  4075  000043                     	ds	1
  4076  0000                     int$flags	set	btemp
  4077  0000                     wtemp8	set	btemp+1
  4078  0000                     ttemp5	set	btemp+1
  4079  0000                     ttemp6	set	btemp+4
  4080  0000                     ttemp7	set	btemp+8
  4081                           tosu	equ	0xFFF
  4082                           tosh	equ	0xFFE
  4083                           tosl	equ	0xFFD
  4084                           stkptr	equ	0xFFC
  4085                           pclatu	equ	0xFFB
  4086                           pclath	equ	0xFFA
  4087                           pcl	equ	0xFF9
  4088                           tblptru	equ	0xFF8
  4089                           tblptrh	equ	0xFF7
  4090                           tblptrl	equ	0xFF6
  4091                           tablat	equ	0xFF5
  4092                           prodh	equ	0xFF4
  4093                           prodl	equ	0xFF3
  4094                           indf0	equ	0xFEF
  4095                           postinc0	equ	0xFEE
  4096                           postdec0	equ	0xFED
  4097                           preinc0	equ	0xFEC
  4098                           plusw0	equ	0xFEB
  4099                           fsr0h	equ	0xFEA
  4100                           fsr0l	equ	0xFE9
  4101                           wreg	equ	0xFE8
  4102                           indf1	equ	0xFE7
  4103                           postinc1	equ	0xFE6
  4104                           postdec1	equ	0xFE5
  4105                           preinc1	equ	0xFE4
  4106                           plusw1	equ	0xFE3
  4107                           fsr1h	equ	0xFE2
  4108                           fsr1l	equ	0xFE1
  4109                           bsr	equ	0xFE0
  4110                           indf2	equ	0xFDF
  4111                           postinc2	equ	0xFDE
  4112                           postdec2	equ	0xFDD
  4113                           preinc2	equ	0xFDC
  4114                           plusw2	equ	0xFDB
  4115                           fsr2h	equ	0xFDA
  4116                           fsr2l	equ	0xFD9
  4117                           status	equ	0xFD8


Data Sizes:
    Strings     229
    Constant    0
    Data        0
    BSS         27
    Persistent  4
    Stack       0

Auto Spaces:
    Space          Size  Autos    Used
    COMRAM           94     35      66
    BANK0           160      0       0
    BANK1           256      0       0
    BANK2           256      0       0
    BANK3           256      0       0
    BANK4           256      0       0
    BANK5           256      0       0
    BANK6           256      0       0
    BANK7           256      0       0

Pointer List with Targets:

    myPrintf@PointString	PTR unsigned char  size(2) Largest target is 37
		 -> STR_13(CODE[6]), STR_12(CODE[6]), STR_11(CODE[11]), STR_10(CODE[13]), 
		 -> STR_9(CODE[11]), STR_8(CODE[13]), STR_7(CODE[17]), STR_6(CODE[27]), 
		 -> STR_5(CODE[37]), STR_4(CODE[34]), STR_3(CODE[29]), STR_2(CODE[14]), 
		 -> STR_1(CODE[11]), 

    coord@y	PTR unsigned short  size(2) Largest target is 2
		 -> cord_y(COMRAM[2]), 

    coord@x	PTR unsigned short  size(2) Largest target is 2
		 -> cord_x(COMRAM[2]), 

    coord@P2	PTR unsigned char  size(2) Largest target is 1
		 -> Par2(COMRAM[1]), 

    coord@L	PTR unsigned char  size(2) Largest target is 1
		 -> letter(COMRAM[1]), 

    coord@P1	PTR unsigned char  size(2) Largest target is 1
		 -> Par1(COMRAM[1]), 


Critical Paths under _main in COMRAM

    _main->_verification
    _start->_myPrintf
    _end->_myPrintf
    _cmd->_coord
    _coord->_UARTRead
    _Par_Validated->_myPrintf
    _Ins_Validated->_myPrintf
    _Coord_Validated->_myPrintf
    _PrintMyActulPosition->___lwdiv
    ___lwdiv->___lwmod
    _Movement->_myPrintf
    _myPrintf->_UARTWrite
    _PWM->___wmul
    _Configuracion->_UARTConfi
    _UARTConfi->___aldiv

Critical Paths under _INT_ISR in COMRAM

    _GoToInitialYPosition->i2_ContarPulsos
    _GoToInitialXPosition->i2_ContarPulsos

Critical Paths under _main in BANK0

    None.

Critical Paths under _INT_ISR in BANK0

    None.

Critical Paths under _main in BANK1

    None.

Critical Paths under _INT_ISR in BANK1

    None.

Critical Paths under _main in BANK2

    None.

Critical Paths under _INT_ISR in BANK2

    None.

Critical Paths under _main in BANK3

    None.

Critical Paths under _INT_ISR in BANK3

    None.

Critical Paths under _main in BANK4

    None.

Critical Paths under _INT_ISR in BANK4

    None.

Critical Paths under _main in BANK5

    None.

Critical Paths under _INT_ISR in BANK5

    None.

Critical Paths under _main in BANK6

    None.

Critical Paths under _INT_ISR in BANK6

    None.

Critical Paths under _main in BANK7

    None.

Critical Paths under _INT_ISR in BANK7

    None.

Call Graph Tables:

 ---------------------------------------------------------------------------------
 (Depth) Function   	        Calls       Base Space   Used Autos Params    Refs
 ---------------------------------------------------------------------------------
 (0) _main                                                 0     0      0   13967
                      _Configuracion
                           _Movement
               _PrintMyActulPosition
                           _myPrintf
                       _verification
 ---------------------------------------------------------------------------------
 (1) _verification                                         2     2      0    8028
                                             33 COMRAM     2     2      0
                    _Coord_Validated
                      _Ins_Validated
                      _Par_Validated
                                _cmd
                                _end
                              _start
 ---------------------------------------------------------------------------------
 (2) _start                                                0     0      0    1166
                          _UARTWrite
                           _myPrintf
 ---------------------------------------------------------------------------------
 (2) _end                                                  0     0      0    1166
                          _UARTWrite
                           _myPrintf
 ---------------------------------------------------------------------------------
 (2) _cmd                                                  0     0      0    2198
                          _UARTWrite
                              _coord
                           _myPrintf
 ---------------------------------------------------------------------------------
 (3) _coord                                               29    19     10    1032
                                              4 COMRAM    29    19     10
                           _UARTRead
 ---------------------------------------------------------------------------------
 (4) _UARTRead                                             1     1      0      15
                                              3 COMRAM     1     1      0
 ---------------------------------------------------------------------------------
 (2) _Par_Validated                                        0     0      0    1166
                          _UARTWrite
                           _myPrintf
 ---------------------------------------------------------------------------------
 (2) _Ins_Validated                                        0     0      0    1166
                          _UARTWrite
                           _myPrintf
 ---------------------------------------------------------------------------------
 (2) _Coord_Validated                                      0     0      0    1166
                          _UARTWrite
                           _myPrintf
 ---------------------------------------------------------------------------------
 (1) _PrintMyActulPosition                                12    12      0    2189
                                             15 COMRAM    12    12      0
                          _UARTWrite
                            ___lwdiv
                            ___lwmod
 ---------------------------------------------------------------------------------
 (2) ___lwmod                                              5     1      4    1071
                                              3 COMRAM     5     1      4
 ---------------------------------------------------------------------------------
 (2) ___lwdiv                                              7     3      4     770
                                              8 COMRAM     7     3      4
                            ___lwmod (ARG)
 ---------------------------------------------------------------------------------
 (1) _Movement                                             2     2      0    1881
                                              9 COMRAM     2     2      0
                                _PWM
                           _myPrintf
 ---------------------------------------------------------------------------------
 (3) _myPrintf                                             5     3      2    1144
                                              4 COMRAM     5     3      2
                          _UARTWrite
 ---------------------------------------------------------------------------------
 (4) _UARTWrite                                            1     1      0      22
                                              3 COMRAM     1     1      0
 ---------------------------------------------------------------------------------
 (2) _PWM                                                  0     0      0     737
                       _ContarPulsos
                             ___wmul
 ---------------------------------------------------------------------------------
 (3) ___wmul                                               6     2      4     463
                                              3 COMRAM     6     2      4
 ---------------------------------------------------------------------------------
 (3) _ContarPulsos                                         2     0      2     274
                                              3 COMRAM     2     0      2
                            _OneShot
                       _ResetOneShot
 ---------------------------------------------------------------------------------
 (4) _ResetOneShot                                         0     0      0       0
 ---------------------------------------------------------------------------------
 (4) _OneShot                                              0     0      0       0
 ---------------------------------------------------------------------------------
 (1) _Configuracion                                        0     0      0     725
                          _UARTConfi
 ---------------------------------------------------------------------------------
 (2) _UARTConfi                                            6     4      2     725
                                             17 COMRAM     6     4      2
                            ___aldiv
 ---------------------------------------------------------------------------------
 (3) ___aldiv                                             14     6      8     604
                                              3 COMRAM    14     6      8
 ---------------------------------------------------------------------------------
 Estimated maximum stack depth 4
 ---------------------------------------------------------------------------------
 (Depth) Function   	        Calls       Base Space   Used Autos Params    Refs
 ---------------------------------------------------------------------------------
 (5) _INT_ISR                                              1     1      0     170
                                              2 COMRAM     1     1      0
               _GoToInitialXPosition
               _GoToInitialYPosition
                        i2_UARTWrite
 ---------------------------------------------------------------------------------
 (6) i2_UARTWrite                                          1     1      0      22
                                              0 COMRAM     1     1      0
 ---------------------------------------------------------------------------------
 (6) _GoToInitialYPosition                                 0     0      0      74
                     i2_ContarPulsos
 ---------------------------------------------------------------------------------
 (6) _GoToInitialXPosition                                 0     0      0      74
                     i2_ContarPulsos
 ---------------------------------------------------------------------------------
 (7) i2_ContarPulsos                                       2     0      2      74
                                              0 COMRAM     2     0      2
                          i2_OneShot
                     i2_ResetOneShot
 ---------------------------------------------------------------------------------
 (8) i2_ResetOneShot                                       0     0      0       0
 ---------------------------------------------------------------------------------
 (8) i2_OneShot                                            0     0      0       0
 ---------------------------------------------------------------------------------
 Estimated maximum stack depth 8
 ---------------------------------------------------------------------------------

 Call Graph Graphs:

 _main (ROOT)
   _Configuracion
     _UARTConfi
       ___aldiv
   _Movement
     _PWM
       _ContarPulsos
         _OneShot
         _ResetOneShot
       ___wmul
     _myPrintf
       _UARTWrite
   _PrintMyActulPosition
     _UARTWrite
     ___lwdiv
       ___lwmod (ARG)
     ___lwmod
   _myPrintf
     _UARTWrite
   _verification
     _Coord_Validated
       _UARTWrite
       _myPrintf
         _UARTWrite
     _Ins_Validated
       _UARTWrite
       _myPrintf
         _UARTWrite
     _Par_Validated
       _UARTWrite
       _myPrintf
         _UARTWrite
     _cmd
       _UARTWrite
       _coord
         _UARTRead
       _myPrintf
         _UARTWrite
     _end
       _UARTWrite
       _myPrintf
         _UARTWrite
     _start
       _UARTWrite
       _myPrintf
         _UARTWrite

 _INT_ISR (ROOT)
   _GoToInitialXPosition
     i2_ContarPulsos
       i2_OneShot
       i2_ResetOneShot
   _GoToInitialYPosition
     i2_ContarPulsos
       i2_OneShot
       i2_ResetOneShot
   i2_UARTWrite

 Address spaces:
Name               Size   Autos  Total    Cost      Usage
BIGRAM             7FF      0       0      21        0.0%
EEDATA             100      0       0       0        0.0%
BITBANK7           100      0       0      18        0.0%
BANK7              100      0       0      19        0.0%
BITBANK6           100      0       0      16        0.0%
BANK6              100      0       0      17        0.0%
BITBANK5           100      0       0      14        0.0%
BANK5              100      0       0      15        0.0%
BITBANK4           100      0       0      12        0.0%
BANK4              100      0       0      13        0.0%
BITBANK3           100      0       0      10        0.0%
BANK3              100      0       0      11        0.0%
BITBANK2           100      0       0       8        0.0%
BANK2              100      0       0       9        0.0%
BITBANK1           100      0       0       6        0.0%
BANK1              100      0       0       7        0.0%
BITBANK0            A0      0       0       4        0.0%
BANK0               A0      0       0       5        0.0%
BITCOMRAM           5E      0       0       0        0.0%
COMRAM              5E     23      42       1       70.2%
BITSFR               0      0       0     200        0.0%
SFR                  0      0       0     200        0.0%
STACK                0      0       0       2        0.0%
NULL                 0      0       0       0        0.0%
ABS                  0      0      42      20        0.0%
DATA                 0      0      42       3        0.0%
CODE                 0      0       0       0        0.0%


Microchip Technology PIC18 Macro Assembler V2.10 build 88905656 
Symbol Table                                                                                   Wed Dec 11 03:13:53 2019

                           l45 16A0                             l54 151A                             l70 161A  
                           l49 1200                             l66 14DA                             l59 1492  
                           u20 1680                             u21 167C                             u30 152E  
                           u31 152A                             u40 1540                             u41 153C  
                           u50 158E                             u51 158A                             u60 15A0  
                           u61 159C                    __CFG_BOR$ON 000000            ___wmul@multiplicand 0006  
                  __CFG_BORV$3 000000               ??i2_ContarPulsos 0003                   __CFG_CP0$OFF 000000  
                 __CFG_CP1$OFF 000000                   __CFG_CP2$OFF 000000                   __CFG_CP3$OFF 000000  
                          l123 1194                            l132 1672                            l126 16A4  
                          l134 1680                            l135 168A                            l129 16B6  
                          l190 09CA                            l351 0B5C                            l511 126C  
                          l360 0C20                            l193 0A86                            l185 0942  
                          l273 0EC6                            l354 0B86                            l290 0D98  
                          l274 0EE4                            l371 1532                            l355 0BAC  
                          l347 0AC2                            l372 154C                            l364 13A8  
                          l348 0AE8                            l461 101C                            l277 0F12  
                          l278 0F30                            l367 13E6                            l376 1592  
                          l368 13EA                            l641 138E                            l377 15A8  
                          l297 1330                            l723 0EA4                            l644 15F8  
                 __CFG_CPB$OFF 000000                            _PR2 000FCB                   __CFG_CPD$OFF 000000  
                          u800 09C8                            u801 09C4                            u730 16B2  
                          u810 09DC                            u731 16AE                            u811 09D8  
                          u900 0E52                            u740 12FE                            u820 09EE  
                          u901 0E4E                            u741 12FA                            u821 09EA  
                          u910 0E84                            u830 13B6                            u750 1330  
                          u911 0E80                            u831 13B2                            u751 132C  
                          u840 13CC                            u760 0920                            u920 11E6  
                          u841 13C8                            u761 091C                            u921 11E2  
                          u850 13E6                            u930 14EE                            u770 0942  
                          u851 13E2                            u931 14EA                            u771 093E  
                          u860 0DAC                            u940 1500                            u780 0950  
                          u861 0DA8                            u941 14FC                            u781 094C  
                          u870 0DCE                            u950 145A                            u790 09AC  
                          u871 0DCA                            u951 1456                            u791 09A8  
                          u880 0E08                            u960 1476                            u881 0E04  
                          u961 1472                            u890 0E2A                            u970 14AA  
                          u891 0E26                            u971 14A6                            u980 14C0  
                          u981 14BC                            u990 0AAA                            u991 0AA6  
                          _PWM 0A88                 ??_ContarPulsos 0006         __end_ofi2_ResetOneShot 15D4  
                          _cmd 1196                            _end 15FA                            _ons 002C  
               _FlagDirectionX 0026                 _FlagDirectionY 0024                            wreg 000FE8  
                   _TXSTA1bits 000FAC                   __CFG_LVP$OFF 000000                           ?_PWM 0001  
                  coord@buffer 0013                   __CFG_WDT$OFF 000000                           l2001 0926  
                         l2003 0950                           l2011 0968                           l2101 0E6E  
                         l2013 0974                           l2005 0954                           l1142 1122  
                         l2103 0E74                           l1135 111A                           l2031 09DC  
                         l2023 0990                           l2015 0980                           l2007 0964  
                         l2111 168C                           l1152 12D0                           l2105 0E84  
                         l1145 12C8                           l1321 1672                           l2041 09FE  
                         l2033 09EE                           l2025 09AC                           l2017 098C  
                         l2009 0966                           l2121 119C                           l2113 1692  
                         l2107 0E94                           l1331 1540                           l2051 13A2  
                         l1323 1684                           l2043 0A7E                           l2035 09F2  
                         l2027 09C8                           l2131 11EC                           l2123 11A8  
                         l2203 15FA                           l2115 169E                           l2221 118A  
                         l2213 1124                           l1333 1544                           l1341 15A0  
                         l2053 13B6                           l2061 15D4                           l2301 110C  
                         l2141 14EE                           l2029 09CC                           l2133 11F8  
                         l2125 11E6                           l2205 1600                           l2071 0DAC  
                         l2223 118C                           l2215 1128                           l1327 151C  
                         l2055 13BA                           l2047 1390                           l2063 15F0  
                         l2231 0A88                           l2303 110E                           l2311 1288  
                         l2151 1512                           l2143 1500                           l2039 09FE  
                         l2135 11FE                           l2119 1196                           l2207 160C  
                         l2081 0DE2                           l2073 0DBC                           l2225 118E  
                         l2217 1186                           l1337 1580                           l2057 13CC  
                         l2049 13A0                           l2241 0AD4                           l2233 0A98  
                         l2305 1114                           l2321 12C2                           l2313 1290  
                         l2161 145E                           l2153 1518                           l2209 1612  
                         l2401 0FB8                           ?_cmd 0001                           l2091 0E2A  
                         l2083 0DF2                           l2075 0DC0                           l2067 0D9A  
                         l2227 1190                           l2219 1188                           l2059 13D0  
                         l2251 0B1C                           l2243 0ADC                           l2235 0AAA  
                         l2315 129E                           l2307 126E                           l2139 14DC  
                         l2093 0E34                           l2085 0E08                           l2077 0DCE  
                         l2069 0D9E                           l2229 1192                           l2261 0B7A  
                         l2253 0B2E                           l2245 0AEC                           l2237 0AB6  
                         l2317 12B4                           l2309 1280                           l2421 0D26  
                         l2413 0C22                           l2181 1490                           l2157 1448  
                         l2149 1506                           l2405 0FC0                           l2501 0EB2  
                         l2095 0E52                           l2087 0E10                           l2079 0DDE  
                         l2271 0BB8                           l2263 0B94                           l2255 0B3E  
                         l2247 0AF4                           l2239 0AD0                           l2319 12BC  
                         l2423 0D38                           l2415 0D1E                           l2159 145A  
                         l2167 1464                           l2407 100A                           l2511 0ECA  
                         l2503 0EBA                           l2097 0E62                           l2089 0E1C  
                         l2361 1338                           l2281 0C14                           l2273 0BD4  
                         l2265 0B98                           l2257 0B50                           l2249 0B10  
                         l2441 1202                           l2425 0D3C                           l2185 1494  
                         l2169 1476                           l2177 147E                           l2521 0F0C  
                         l2513 0ED6                           l2505 0EBC                           l2099 0E64  
                         l2371 1374                           l2363 135E                           l2275 0BE0  
                         l2267 0BA0                           l2259 0B6E                           l2451 1230  
                         l2443 1212                           l2291 10D2                           l2435 0D66  
                         l2427 0D58                           l2187 14AA                           l2195 14C6  
                         l2179 148A                           l2531 0F56                           l2523 0F16  
                         l2515 0EF6                           l2507 0EBE                           ?_end 0001  
                         l2381 1388                           l2373 1378                           l2365 1360  
                         l2357 1332                           l2277 0BF2                           l2269 0BB0  
                         l2461 1258                           l2445 1216                           l2453 1240  
                         l2293 10DA                           l2285 10B0                           l2437 0D78  
                         l2429 0D5E                           l2197 14D2                           l2189 14C0  
                         l2533 0F5E                           l2525 0F22                           l2517 0EFE  
                         l2509 0EC0                           l2383 138C                           l2375 137C  
                         l2367 136C                           l2359 1336                           l2279 0C02  
                         l2455 1250                           l2463 1264                           l2447 1218  
                         l2295 10E8                           l2287 10B8                           l2439 0D7C  
                         l2199 14D8                           l2391 0F88                           l2535 0F62  
                         l2527 0F42                           l2519 0F0A                           l2377 1380  
                         l2369 1370                           l2457 1252                           l2449 122E  
                         l2297 10EE                           l2289 10CA                           l2545 0FD4  
                         l2393 0F92                           l2537 0F66                           l2529 0F4A  
                         l2379 1384                           l2459 1256                           l2299 1104  
                         l2395 0F9C                           l2387 0F76                           l2539 0F6A  
                         l2397 0FA6                           l2389 0F7E                           l2399 0FB0  
                         l1961 16A4                           l2497 0EA6                           l1963 16B2  
                         l1971 12D6                           l2499 0EAA                           l1981 1320  
                         l1965 12D2                           l1991 08F6                           l1983 08E8  
                         l1977 1302                           l1993 08FC                           l1985 08EC  
                         l1979 131E                           l1995 090C                           l1997 0920  
                         l1999 0922                           STR_1 08CF                           STR_2 0891  
                         STR_3 0848                           STR_4 0826                           STR_5 0801  
                         STR_6 0865                           STR_7 0880                           STR_8 089F  
                         STR_9 08B9                           u1000 0AD0                           u1001 0ACC  
                         u1010 0B2E                           u1011 0B2A                           u1020 0B50  
                         u1100 1280                           u1021 0B4C                           u1101 127C  
                         u1030 0B6E                           u1110 129E                           u1031 0B6A  
                         u1111 129A                           u1040 0B94                           u1200 1250  
                         u1120 12B4                           u1041 0B90                           u1201 124C  
                         u1121 12B0                           u1050 0BF2                           u1051 0BEE  
                         u1060 0C14                           u1300 0F30                           u1061 0C10  
                         u1301 0F2C                           u1070 10CA                           u1310 0F42  
                         u1071 10C6                           u1311 0F3E                           u1080 10E8  
                         u1160 101C                           u1081 10E4                           u1161 1018  
                         u1090 1104                           u1170 0D58                           u1091 1100  
                         u1171 0D54                           u1180 0D98                           u1181 0D94  
                         u1190 1212                           _LATB 000F8A                __end_of_INT_ISR 10B0  
                         u1191 120E                           u1327 095A                           _LATC 000F8B  
                         u1280 0EE4                           _LATD 000F8C                           u1337 1222  
                         u1281 0EE0                           u1290 0EF6                           u1291 0EF2  
                         _TMR2 000FCC                           _Par1 003E                           _Par2 003C  
                         _main 0EA6                           fsr2h 000FDA                           indf2 000FDF  
                         fsr2l 000FD9                           btemp 0043              ??_Coord_Validated 000A  
                         prodh 000FF4                           prodl 000FF3                           start 000E  
                __CFG_IESO$OFF 000000                  __CFG_MCLRE$ON 000000                   ___param_bank 000000  
                        ??_PWM 000A                __end_of_OneShot 154E                  _Ins_Validated 1448  
                        ??_cmd 0022                          ??_end 000A                 __CFG_CCP2MX$ON 000000  
              __end_of___aldiv 0EA6                          ?_main 0001                          STR_10 08AC  
                        STR_11 08C4                          STR_12 08E0                          STR_13 08DA  
                        _CMCON 000FB4                          _T2CON 000FCA                __end_of___lwdiv 1124  
              __end_of___lwmod 12D2                          i2l126 16BA                          i2l129 16CC  
                        i2l261 1066                          i2l371 1564                          i2l267 10AC  
                        i2l372 157E                          i2l364 1404                          i2l367 1442  
                        i2l376 15BC                          i2l368 1446                          i2l377 15D2  
                        i2l395 1656                          i2l398 1638                          _RCREG 000FAE  
                _Par_Validated 14DC                          _SPBRG 000FAF                          _PORTB 000F81  
                        _PORTC 000F82                          _PORTD 000F83                ?i2_ResetOneShot 0001  
                        _TRISB 000F93                          _TRISC 000F94                          _TRISD 000F95  
                        _TXREG 000FAD                  __CFG_PWRT$OFF 000000                  __CFG_WRT0$OFF 000000  
                __CFG_WRT1$OFF 000000                  __CFG_WRT2$OFF 000000                  __CFG_WRT3$OFF 000000  
           __size_of_UARTConfi 0072                 __CFG_EBTR0$OFF 000000                 __CFG_FCMEN$OFF 000000  
               __CFG_EBTR1$OFF 000000                 __CFG_EBTR2$OFF 000000                 __CFG_EBTR3$OFF 000000  
             __end_of_UARTRead 168C                  __CFG_WRTB$OFF 000000                  __CFG_WRTC$OFF 000000  
                __CFG_WRTD$OFF 000000             __size_of_UARTWrite 0016                 __CFG_EBTRB$OFF 000000  
                  _ActualSteps 002E                          _click 0032                          _coord 08E8  
                        _start 168C             __size_ofi2_OneShot 0032                          tablat 000FF5  
                        ttemp5 0044                          ttemp6 0047                          ttemp7 004B  
                        status 000FD8                          wtemp8 0044                 __CFG_ICPRT$OFF 000000  
               __CFG_PBADEN$ON 000000                __initialization 1658                   __end_of_main 0F76  
               ?_Ins_Validated 0001                   ?i2_UARTWrite 0001                         ??_main 0024  
               ?_Par_Validated 0001                  __activetblptr 000002               __end_of_Movement 126E  
                    ??_INT_ISR 0003  __size_of_GoToInitialXPosition 001E                         _ADCON1 000FC1  
                       ?_coord 0005  __size_of_GoToInitialYPosition 001E                         _CCPR1L 000FBE  
                       _CCPR2L 000FBB                         ?_start 0001                         i2l1501 15AA  
                       i2l1505 15CA                         i2l2331 1416                         i2l2323 13EC  
                       i2l2333 1428                         i2l2325 13FC                         i2l2341 164A  
                       i2l2335 142C                         i2l2327 13FE                         i2l2343 164C  
                       i2l2351 162C                         i2l2329 1412                         i2l2345 164E  
                       i2l2337 163A                         i2l2353 162E                         i2l1491 154E  
                       i2l2339 163E                         i2l2355 1630                         i2l2347 161C  
                       i2l2349 1620                         i2l1495 1572                         i2l2471 1020  
                       i2l1497 1576                         i2l2481 1056                         i2l2473 102E  
                       i2l2467 16BA                         i2l2491 108C                         i2l2483 1064  
                       i2l2475 1034                         i2l2469 16C8                         i2l2493 109C  
                       i2l2485 1074                         i2l2477 1038                         i2l2495 10AA  
                       i2l2487 107A                         i2l2479 1046                         i2l2489 107E  
                       _OSCCON 000FD3                         _TMR2ON 007E52                i2UARTWrite@data 0001  
                    ??_OneShot 0004           __end_of_ContarPulsos 13EC                 __CFG_XINST$OFF 000000  
            __end_of_UARTConfi 1196                    _CoordRelatX 0036                    _CoordRelatY 0034  
                    ??___aldiv 000C              __end_of_UARTWrite 16B8                         ___wmul 15D4  
               __CFG_STVREN$ON 000000                      ??___lwdiv 000D                      ??___lwmod 0008  
                       _cord_x 003A                         _cord_y 0038                         _letter 003D  
                       clear_0 165E              __end_ofi2_OneShot 1580                         coord@L 0007  
                       coord@i 001F                         coord@n 0021                         coord@x 0009  
                       coord@y 000B               __end_of_myPrintf 1332                   __mediumconst 0000  
                       tblptrh 000FF7                         tblptrl 000FF6   __end_of_PrintMyActulPosition 0D9A  
                       tblptru 000FF8                     __accesstop 0060        __end_of__initialization 1664  
                ___rparam_used 000001                ??_Ins_Validated 000A                 __pcstackCOMRAM 0001  
                    ?_UARTRead 0001                  __end_of_coord 0A88                  __end_of_start 16A2  
              ??_Par_Validated 000A                  ?_ResetOneShot 0001           coord@counterRevision 001E  
               _UARTConfi$2004 0014                _Coord_Validated 1494                        ??_coord 000F  
                      ??_start 000A          __end_of_Configuracion 1390                     __pnvCOMRAM 003F  
                    ?_Movement 0001                        ?___wmul 0004                     ??_UARTRead 0004  
                      _CCP1CON 000FBD                        _CCP2CON 000FBA               ??i2_ResetOneShot 0001  
               ??_ResetOneShot 0004           __size_ofi2_UARTWrite 0016                        _INT_ISR 0008  
                      i2u25_40 1560                        i2u25_41 155C                        i2u26_40 1572  
                      i2u26_41 156E                        i2u27_40 15B8                        i2u27_41 15B4  
                      i2u28_40 15CA                        i2u28_41 15C6          __size_of_ContarPulsos 005C  
              __CFG_VREGEN$OFF 000000                        _OneShot 151C                      ?_myPrintf 0005  
                      __Hparam 0000                        __Lparam 0000                     ??_Movement 000A  
         _PrintMyActulPosition 0C22                        ___aldiv 0D9A                __size_of___wmul 0026  
                      ___lwdiv 10B0                        ___lwmod 126E                   __psmallconst 0800  
                      __pcinit 1658                        __ramtop 0800                        __ptext0 0EA6  
                      __ptext1 0F76                        __ptext2 168C                        __ptext3 15FA  
                      __ptext4 1196                        __ptext5 08E8                        __ptext6 1672  
                      __ptext7 14DC                        __ptext8 1448                        __ptext9 1494  
      __end_of_Coord_Validated 14DC                   __size_of_PWM 019A                   __size_of_cmd 006C  
                 __size_of_end 0022                   _ContarPulsos 1390               ___aldiv@dividend 0004  
                      coord@P1 0005                        coord@P2 000D        __size_ofi2_ContarPulsos 005C  
               __pintcode_body 101E           end_of_initialization 1664                  __Lmediumconst 0000  
                      int_func 101E                     ??_myPrintf 0007   __end_of_GoToInitialXPosition 1658  
        ?_PrintMyActulPosition 0001   __end_of_GoToInitialYPosition 163A                      _RCSTAbits 000FAB  
             ___aldiv@quotient 000E                        postdec2 000FDD                        postinc0 000FEE  
                      postinc2 000FDE                      _UARTConfi 1124                      _UARTWrite 16A2  
                    _PORTBbits 000F81                      _PORTCbits 000F82                      _PORTDbits 000F83  
    _PrintMyActulPosition$2005 0016                      i2_OneShot 154E                UARTRead@Lecture 0004  
                    _TRISCbits 000F94                  ?_verification 0001            i2ContarPulsos@pasos 0001  
                    _TXSTAbits 000FAC           __end_of_ResetOneShot 15AA            myPrintf@PointString 0005  
                   ?_UARTConfi 0012                 __end_of___wmul 15FA                      _CoordAntX 0041  
                    _CoordAntY 003F              __size_of_UARTRead 001A                     ?_UARTWrite 0001  
             ?_Coord_Validated 0001                     ?i2_OneShot 0001            start_initialization 1658  
                  __end_of_PWM 0C22                    __end_of_cmd 1202                    __end_of_end 161C  
               ??_verification 0022                  UARTConfi@BAUD 0012                      _NextState 0033  
       ??_PrintMyActulPosition 0010          __end_of_Ins_Validated 1494                       ??___wmul 0008  
            __size_of_Movement 006C               __CFG_LPT1OSC$OFF 000000          __end_of_Par_Validated 151C  
                  __pbssCOMRAM 0024                       ?_INT_ISR 0001           _GoToInitialXPosition 163A  
               i2_ContarPulsos 13EC           _GoToInitialYPosition 161C        _ControlFlagVerification 0030  
                     ?_OneShot 0001               ___lwdiv@dividend 0009                      __pintcode 0008  
            __size_of_myPrintf 0060                       ?___aldiv 0004      PrintMyActulPosition@i_811 001A  
                     ?___lwdiv 0009                       ?___lwmod 0004                    ??_UARTConfi 0014  
                ??i2_UARTWrite 0001                    ??_UARTWrite 0004         __size_of_Configuracion 005E  
                  __smallconst 0800                    ??i2_OneShot 0001         __end_ofi2_ContarPulsos 1448  
        ?_GoToInitialXPosition 0001          ?_GoToInitialYPosition 0001               ___lwdiv@quotient 000D  
               __size_of_coord 01A0          __size_of_ResetOneShot 002A                 __size_of_start 0016  
              ___aldiv@divisor 0008                ___aldiv@counter 000C                 ___wmul@product 0008  
                     i2u113_40 1412                       i2u121_40 16C8                       i2u113_41 140E  
                     i2u121_41 16C4                       i2u114_40 1428                       i2u122_40 102E  
                     i2u114_41 1424                       i2u122_41 102A                       i2u115_40 1442  
                     i2u123_40 1046                       i2u115_41 143E                       i2u123_41 1042  
                     i2u124_40 1064                       i2u124_41 1060                       i2u125_40 1074  
                     i2u125_41 1070                       i2u126_40 108C                       i2u126_41 1088  
                     i2u134_47 104C                       i2u127_40 10AA                       i2u127_41 10A6  
                     i2u135_47 1092                       _PIR1bits 000F9E                       _RCONbits 000FD0  
             __CFG_WDTPS$32768 000000                       _UARTRead 1672           __end_of_verification 101E  
            ___wmul@multiplier 0004          PrintMyActulPosition@a 0010          PrintMyActulPosition@b 0013  
        PrintMyActulPosition@i 0018                   _ResetOneShot 1580                      coord@read 001C  
              ?i2_ContarPulsos 0001            __end_ofi2_UARTWrite 16CE               __size_of_INT_ISR 10A8  
      __size_ofi2_ResetOneShot 002A                  UARTWrite@data 0004                    _INTCON2bits 000FF1  
                  _INTCON3bits 000FF0                  _Configuracion 1332                       __Hrparam 0000  
             __size_of_OneShot 0032                       _Movement 1202                       __Lrparam 0000  
             __size_of___aldiv 010C                       _StepsOnX 002A                       _StepsOnY 0028  
             __size_of___lwdiv 0074               __size_of___lwmod 0064              ContarPulsos@pasos 0004  
       ??_GoToInitialXPosition 0003         ??_GoToInitialYPosition 0003                ___lwdiv@divisor 000B  
              ___lwdiv@counter 000F                      myPrintf@i 0009                       __ptext10 0C22  
                     __ptext11 126E                       __ptext20 151C                       __ptext12 10B0  
                     __ptext21 1332                       __ptext13 1202                       __ptext30 154E  
                     __ptext22 1124                       __ptext14 12D2                       __ptext23 0D9A  
                     __ptext15 16A2                       __ptext16 0A88                       __ptext25 16B8  
                     __ptext17 15D4                       __ptext26 161C                       __ptext18 1390  
                     __ptext27 163A                       __ptext19 1580                       __ptext28 13EC  
                     __ptext29 15AA                 ?_Configuracion 0001                  __size_of_main 00D0  
                     _myPrintf 12D2                     _CVRCONbits 000FB5                       int$flags 0043  
                  i2_UARTWrite 16B8                     _INTCONbits 000FF2       __size_of_Coord_Validated 0048  
                     intlevel2 0000               ___lwmod@dividend 0004                     _RCSTA1bits 000FAB  
        __size_of_verification 00A8  __size_of_PrintMyActulPosition 0178            __CFG_FOSC$INTOSC_EC 000000  
              ___lwmod@divisor 0006                  ?_ContarPulsos 0004                ___lwmod@counter 0008  
                 ___aldiv@sign 000D                 i2_ResetOneShot 15AA                ??_Configuracion 0018  
       __size_of_Ins_Validated 004C                   _verification 0F76         __size_of_Par_Validated 0040  
