

Microchip MPLAB XC8 Assembler V2.10 build 88905656 
                                                                                               Wed Dec 11 12:37:45 2019

Microchip MPLAB XC8 C Compiler v2.10 (Free license) build 20190730164152 Og1 
     1                           	processor	18F4550
     2                           	fnconf	rparam,??,?,0
     3                           	opt	pw 120
     4                           	opt	flic
     5                           	psect	nvCOMRAM,global,class=COMRAM,space=1,delta=1,noexec
     6                           	psect	smallconst,global,reloc=2,class=SMALLCONST,delta=1,noexec
     7                           	psect	cinit,global,reloc=2,class=CODE,delta=1
     8                           	psect	bssCOMRAM,global,class=COMRAM,space=1,delta=1,noexec
     9                           	psect	cstackCOMRAM,global,class=COMRAM,space=1,delta=1,noexec
    10                           	psect	text0,global,reloc=2,class=CODE,delta=1
    11                           	psect	text1,global,reloc=2,class=CODE,delta=1
    12                           	psect	text2,global,reloc=2,class=CODE,delta=1
    13                           	psect	text3,global,reloc=2,class=CODE,delta=1
    14                           	psect	text4,global,reloc=2,class=CODE,delta=1
    15                           	psect	text5,global,reloc=2,class=CODE,delta=1
    16                           	psect	text6,global,reloc=2,class=CODE,delta=1
    17                           	psect	text7,global,reloc=2,class=CODE,delta=1
    18                           	psect	text8,global,reloc=2,class=CODE,delta=1
    19                           	psect	text9,global,reloc=2,class=CODE,delta=1
    20                           	psect	text10,global,reloc=2,class=CODE,delta=1
    21                           	psect	text11,global,reloc=2,class=CODE,delta=1
    22                           	psect	text12,global,reloc=2,class=CODE,delta=1,group=1
    23                           	psect	text13,global,reloc=2,class=CODE,delta=1,group=1
    24                           	psect	text14,global,reloc=2,class=CODE,delta=1
    25                           	psect	text15,global,reloc=2,class=CODE,delta=1
    26                           	psect	text16,global,reloc=2,class=CODE,delta=1
    27                           	psect	text17,global,reloc=2,class=CODE,delta=1
    28                           	psect	text18,global,reloc=2,class=CODE,delta=1,group=1
    29                           	psect	text19,global,reloc=2,class=CODE,delta=1
    30                           	psect	text20,global,reloc=2,class=CODE,delta=1
    31                           	psect	text21,global,reloc=2,class=CODE,delta=1
    32                           	psect	text22,global,reloc=2,class=CODE,delta=1
    33                           	psect	text23,global,reloc=2,class=CODE,delta=1
    34                           	psect	text24,global,reloc=2,class=CODE,delta=1
    35                           	psect	text25,global,reloc=2,class=CODE,delta=1,group=1
    36                           	psect	intsave_regs,global,class=BIGRAM,space=1,delta=1,noexec
    37                           	psect	rparam,global,class=COMRAM,space=1,delta=1,noexec
    38  0000                     
    39                           ; Version 2.10
    40                           ; Generated 31/07/2019 GMT
    41                           ; 
    42                           ; Copyright © 2019, Microchip Technology Inc. and its subsidiaries ("Microchip")
    43                           ; All rights reserved.
    44                           ; 
    45                           ; This software is developed by Microchip Technology Inc. and its subsidiaries ("Microch
      +                          ip").
    46                           ; 
    47                           ; Redistribution and use in source and binary forms, with or without modification, are
    48                           ; permitted provided that the following conditions are met:
    49                           ; 
    50                           ;     1. Redistributions of source code must retain the above copyright notice, this lis
      +                          t of
    51                           ;        conditions and the following disclaimer.
    52                           ; 
    53                           ;     2. Redistributions in binary form must reproduce the above copyright notice, this 
      +                          list
    54                           ;        of conditions and the following disclaimer in the documentation and/or other
    55                           ;        materials provided with the distribution.
    56                           ; 
    57                           ;     3. Microchip's name may not be used to endorse or promote products derived from th
      +                          is
    58                           ;        software without specific prior written permission.
    59                           ; 
    60                           ; THIS SOFTWARE IS PROVIDED BY MICROCHIP "AS IS" AND ANY EXPRESS OR IMPLIED WARRANTIES,
    61                           ; INCLUDING, BUT NOT LIMITED TO, THE IMPLIED WARRANTIES OF MERCHANTABILITY AND FITNESS F
      +                          OR
    62                           ; PURPOSE ARE DISCLAIMED.  IN NO EVENT SHALL MICROCHIP BE LIABLE FOR ANY DIRECT, INDIREC
      +                          T,
    63                           ; INCIDENTAL, SPECIAL, EXEMPLARY, OR CONSEQUENTIAL DAMAGES (INCLUDING BUT NOT LIMITED TO
    64                           ; PROCUREMENT OF SUBSTITUTE GOODS OR SERVICES; LOSS OF USE, DATA OR PROFITS; OR BUSINESS
    65                           ; INTERRUPTION) HOWSOEVER CAUSED AND ON ANY THEORY OF LIABILITY, WHETHER IN CONTRACT, ST
      +                          RICT
    66                           ; LIABILITY, OR TORT (INCLUDING NEGLIGENCE OR OTHERWISE) ARISING IN ANY WAY OUT OF THE U
      +                          SE OF
    67                           ; THIS SOFTWARE, EVEN IF ADVISED OF THE POSSIBILITY OF SUCH DAMAGE.
    68                           ; 
    69                           ; 
    70                           ; Code-generator required, PIC18F4550 Definitions
    71                           ; 
    72                           ; SFR Addresses
    73  0000                     
    74                           	psect	nvCOMRAM
    75  00003C                     __pnvCOMRAM:
    76                           	opt callstack 0
    77  00003C                     _CoordAntY:
    78                           	opt callstack 0
    79  00003C                     	ds	2
    80  00003E                     _CoordAntX:
    81                           	opt callstack 0
    82  00003E                     	ds	2
    83  0000                     _TMR2	set	4044
    84  0000                     _T2CON	set	4042
    85  0000                     _CCPR2L	set	4027
    86  0000                     _CCP2CON	set	4026
    87  0000                     _CCPR1L	set	4030
    88  0000                     _CCP1CON	set	4029
    89  0000                     _PR2	set	4043
    90  0000                     _TRISB	set	3987
    91  0000                     _LATB	set	3978
    92  0000                     _PORTB	set	3969
    93  0000                     _TRISC	set	3988
    94  0000                     _LATC	set	3979
    95  0000                     _PORTC	set	3970
    96  0000                     _TRISD	set	3989
    97  0000                     _LATD	set	3980
    98  0000                     _PORTD	set	3971
    99  0000                     _ADCON1	set	4033
   100  0000                     _CVRCONbits	set	4021
   101  0000                     _CMCON	set	4020
   102  0000                     _OSCCON	set	4051
   103  0000                     _PORTCbits	set	3970
   104  0000                     _PORTBbits	set	3969
   105  0000                     _RCSTA1bits	set	4011
   106  0000                     _TXSTA1bits	set	4012
   107  0000                     _RCREG	set	4014
   108  0000                     _TXREG	set	4013
   109  0000                     _PIR1bits	set	3998
   110  0000                     _RCSTAbits	set	4011
   111  0000                     _TXSTAbits	set	4012
   112  0000                     _SPBRG	set	4015
   113  0000                     _TRISCbits	set	3988
   114  0000                     _PORTDbits	set	3971
   115  0000                     _TMR2ON	set	32338
   116                           
   117                           	psect	smallconst
   118  000800                     __psmallconst:
   119                           	opt callstack 0
   120  000800  00                 	db	0
   121  000801                     STR_5:
   122  000801  54                 	db	84	;'T'
   123  000802  6F                 	db	111	;'o'
   124  000803  75                 	db	117	;'u'
   125  000804  63                 	db	99	;'c'
   126  000805  68                 	db	104	;'h'
   127  000806  20                 	db	32
   128  000807  49                 	db	73	;'I'
   129  000808  6E                 	db	110	;'n'
   130  000809  73                 	db	115	;'s'
   131  00080A  74                 	db	116	;'t'
   132  00080B  72                 	db	114	;'r'
   133  00080C  75                 	db	117	;'u'
   134  00080D  63                 	db	99	;'c'
   135  00080E  63                 	db	99	;'c'
   136  00080F  74                 	db	116	;'t'
   137  000810  69                 	db	105	;'i'
   138  000811  6F                 	db	111	;'o'
   139  000812  6E                 	db	110	;'n'
   140  000813  20                 	db	32
   141  000814  69                 	db	105	;'i'
   142  000815  73                 	db	115	;'s'
   143  000816  20                 	db	32
   144  000817  6E                 	db	110	;'n'
   145  000818  6F                 	db	111	;'o'
   146  000819  74                 	db	116	;'t'
   147  00081A  20                 	db	32
   148  00081B  72                 	db	114	;'r'
   149  00081C  65                 	db	101	;'e'
   150  00081D  63                 	db	99	;'c'
   151  00081E  6F                 	db	111	;'o'
   152  00081F  67                 	db	103	;'g'
   153  000820  6E                 	db	110	;'n'
   154  000821  69                 	db	105	;'i'
   155  000822  7A                 	db	122	;'z'
   156  000823  65                 	db	101	;'e'
   157  000824  64                 	db	100	;'d'
   158  000825  00                 	db	0
   159  000826                     STR_4:
   160  000826  46                 	db	70	;'F'
   161  000827  72                 	db	114	;'r'
   162  000828  61                 	db	97	;'a'
   163  000829  6D                 	db	109	;'m'
   164  00082A  65                 	db	101	;'e'
   165  00082B  73                 	db	115	;'s'
   166  00082C  20                 	db	32
   167  00082D  61                 	db	97	;'a'
   168  00082E  72                 	db	114	;'r'
   169  00082F  65                 	db	101	;'e'
   170  000830  20                 	db	32
   171  000831  6E                 	db	110	;'n'
   172  000832  6F                 	db	111	;'o'
   173  000833  74                 	db	116	;'t'
   174  000834  20                 	db	32
   175  000835  69                 	db	105	;'i'
   176  000836  6E                 	db	110	;'n'
   177  000837  73                 	db	115	;'s'
   178  000838  65                 	db	101	;'e'
   179  000839  72                 	db	114	;'r'
   180  00083A  74                 	db	116	;'t'
   181  00083B  65                 	db	101	;'e'
   182  00083C  64                 	db	100	;'d'
   183  00083D  20                 	db	32
   184  00083E  63                 	db	99	;'c'
   185  00083F  6F                 	db	111	;'o'
   186  000840  72                 	db	114	;'r'
   187  000841  72                 	db	114	;'r'
   188  000842  65                 	db	101	;'e'
   189  000843  63                 	db	99	;'c'
   190  000844  74                 	db	116	;'t'
   191  000845  6C                 	db	108	;'l'
   192  000846  79                 	db	121	;'y'
   193  000847  00                 	db	0
   194  000848                     STR_3:
   195  000848  43                 	db	67	;'C'
   196  000849  6F                 	db	111	;'o'
   197  00084A  6D                 	db	109	;'m'
   198  00084B  6D                 	db	109	;'m'
   199  00084C  61                 	db	97	;'a'
   200  00084D  6E                 	db	110	;'n'
   201  00084E  64                 	db	100	;'d'
   202  00084F  73                 	db	115	;'s'
   203  000850  20                 	db	32
   204  000851  77                 	db	119	;'w'
   205  000852  65                 	db	101	;'e'
   206  000853  72                 	db	114	;'r'
   207  000854  65                 	db	101	;'e'
   208  000855  20                 	db	32
   209  000856  6E                 	db	110	;'n'
   210  000857  6F                 	db	111	;'o'
   211  000858  74                 	db	116	;'t'
   212  000859  20                 	db	32
   213  00085A  72                 	db	114	;'r'
   214  00085B  65                 	db	101	;'e'
   215  00085C  63                 	db	99	;'c'
   216  00085D  6F                 	db	111	;'o'
   217  00085E  67                 	db	103	;'g'
   218  00085F  6E                 	db	110	;'n'
   219  000860  69                 	db	105	;'i'
   220  000861  7A                 	db	122	;'z'
   221  000862  65                 	db	101	;'e'
   222  000863  64                 	db	100	;'d'
   223  000864  00                 	db	0
   224  000865                     STR_6:
   225  000865  53                 	db	83	;'S'
   226  000866  75                 	db	117	;'u'
   227  000867  72                 	db	114	;'r'
   228  000868  70                 	db	112	;'p'
   229  000869  61                 	db	97	;'a'
   230  00086A  73                 	db	115	;'s'
   231  00086B  73                 	db	115	;'s'
   232  00086C  65                 	db	101	;'e'
   233  00086D  73                 	db	115	;'s'
   234  00086E  20                 	db	32
   235  00086F  63                 	db	99	;'c'
   236  000870  6F                 	db	111	;'o'
   237  000871  6F                 	db	111	;'o'
   238  000872  72                 	db	114	;'r'
   239  000873  64                 	db	100	;'d'
   240  000874  69                 	db	105	;'i'
   241  000875  6E                 	db	110	;'n'
   242  000876  61                 	db	97	;'a'
   243  000877  74                 	db	116	;'t'
   244  000878  65                 	db	101	;'e'
   245  000879  73                 	db	115	;'s'
   246  00087A  20                 	db	32
   247  00087B  73                 	db	115	;'s'
   248  00087C  69                 	db	105	;'i'
   249  00087D  7A                 	db	122	;'z'
   250  00087E  65                 	db	101	;'e'
   251  00087F  00                 	db	0
   252  000880                     STR_7:
   253  000880  56                 	db	86	;'V'
   254  000881  65                 	db	101	;'e'
   255  000882  72                 	db	114	;'r'
   256  000883  69                 	db	105	;'i'
   257  000884  66                 	db	102	;'f'
   258  000885  79                 	db	121	;'y'
   259  000886  20                 	db	32
   260  000887  43                 	db	67	;'C'
   261  000888  6F                 	db	111	;'o'
   262  000889  6D                 	db	109	;'m'
   263  00088A  70                 	db	112	;'p'
   264  00088B  6C                 	db	108	;'l'
   265  00088C  65                 	db	101	;'e'
   266  00088D  74                 	db	116	;'t'
   267  00088E  65                 	db	101	;'e'
   268  00088F  64                 	db	100	;'d'
   269  000890  00                 	db	0
   270  000891                     STR_2:
   271  000891  45                 	db	69	;'E'
   272  000892  6E                 	db	110	;'n'
   273  000893  74                 	db	116	;'t'
   274  000894  65                 	db	101	;'e'
   275  000895  72                 	db	114	;'r'
   276  000896  20                 	db	32
   277  000897  63                 	db	99	;'c'
   278  000898  6F                 	db	111	;'o'
   279  000899  6D                 	db	109	;'m'
   280  00089A  6D                 	db	109	;'m'
   281  00089B  61                 	db	97	;'a'
   282  00089C  6E                 	db	110	;'n'
   283  00089D  64                 	db	100	;'d'
   284  00089E  00                 	db	0
   285  00089F                     STR_1:
   286  00089F  57                 	db	87	;'W'
   287  0008A0  61                 	db	97	;'a'
   288  0008A1  69                 	db	105	;'i'
   289  0008A2  74                 	db	116	;'t'
   290  0008A3  69                 	db	105	;'i'
   291  0008A4  6E                 	db	110	;'n'
   292  0008A5  67                 	db	103	;'g'
   293  0008A6  2E                 	db	46
   294  0008A7  2E                 	db	46
   295  0008A8  2E                 	db	46
   296  0008A9  00                 	db	0
   297  0008AA                     STR_9:
   298  0008AA  53                 	db	83	;'S'
   299  0008AB  6C                 	db	108	;'l'
   300  0008AC  69                 	db	105	;'i'
   301  0008AD  64                 	db	100	;'d'
   302  0008AE  65                 	db	101	;'e'
   303  0008AF  00                 	db	0
   304  0008B0                     STR_8:
   305  0008B0  43                 	db	67	;'C'
   306  0008B1  6C                 	db	108	;'l'
   307  0008B2  69                 	db	105	;'i'
   308  0008B3  63                 	db	99	;'c'
   309  0008B4  6B                 	db	107	;'k'
   310  0008B5  00                 	db	0
   311                           
   312                           ; #config settings
   313  0008B6  00                 	db	0	; dummy byte at the end
   314  0000                     
   315                           	psect	cinit
   316  0014CA                     __pcinit:
   317                           	opt callstack 0
   318  0014CA                     start_initialization:
   319                           	opt callstack 0
   320  0014CA                     __initialization:
   321                           	opt callstack 0
   322                           
   323                           ; Clear objects allocated to COMRAM (27 bytes)
   324  0014CA  EE00  F021         	lfsr	0,__pbssCOMRAM
   325  0014CE  0E1B               	movlw	27
   326  0014D0                     clear_0:
   327  0014D0  6AEE               	clrf	postinc0,c
   328  0014D2  06E8               	decf	wreg,f,c
   329  0014D4  E1FD               	bnz	clear_0
   330  0014D6                     end_of_initialization:
   331                           	opt callstack 0
   332  0014D6                     __end_of__initialization:
   333                           	opt callstack 0
   334  0014D6  0E00               	movlw	low (__Lmediumconst shr (0+16))
   335  0014D8  6EF8               	movwf	tblptru,c
   336  0014DA  0100               	movlb	0
   337  0014DC  EFD5  F009         	goto	_main	;jump to C main() function
   338                           
   339                           	psect	bssCOMRAM
   340  000021                     __pbssCOMRAM:
   341                           	opt callstack 0
   342  000021                     _FlagDirectionY:
   343                           	opt callstack 0
   344  000021                     	ds	2
   345  000023                     _FlagDirectionX:
   346                           	opt callstack 0
   347  000023                     	ds	2
   348  000025                     _StepsOnY:
   349                           	opt callstack 0
   350  000025                     	ds	2
   351  000027                     _StepsOnX:
   352                           	opt callstack 0
   353  000027                     	ds	2
   354  000029                     _ons:
   355                           	opt callstack 0
   356  000029                     	ds	2
   357  00002B                     _ActualSteps:
   358                           	opt callstack 0
   359  00002B                     	ds	2
   360  00002D                     _ControlFlagVerification:
   361                           	opt callstack 0
   362  00002D                     	ds	2
   363  00002F                     _click:
   364                           	opt callstack 0
   365  00002F                     	ds	1
   366  000030                     _NextState:
   367                           	opt callstack 0
   368  000030                     	ds	1
   369  000031                     _CoordRelatY:
   370                           	opt callstack 0
   371  000031                     	ds	2
   372  000033                     _CoordRelatX:
   373                           	opt callstack 0
   374  000033                     	ds	2
   375  000035                     _cord_y:
   376                           	opt callstack 0
   377  000035                     	ds	2
   378  000037                     _cord_x:
   379                           	opt callstack 0
   380  000037                     	ds	2
   381  000039                     _Par2:
   382                           	opt callstack 0
   383  000039                     	ds	1
   384  00003A                     _letter:
   385                           	opt callstack 0
   386  00003A                     	ds	1
   387  00003B                     _Par1:
   388                           	opt callstack 0
   389  00003B                     	ds	1
   390                           
   391                           	psect	cstackCOMRAM
   392  000001                     __pcstackCOMRAM:
   393                           	opt callstack 0
   394  000001                     ??_LEDerror:
   395  000001                     ?___wmul:
   396                           	opt callstack 0
   397  000001                     ?___lwmod:
   398                           	opt callstack 0
   399  000001                     ?___aldiv:
   400                           	opt callstack 0
   401  000001                     UARTWrite@data:
   402                           	opt callstack 0
   403  000001                     UARTRead@Lecture:
   404                           	opt callstack 0
   405  000001                     ContarPulsos@pasos:
   406                           	opt callstack 0
   407  000001                     ___wmul@multiplier:
   408                           	opt callstack 0
   409  000001                     ___lwmod@dividend:
   410                           	opt callstack 0
   411  000001                     ___aldiv@dividend:
   412                           	opt callstack 0
   413                           
   414                           ; 4 bytes @ 0x0
   415  000001                     	ds	1
   416  000002                     ?_coord:
   417                           	opt callstack 0
   418  000002                     coord@P1:
   419                           	opt callstack 0
   420  000002                     myPrintf@PointString:
   421                           	opt callstack 0
   422                           
   423                           ; 2 bytes @ 0x1
   424  000002                     	ds	1
   425  000003                     ___wmul@multiplicand:
   426                           	opt callstack 0
   427  000003                     ___lwmod@divisor:
   428                           	opt callstack 0
   429                           
   430                           ; 2 bytes @ 0x2
   431  000003                     	ds	1
   432  000004                     ??_myPrintf:
   433  000004                     coord@L:
   434                           	opt callstack 0
   435                           
   436                           ; 2 bytes @ 0x3
   437  000004                     	ds	1
   438  000005                     ___lwmod@counter:
   439                           	opt callstack 0
   440  000005                     ___wmul@product:
   441                           	opt callstack 0
   442  000005                     ___aldiv@divisor:
   443                           	opt callstack 0
   444                           
   445                           ; 4 bytes @ 0x4
   446  000005                     	ds	1
   447  000006                     ?___lwdiv:
   448                           	opt callstack 0
   449  000006                     myPrintf@i:
   450                           	opt callstack 0
   451  000006                     coord@x:
   452                           	opt callstack 0
   453  000006                     ___lwdiv@dividend:
   454                           	opt callstack 0
   455                           
   456                           ; 2 bytes @ 0x5
   457  000006                     	ds	1
   458  000007                     ??_Movement:
   459  000007                     
   460                           ; 1 bytes @ 0x6
   461  000007                     	ds	1
   462  000008                     coord@y:
   463                           	opt callstack 0
   464  000008                     ___lwdiv@divisor:
   465                           	opt callstack 0
   466                           
   467                           ; 2 bytes @ 0x7
   468  000008                     	ds	1
   469  000009                     ___aldiv@counter:
   470                           	opt callstack 0
   471                           
   472                           ; 1 bytes @ 0x8
   473  000009                     	ds	1
   474  00000A                     ___aldiv@sign:
   475                           	opt callstack 0
   476  00000A                     coord@P2:
   477                           	opt callstack 0
   478  00000A                     ___lwdiv@quotient:
   479                           	opt callstack 0
   480                           
   481                           ; 2 bytes @ 0x9
   482  00000A                     	ds	1
   483  00000B                     ___aldiv@quotient:
   484                           	opt callstack 0
   485                           
   486                           ; 4 bytes @ 0xA
   487  00000B                     	ds	1
   488  00000C                     ??_coord:
   489  00000C                     ___lwdiv@counter:
   490                           	opt callstack 0
   491                           
   492                           ; 1 bytes @ 0xB
   493  00000C                     	ds	1
   494  00000D                     PrintMyActulPosition@a:
   495                           	opt callstack 0
   496                           
   497                           ; 3 bytes @ 0xC
   498  00000D                     	ds	2
   499  00000F                     UARTConfi@BAUD:
   500                           	opt callstack 0
   501                           
   502                           ; 2 bytes @ 0xE
   503  00000F                     	ds	1
   504  000010                     PrintMyActulPosition@b:
   505                           	opt callstack 0
   506  000010                     coord@buffer:
   507                           	opt callstack 0
   508                           
   509                           ; 9 bytes @ 0xF
   510  000010                     	ds	1
   511  000011                     _UARTConfi$1707:
   512                           	opt callstack 0
   513                           
   514                           ; 4 bytes @ 0x10
   515  000011                     	ds	2
   516  000013                     _PrintMyActulPosition$1708:
   517                           	opt callstack 0
   518                           
   519                           ; 2 bytes @ 0x12
   520  000013                     	ds	2
   521  000015                     PrintMyActulPosition@i:
   522                           	opt callstack 0
   523                           
   524                           ; 2 bytes @ 0x14
   525  000015                     	ds	2
   526  000017                     PrintMyActulPosition@i_741:
   527                           	opt callstack 0
   528                           
   529                           ; 2 bytes @ 0x16
   530  000017                     	ds	2
   531  000019                     coord@read:
   532                           	opt callstack 0
   533                           
   534                           ; 1 bytes @ 0x18
   535  000019                     	ds	2
   536  00001B                     coord@counterRevision:
   537                           	opt callstack 0
   538                           
   539                           ; 1 bytes @ 0x1A
   540  00001B                     	ds	1
   541  00001C                     coord@i:
   542                           	opt callstack 0
   543                           
   544                           ; 2 bytes @ 0x1B
   545  00001C                     	ds	2
   546  00001E                     coord@n:
   547                           	opt callstack 0
   548                           
   549                           ; 1 bytes @ 0x1D
   550  00001E                     	ds	1
   551  00001F                     ??_verification:
   552  00001F                     
   553                           ; 1 bytes @ 0x1E
   554  00001F                     	ds	2
   555  000021                     
   556                           ; 1 bytes @ 0x20
   557 ;;
   558 ;;Main: autosize = 0, tempsize = 0, incstack = 0, save=0
   559 ;;
   560 ;; *************** function _main *****************
   561 ;; Defined at:
   562 ;;		line 13 in file "main.c"
   563 ;; Parameters:    Size  Location     Type
   564 ;;		None
   565 ;; Auto vars:     Size  Location     Type
   566 ;;		None
   567 ;; Return value:  Size  Location     Type
   568 ;;                  1    wreg      void 
   569 ;; Registers used:
   570 ;;		wreg, fsr2l, fsr2h, status,2, status,0, tblptrl, tblptrh, tblptru, prodl, prodh, cstack
   571 ;; Tracked objects:
   572 ;;		On entry : 0/0
   573 ;;		On exit  : 0/0
   574 ;;		Unchanged: 0/0
   575 ;; Data sizes:     COMRAM   BANK0   BANK1   BANK2   BANK3   BANK4   BANK5   BANK6   BANK7
   576 ;;      Params:         0       0       0       0       0       0       0       0       0
   577 ;;      Locals:         0       0       0       0       0       0       0       0       0
   578 ;;      Temps:          0       0       0       0       0       0       0       0       0
   579 ;;      Totals:         0       0       0       0       0       0       0       0       0
   580 ;;Total ram usage:        0 bytes
   581 ;; Hardware stack levels required when called:    4
   582 ;; This function calls:
   583 ;;		_Configuracion
   584 ;;		_GoToZero
   585 ;;		_Movement
   586 ;;		_PrintMyActulPosition
   587 ;;		_verification
   588 ;; This function is called by:
   589 ;;		Startup code after reset
   590 ;; This function uses a non-reentrant model
   591 ;;
   592                           
   593                           	psect	text0
   594  0013AA                     __ptext0:
   595                           	opt callstack 0
   596  0013AA                     _main:
   597                           	opt callstack 27
   598  0013AA                     
   599                           ;main.c: 15:     Configuracion();
   600  0013AA  EC08  F009         	call	_Configuracion	;wreg free
   601  0013AE                     
   602                           ;main.c: 18:     PORTDbits.RD4 = 1;
   603  0013AE  8883               	bsf	131,4,c	;volatile
   604  0013B0                     
   605                           ;main.c: 19:     CoordAntX=1;
   606  0013B0  0E00               	movlw	0
   607  0013B2  6E3F               	movwf	(_CoordAntX+1)^0,c
   608  0013B4  0E01               	movlw	1
   609  0013B6  6E3E               	movwf	_CoordAntX^0,c
   610  0013B8                     
   611                           ;main.c: 20:     CoordAntY=1;
   612  0013B8  0E00               	movlw	0
   613  0013BA  6E3D               	movwf	(_CoordAntY+1)^0,c
   614  0013BC  0E01               	movlw	1
   615  0013BE  6E3C               	movwf	_CoordAntY^0,c
   616  0013C0                     
   617                           ;main.c: 22:     PORTDbits.RD2=1;
   618  0013C0  8483               	bsf	131,2,c	;volatile
   619  0013C2                     
   620                           ;main.c: 23:     PORTDbits.RD3=1;
   621  0013C2  8683               	bsf	131,3,c	;volatile
   622  0013C4                     
   623                           ;main.c: 25:     GoToZero();
   624  0013C4  EC71  F008         	call	_GoToZero	;wreg free
   625  0013C8                     l2289:
   626                           
   627                           ;main.c: 28:     {;main.c: 29:         PORTDbits.RD5 = 1;
   628  0013C8  8A83               	bsf	131,5,c	;volatile
   629  0013CA                     
   630                           ;main.c: 30:         ControlFlagVerification = 1;
   631  0013CA  0E00               	movlw	0
   632  0013CC  6E2E               	movwf	(_ControlFlagVerification+1)^0,c
   633  0013CE  0E01               	movlw	1
   634  0013D0  6E2D               	movwf	_ControlFlagVerification^0,c
   635  0013D2                     
   636                           ;main.c: 31:         verification();
   637  0013D2  EC3C  F007         	call	_verification	;wreg free
   638  0013D6                     
   639                           ;main.c: 32:         PrintMyActulPosition();
   640  0013D6  ECFA  F005         	call	_PrintMyActulPosition	;wreg free
   641  0013DA                     
   642                           ;main.c: 33:         Movement();
   643  0013DA  EC3B  F008         	call	_Movement	;wreg free
   644  0013DE                     
   645                           ;main.c: 34:         PrintMyActulPosition();
   646  0013DE  ECFA  F005         	call	_PrintMyActulPosition	;wreg free
   647  0013E2  EFE4  F009         	goto	l2289
   648  0013E6  EF00  F000         	goto	start
   649  0013EA                     __end_of_main:
   650                           	opt callstack 0
   651                           
   652 ;; *************** function _verification *****************
   653 ;; Defined at:
   654 ;;		line 14 in file "verification.c"
   655 ;; Parameters:    Size  Location     Type
   656 ;;		None
   657 ;; Auto vars:     Size  Location     Type
   658 ;;		None
   659 ;; Return value:  Size  Location     Type
   660 ;;                  1    wreg      void 
   661 ;; Registers used:
   662 ;;		wreg, fsr2l, fsr2h, status,2, status,0, tblptrl, tblptrh, tblptru, prodl, prodh, cstack
   663 ;; Tracked objects:
   664 ;;		On entry : 0/0
   665 ;;		On exit  : 0/0
   666 ;;		Unchanged: 0/0
   667 ;; Data sizes:     COMRAM   BANK0   BANK1   BANK2   BANK3   BANK4   BANK5   BANK6   BANK7
   668 ;;      Params:         0       0       0       0       0       0       0       0       0
   669 ;;      Locals:         0       0       0       0       0       0       0       0       0
   670 ;;      Temps:          2       0       0       0       0       0       0       0       0
   671 ;;      Totals:         2       0       0       0       0       0       0       0       0
   672 ;;Total ram usage:        2 bytes
   673 ;; Hardware stack levels used:    1
   674 ;; Hardware stack levels required when called:    3
   675 ;; This function calls:
   676 ;;		_Coord_Validated
   677 ;;		_Ins_Validated
   678 ;;		_Par_Validated
   679 ;;		_cmd
   680 ;;		_end
   681 ;;		_start
   682 ;; This function is called by:
   683 ;;		_main
   684 ;; This function uses a non-reentrant model
   685 ;;
   686                           
   687                           	psect	text1
   688  000E78                     __ptext1:
   689                           	opt callstack 0
   690  000E78                     _verification:
   691                           	opt callstack 27
   692  000E78                     
   693                           ;verification.c: 16:     NextState = iddle_State;
   694  000E78  0E00               	movlw	0
   695  000E7A  6E30               	movwf	_NextState^0,c
   696                           
   697                           ;verification.c: 17:     while(ControlFlagVerification == 1)
   698  000E7C  EF86  F007         	goto	l2215
   699  000E80                     l2197:
   700                           
   701                           ;verification.c: 22:                 NextState= start();
   702  000E80  EC70  F00A         	call	_start	;wreg free
   703  000E84  6E30               	movwf	_NextState^0,c
   704                           
   705                           ;verification.c: 23:             };verification.c: 24:                 break;
   706  000E86  EF86  F007         	goto	l2215
   707  000E8A                     l2199:
   708                           
   709                           ;verification.c: 27:                 NextState=cmd();
   710  000E8A  EC03  F008         	call	_cmd	;wreg free
   711  000E8E  6E30               	movwf	_NextState^0,c
   712                           
   713                           ;verification.c: 28:             };verification.c: 29:                 break;
   714  000E90  EF86  F007         	goto	l2215
   715  000E94                     l2201:
   716                           
   717                           ;verification.c: 32:                 NextState=Par_Validated();
   718  000E94  ECB3  F009         	call	_Par_Validated	;wreg free
   719  000E98  6E30               	movwf	_NextState^0,c
   720                           
   721                           ;verification.c: 33:             };verification.c: 34:                 break;
   722  000E9A  EF86  F007         	goto	l2215
   723  000E9E                     l2203:
   724                           
   725                           ;verification.c: 37:                 NextState=Ins_Validated();
   726  000E9E  EC65  F009         	call	_Ins_Validated	;wreg free
   727  000EA2  6E30               	movwf	_NextState^0,c
   728                           
   729                           ;verification.c: 38:             };verification.c: 39:                 break;
   730  000EA4  EF86  F007         	goto	l2215
   731  000EA8                     l2205:
   732                           
   733                           ;verification.c: 42:                 NextState=Coord_Validated();
   734  000EA8  EC8D  F009         	call	_Coord_Validated	;wreg free
   735  000EAC  6E30               	movwf	_NextState^0,c
   736                           
   737                           ;verification.c: 43:             };verification.c: 44:                 break;
   738  000EAE  EF86  F007         	goto	l2215
   739  000EB2                     l2207:
   740                           
   741                           ;verification.c: 47:                 end();
   742  000EB2  EC36  F00A         	call	_end	;wreg free
   743                           
   744                           ;verification.c: 48:             };verification.c: 49:                 break;
   745  000EB6  EF86  F007         	goto	l2215
   746  000EBA                     l2209:
   747                           
   748                           ;verification.c: 52:                 NextState = wait_cmd_State;
   749  000EBA  0E01               	movlw	1
   750  000EBC  6E30               	movwf	_NextState^0,c
   751                           
   752                           ;verification.c: 53:             };verification.c: 54:                 break;
   753  000EBE  EF86  F007         	goto	l2215
   754  000EC2                     l2213:
   755  000EC2  5030               	movf	_NextState^0,w,c
   756  000EC4  6E1F               	movwf	??_verification^0,c
   757  000EC6  6A20               	clrf	(??_verification+1)^0,c
   758                           
   759                           ; Switch on 2 bytes has been partitioned into a top level switch of size 1, and 1 sub-sw
      +                          itches
   760                           ; Switch size 1, requested type "simple"
   761                           ; Number of cases is 1, Range of values is 0 to 0
   762                           ; switch strategies available:
   763                           ; Name         Instructions Cycles
   764                           ; simple_byte            4     3 (average)
   765                           ;	Chosen strategy is simple_byte
   766  000EC8  5020               	movf	(??_verification+1)^0,w,c
   767  000ECA  0A00               	xorlw	0	; case 0
   768  000ECC  B4D8               	btfsc	status,2,c
   769  000ECE  EF6B  F007         	goto	l2305
   770  000ED2  EF5D  F007         	goto	l2209
   771  000ED6                     l2305:
   772                           
   773                           ; Switch size 1, requested type "simple"
   774                           ; Number of cases is 6, Range of values is 0 to 5
   775                           ; switch strategies available:
   776                           ; Name         Instructions Cycles
   777                           ; simple_byte           19    10 (average)
   778                           ;	Chosen strategy is simple_byte
   779  000ED6  501F               	movf	??_verification^0,w,c
   780  000ED8  0A00               	xorlw	0	; case 0
   781  000EDA  B4D8               	btfsc	status,2,c
   782  000EDC  EF40  F007         	goto	l2197
   783  000EE0  0A01               	xorlw	1	; case 1
   784  000EE2  B4D8               	btfsc	status,2,c
   785  000EE4  EF45  F007         	goto	l2199
   786  000EE8  0A03               	xorlw	3	; case 2
   787  000EEA  B4D8               	btfsc	status,2,c
   788  000EEC  EF4A  F007         	goto	l2201
   789  000EF0  0A01               	xorlw	1	; case 3
   790  000EF2  B4D8               	btfsc	status,2,c
   791  000EF4  EF4F  F007         	goto	l2203
   792  000EF8  0A07               	xorlw	7	; case 4
   793  000EFA  B4D8               	btfsc	status,2,c
   794  000EFC  EF54  F007         	goto	l2205
   795  000F00  0A01               	xorlw	1	; case 5
   796  000F02  B4D8               	btfsc	status,2,c
   797  000F04  EF59  F007         	goto	l2207
   798  000F08  EF5D  F007         	goto	l2209
   799  000F0C                     l2215:
   800                           
   801                           ;verification.c: 17:     while(ControlFlagVerification == 1)
   802  000F0C  042D               	decf	_ControlFlagVerification^0,w,c
   803  000F0E  102E               	iorwf	(_ControlFlagVerification+1)^0,w,c
   804  000F10  B4D8               	btfsc	status,2,c
   805  000F12  EF8D  F007         	goto	u951
   806  000F16  EF8F  F007         	goto	u950
   807  000F1A                     u951:
   808  000F1A  EF61  F007         	goto	l2213
   809  000F1E                     u950:
   810  000F1E  0012               	return		;funcret
   811  000F20                     __end_of_verification:
   812                           	opt callstack 0
   813                           
   814 ;; *************** function _start *****************
   815 ;; Defined at:
   816 ;;		line 13 in file "cases.c"
   817 ;; Parameters:    Size  Location     Type
   818 ;;		None
   819 ;; Auto vars:     Size  Location     Type
   820 ;;		None
   821 ;; Return value:  Size  Location     Type
   822 ;;                  1    wreg      unsigned char 
   823 ;; Registers used:
   824 ;;		wreg, status,2, status,0, tblptrl, tblptrh, tblptru, cstack
   825 ;; Tracked objects:
   826 ;;		On entry : 0/0
   827 ;;		On exit  : 0/0
   828 ;;		Unchanged: 0/0
   829 ;; Data sizes:     COMRAM   BANK0   BANK1   BANK2   BANK3   BANK4   BANK5   BANK6   BANK7
   830 ;;      Params:         0       0       0       0       0       0       0       0       0
   831 ;;      Locals:         0       0       0       0       0       0       0       0       0
   832 ;;      Temps:          0       0       0       0       0       0       0       0       0
   833 ;;      Totals:         0       0       0       0       0       0       0       0       0
   834 ;;Total ram usage:        0 bytes
   835 ;; Hardware stack levels used:    1
   836 ;; Hardware stack levels required when called:    2
   837 ;; This function calls:
   838 ;;		_UARTWrite
   839 ;;		_myPrintf
   840 ;; This function is called by:
   841 ;;		_verification
   842 ;; This function uses a non-reentrant model
   843 ;;
   844                           
   845                           	psect	text2
   846  0014E0                     __ptext2:
   847                           	opt callstack 0
   848  0014E0                     _start:
   849                           	opt callstack 27
   850  0014E0                     
   851                           ;cases.c: 15:     UARTWrite(0x0D);
   852  0014E0  0E0D               	movlw	13
   853  0014E2  EC7B  F00A         	call	_UARTWrite
   854  0014E6                     
   855                           ;cases.c: 16:     myPrintf("Waiting...");
   856  0014E6  0E9F               	movlw	low STR_1
   857  0014E8  6E02               	movwf	myPrintf@PointString^0,c
   858  0014EA  0E08               	movlw	high STR_1
   859  0014EC  6E03               	movwf	(myPrintf@PointString+1)^0,c
   860  0014EE  ECD8  F008         	call	_myPrintf	;wreg free
   861  0014F2                     
   862                           ;cases.c: 17:     return wait_cmd_State;
   863  0014F2  0E01               	movlw	1
   864  0014F4  0012               	return		;funcret
   865  0014F6                     __end_of_start:
   866                           	opt callstack 0
   867                           
   868 ;; *************** function _end *****************
   869 ;; Defined at:
   870 ;;		line 111 in file "cases.c"
   871 ;; Parameters:    Size  Location     Type
   872 ;;		None
   873 ;; Auto vars:     Size  Location     Type
   874 ;;		None
   875 ;; Return value:  Size  Location     Type
   876 ;;                  1    wreg      void 
   877 ;; Registers used:
   878 ;;		wreg, status,2, status,0, tblptrl, tblptrh, tblptru, cstack
   879 ;; Tracked objects:
   880 ;;		On entry : 0/0
   881 ;;		On exit  : 0/0
   882 ;;		Unchanged: 0/0
   883 ;; Data sizes:     COMRAM   BANK0   BANK1   BANK2   BANK3   BANK4   BANK5   BANK6   BANK7
   884 ;;      Params:         0       0       0       0       0       0       0       0       0
   885 ;;      Locals:         0       0       0       0       0       0       0       0       0
   886 ;;      Temps:          0       0       0       0       0       0       0       0       0
   887 ;;      Totals:         0       0       0       0       0       0       0       0       0
   888 ;;Total ram usage:        0 bytes
   889 ;; Hardware stack levels used:    1
   890 ;; Hardware stack levels required when called:    2
   891 ;; This function calls:
   892 ;;		_UARTWrite
   893 ;;		_myPrintf
   894 ;; This function is called by:
   895 ;;		_verification
   896 ;; This function uses a non-reentrant model
   897 ;;
   898                           
   899                           	psect	text3
   900  00146C                     __ptext3:
   901                           	opt callstack 0
   902  00146C                     _end:
   903                           	opt callstack 27
   904  00146C                     
   905                           ;cases.c: 113:     UARTWrite(0x0D);
   906  00146C  0E0D               	movlw	13
   907  00146E  EC7B  F00A         	call	_UARTWrite
   908  001472                     
   909                           ;cases.c: 114:     myPrintf("Verify Completed");
   910  001472  0E80               	movlw	low STR_7
   911  001474  6E02               	movwf	myPrintf@PointString^0,c
   912  001476  0E08               	movlw	high STR_7
   913  001478  6E03               	movwf	(myPrintf@PointString+1)^0,c
   914  00147A  ECD8  F008         	call	_myPrintf	;wreg free
   915  00147E                     
   916                           ;cases.c: 115:     UARTWrite(0x0A);
   917  00147E  0E0A               	movlw	10
   918  001480  EC7B  F00A         	call	_UARTWrite
   919  001484                     
   920                           ;cases.c: 116:     ControlFlagVerification = 0;
   921  001484  0E00               	movlw	0
   922  001486  6E2E               	movwf	(_ControlFlagVerification+1)^0,c
   923  001488  0E00               	movlw	0
   924  00148A  6E2D               	movwf	_ControlFlagVerification^0,c
   925  00148C  0012               	return		;funcret
   926  00148E                     __end_of_end:
   927                           	opt callstack 0
   928                           
   929 ;; *************** function _cmd *****************
   930 ;; Defined at:
   931 ;;		line 20 in file "cases.c"
   932 ;; Parameters:    Size  Location     Type
   933 ;;		None
   934 ;; Auto vars:     Size  Location     Type
   935 ;;		None
   936 ;; Return value:  Size  Location     Type
   937 ;;                  1    wreg      unsigned char 
   938 ;; Registers used:
   939 ;;		wreg, fsr2l, fsr2h, status,2, status,0, tblptrl, tblptrh, tblptru, prodl, prodh, cstack
   940 ;; Tracked objects:
   941 ;;		On entry : 0/0
   942 ;;		On exit  : 0/0
   943 ;;		Unchanged: 0/0
   944 ;; Data sizes:     COMRAM   BANK0   BANK1   BANK2   BANK3   BANK4   BANK5   BANK6   BANK7
   945 ;;      Params:         0       0       0       0       0       0       0       0       0
   946 ;;      Locals:         0       0       0       0       0       0       0       0       0
   947 ;;      Temps:          0       0       0       0       0       0       0       0       0
   948 ;;      Totals:         0       0       0       0       0       0       0       0       0
   949 ;;Total ram usage:        0 bytes
   950 ;; Hardware stack levels used:    1
   951 ;; Hardware stack levels required when called:    2
   952 ;; This function calls:
   953 ;;		_LEDerror
   954 ;;		_UARTWrite
   955 ;;		_coord
   956 ;;		_myPrintf
   957 ;; This function is called by:
   958 ;;		_verification
   959 ;; This function uses a non-reentrant model
   960 ;;
   961                           
   962                           	psect	text4
   963  001006                     __ptext4:
   964                           	opt callstack 0
   965  001006                     _cmd:
   966                           	opt callstack 27
   967  001006                     
   968                           ;cases.c: 22:     UARTWrite(0x0D);
   969  001006  0E0D               	movlw	13
   970  001008  EC7B  F00A         	call	_UARTWrite
   971  00100C                     
   972                           ;cases.c: 23:     myPrintf("Enter command");
   973  00100C  0E91               	movlw	low STR_2
   974  00100E  6E02               	movwf	myPrintf@PointString^0,c
   975  001010  0E08               	movlw	high STR_2
   976  001012  6E03               	movwf	(myPrintf@PointString+1)^0,c
   977  001014  ECD8  F008         	call	_myPrintf	;wreg free
   978  001018                     
   979                           ;cases.c: 25:     if(coord(&Par1,&letter,&cord_x, &cord_y, &Par2) == 1)
   980  001018  0E3B               	movlw	low _Par1
   981  00101A  6E02               	movwf	coord@P1^0,c
   982  00101C  0E00               	movlw	high _Par1
   983  00101E  6E03               	movwf	(coord@P1+1)^0,c
   984  001020  0E3A               	movlw	low _letter
   985  001022  6E04               	movwf	coord@L^0,c
   986  001024  0E00               	movlw	high _letter
   987  001026  6E05               	movwf	(coord@L+1)^0,c
   988  001028  0E37               	movlw	low _cord_x
   989  00102A  6E06               	movwf	coord@x^0,c
   990  00102C  0E00               	movlw	high _cord_x
   991  00102E  6E07               	movwf	(coord@x+1)^0,c
   992  001030  0E35               	movlw	low _cord_y
   993  001032  6E08               	movwf	coord@y^0,c
   994  001034  0E00               	movlw	high _cord_y
   995  001036  6E09               	movwf	(coord@y+1)^0,c
   996  001038  0E39               	movlw	low _Par2
   997  00103A  6E0A               	movwf	coord@P2^0,c
   998  00103C  0E00               	movlw	high _Par2
   999  00103E  6E0B               	movwf	(coord@P2+1)^0,c
  1000  001040  EC5C  F004         	call	_coord	;wreg free
  1001  001044  0402               	decf	?_coord^0,w,c
  1002  001046  1003               	iorwf	(?_coord+1)^0,w,c
  1003  001048  A4D8               	btfss	status,2,c
  1004  00104A  EF29  F008         	goto	u741
  1005  00104E  EF2B  F008         	goto	u740
  1006  001052                     u741:
  1007  001052  EF2E  F008         	goto	l1965
  1008  001056                     u740:
  1009  001056                     
  1010                           ;cases.c: 26:     {;cases.c: 27:         return validate_Par_State;
  1011  001056  0E02               	movlw	2
  1012  001058  EF3A  F008         	goto	l55
  1013  00105C                     l1965:
  1014                           
  1015                           ;cases.c: 30:     {;cases.c: 32:         myPrintf("Commands were not recognized");
  1016  00105C  0E48               	movlw	low STR_3
  1017  00105E  6E02               	movwf	myPrintf@PointString^0,c
  1018  001060  0E08               	movlw	high STR_3
  1019  001062  6E03               	movwf	(myPrintf@PointString+1)^0,c
  1020  001064  ECD8  F008         	call	_myPrintf	;wreg free
  1021  001068                     
  1022                           ;cases.c: 33:         UARTWrite(0x0A);
  1023  001068  0E0A               	movlw	10
  1024  00106A  EC7B  F00A         	call	_UARTWrite
  1025  00106E                     
  1026                           ;cases.c: 38:         LEDerror();
  1027  00106E  EC47  F00A         	call	_LEDerror	;wreg free
  1028  001072                     
  1029                           ;cases.c: 39:         return wait_cmd_State;
  1030  001072  0E01               	movlw	1
  1031  001074                     l55:
  1032  001074  0012               	return		;funcret
  1033  001076                     __end_of_cmd:
  1034                           	opt callstack 0
  1035                           
  1036 ;; *************** function _coord *****************
  1037 ;; Defined at:
  1038 ;;		line 14 in file "coordenadas.c"
  1039 ;; Parameters:    Size  Location     Type
  1040 ;;  P1              2    1[COMRAM] PTR unsigned char 
  1041 ;;		 -> Par1(1), 
  1042 ;;  L               2    3[COMRAM] PTR unsigned char 
  1043 ;;		 -> letter(1), 
  1044 ;;  x               2    5[COMRAM] PTR unsigned short 
  1045 ;;		 -> cord_x(2), 
  1046 ;;  y               2    7[COMRAM] PTR unsigned short 
  1047 ;;		 -> cord_y(2), 
  1048 ;;  P2              2    9[COMRAM] PTR unsigned char 
  1049 ;;		 -> Par2(1), 
  1050 ;; Auto vars:     Size  Location     Type
  1051 ;;  n               1   29[COMRAM] unsigned char 
  1052 ;;  i               2   27[COMRAM] int 
  1053 ;;  buffer          9   15[COMRAM] unsigned char [9]
  1054 ;;  counterRevis    1   26[COMRAM] unsigned char 
  1055 ;;  flagBuffer      1    0        unsigned char 
  1056 ;;  read            1   24[COMRAM] unsigned char 
  1057 ;; Return value:  Size  Location     Type
  1058 ;;                  2    1[COMRAM] int 
  1059 ;; Registers used:
  1060 ;;		wreg, fsr2l, fsr2h, status,2, status,0, prodl, prodh, cstack
  1061 ;; Tracked objects:
  1062 ;;		On entry : 0/0
  1063 ;;		On exit  : 0/0
  1064 ;;		Unchanged: 0/0
  1065 ;; Data sizes:     COMRAM   BANK0   BANK1   BANK2   BANK3   BANK4   BANK5   BANK6   BANK7
  1066 ;;      Params:        10       0       0       0       0       0       0       0       0
  1067 ;;      Locals:        15       0       0       0       0       0       0       0       0
  1068 ;;      Temps:          4       0       0       0       0       0       0       0       0
  1069 ;;      Totals:        29       0       0       0       0       0       0       0       0
  1070 ;;Total ram usage:       29 bytes
  1071 ;; Hardware stack levels used:    1
  1072 ;; Hardware stack levels required when called:    1
  1073 ;; This function calls:
  1074 ;;		_UARTRead
  1075 ;; This function is called by:
  1076 ;;		_cmd
  1077 ;; This function uses a non-reentrant model
  1078 ;;
  1079                           
  1080                           	psect	text5
  1081  0008B8                     __ptext5:
  1082                           	opt callstack 0
  1083  0008B8                     _coord:
  1084                           	opt callstack 27
  1085  0008B8                     
  1086                           ;coordenadas.c: 18:         char counterRevision = 0;
  1087  0008B8  0E00               	movlw	0
  1088  0008BA  6E1B               	movwf	coord@counterRevision^0,c
  1089  0008BC                     
  1090                           ;coordenadas.c: 20:         RCSTAbits.CREN = 1;
  1091  0008BC  88AB               	bsf	171,4,c	;volatile
  1092                           
  1093                           ;coordenadas.c: 22:         for(int i=StartCommandCharacter; i<(EndCommandCharacter+1); 
      +                          i++){
  1094  0008BE  0E00               	movlw	0
  1095  0008C0  6E1D               	movwf	(coord@i+1)^0,c
  1096  0008C2  0E00               	movlw	0
  1097  0008C4  6E1C               	movwf	coord@i^0,c
  1098  0008C6                     l1825:
  1099                           
  1100                           ;coordenadas.c: 23:             read= UARTRead();
  1101  0008C6  EC58  F00A         	call	_UARTRead	;wreg free
  1102  0008CA  6E19               	movwf	coord@read^0,c
  1103  0008CC                     
  1104                           ;coordenadas.c: 24:             buffer[i]=read;
  1105  0008CC  0E10               	movlw	low coord@buffer
  1106  0008CE  241C               	addwf	coord@i^0,w,c
  1107  0008D0  6ED9               	movwf	fsr2l,c
  1108  0008D2  0E00               	movlw	high coord@buffer
  1109  0008D4  201D               	addwfc	(coord@i+1)^0,w,c
  1110  0008D6  6EDA               	movwf	fsr2h,c
  1111  0008D8  C019  FFDF         	movff	coord@read,indf2
  1112  0008DC                     
  1113                           ;coordenadas.c: 27:             if(i == (EndCommandCharacter))
  1114  0008DC  0E08               	movlw	8
  1115  0008DE  181C               	xorwf	coord@i^0,w,c
  1116  0008E0  101D               	iorwf	(coord@i+1)^0,w,c
  1117  0008E2  A4D8               	btfss	status,2,c
  1118  0008E4  EF76  F004         	goto	u581
  1119  0008E8  EF78  F004         	goto	u580
  1120  0008EC                     u581:
  1121  0008EC  EF7A  F004         	goto	l1833
  1122  0008F0                     u580:
  1123  0008F0                     
  1124                           ;coordenadas.c: 28:             {;coordenadas.c: 29:                 RCSTAbits.CREN = 0;
  1125  0008F0  98AB               	bcf	171,4,c	;volatile
  1126                           
  1127                           ;coordenadas.c: 30:                 PORTDbits.RD5 = 0;
  1128  0008F2  9A83               	bcf	131,5,c	;volatile
  1129  0008F4                     l1833:
  1130                           
  1131                           ;coordenadas.c: 32:         }
  1132  0008F4  4A1C               	infsnz	coord@i^0,f,c
  1133  0008F6  2A1D               	incf	(coord@i+1)^0,f,c
  1134  0008F8  BE1D               	btfsc	(coord@i+1)^0,7,c
  1135  0008FA  EF88  F004         	goto	u591
  1136  0008FE  501D               	movf	(coord@i+1)^0,w,c
  1137  000900  E109               	bnz	u590
  1138  000902  0E09               	movlw	9
  1139  000904  5C1C               	subwf	coord@i^0,w,c
  1140  000906  A0D8               	btfss	status,0,c
  1141  000908  EF88  F004         	goto	u591
  1142  00090C  EF8A  F004         	goto	u590
  1143  000910                     u591:
  1144  000910  EF63  F004         	goto	l1825
  1145  000914                     u590:
  1146  000914                     
  1147                           ;coordenadas.c: 34:         if(RCSTAbits.OERR == 1)
  1148  000914  A2AB               	btfss	171,1,c	;volatile
  1149  000916  EF8F  F004         	goto	u601
  1150  00091A  EF91  F004         	goto	u600
  1151  00091E                     u601:
  1152  00091E  EF9D  F004         	goto	l1845
  1153  000922                     u600:
  1154  000922                     
  1155                           ;coordenadas.c: 35:         {;coordenadas.c: 36:             TXSTA1bits.TXEN = 0;
  1156  000922  9AAC               	bcf	172,5,c	;volatile
  1157                           
  1158                           ;coordenadas.c: 37:             RCSTA1bits.CREN = 0;
  1159  000924  98AB               	bcf	171,4,c	;volatile
  1160  000926                     
  1161                           ;coordenadas.c: 38:             _delay((unsigned long)((15)*(8000000L/4000.0)));
  1162  000926  0E27               	movlw	39
  1163  000928  6E0C               	movwf	??_coord^0,c
  1164  00092A  0EF5               	movlw	245
  1165  00092C                     u1007:
  1166  00092C  2EE8               	decfsz	wreg,f,c
  1167  00092E  D7FE               	bra	u1007
  1168  000930  2E0C               	decfsz	??_coord^0,f,c
  1169  000932  D7FC               	bra	u1007
  1170  000934  F000               	nop	
  1171  000936                     
  1172                           ;coordenadas.c: 39:             TXSTA1bits.TXEN = 1;
  1173  000936  8AAC               	bsf	172,5,c	;volatile
  1174  000938                     
  1175                           ;coordenadas.c: 40:             RCSTA1bits.CREN = 1;
  1176  000938  88AB               	bsf	171,4,c	;volatile
  1177  00093A                     l1845:
  1178                           
  1179                           ;coordenadas.c: 43:         *P1= buffer[StartCommandCharacter];
  1180  00093A  C002  FFD9         	movff	coord@P1,fsr2l
  1181  00093E  C003  FFDA         	movff	coord@P1+1,fsr2h
  1182  000942  C010  FFDF         	movff	coord@buffer,indf2
  1183  000946                     
  1184                           ;coordenadas.c: 44:         *L= buffer[InstructionCharacter];
  1185  000946  C004  FFD9         	movff	coord@L,fsr2l
  1186  00094A  C005  FFDA         	movff	coord@L+1,fsr2h
  1187  00094E  C011  FFDF         	movff	coord@buffer+1,indf2
  1188  000952                     
  1189                           ;coordenadas.c: 45:         *P2= buffer[EndCommandCharacter];
  1190  000952  C00A  FFD9         	movff	coord@P2,fsr2l
  1191  000956  C00B  FFDA         	movff	coord@P2+1,fsr2h
  1192  00095A  C018  FFDF         	movff	coord@buffer+8,indf2
  1193  00095E                     
  1194                           ;coordenadas.c: 47:         for(char n=CharacterX1; n<(CharacterY3+1); n++)
  1195  00095E  0E02               	movlw	2
  1196  000960  6E1E               	movwf	coord@n^0,c
  1197  000962                     l1857:
  1198                           
  1199                           ;coordenadas.c: 48:         {;coordenadas.c: 49:             if(buffer[n] <= 57 && buffe
      +                          r[n] >= 48)
  1200  000962  0E10               	movlw	low coord@buffer
  1201  000964  241E               	addwf	coord@n^0,w,c
  1202  000966  6ED9               	movwf	fsr2l,c
  1203  000968  6ADA               	clrf	fsr2h,c
  1204  00096A  0E00               	movlw	high coord@buffer
  1205  00096C  22DA               	addwfc	fsr2h,f,c
  1206  00096E  0E3A               	movlw	58
  1207  000970  60DF               	cpfslt	indf2,c
  1208  000972  EFBD  F004         	goto	u611
  1209  000976  EFBF  F004         	goto	u610
  1210  00097A                     u611:
  1211  00097A  EFCE  F004         	goto	l201
  1212  00097E                     u610:
  1213  00097E  0E10               	movlw	low coord@buffer
  1214  000980  241E               	addwf	coord@n^0,w,c
  1215  000982  6ED9               	movwf	fsr2l,c
  1216  000984  6ADA               	clrf	fsr2h,c
  1217  000986  0E00               	movlw	high coord@buffer
  1218  000988  22DA               	addwfc	fsr2h,f,c
  1219  00098A  0E2F               	movlw	47
  1220  00098C  64DF               	cpfsgt	indf2,c
  1221  00098E  EFCB  F004         	goto	u621
  1222  000992  EFCD  F004         	goto	u620
  1223  000996                     u621:
  1224  000996  EFCE  F004         	goto	l201
  1225  00099A                     u620:
  1226  00099A                     
  1227                           ;coordenadas.c: 50:             {;coordenadas.c: 51:                 counterRevision++;
  1228  00099A  2A1B               	incf	coord@counterRevision^0,f,c
  1229  00099C                     l201:
  1230                           
  1231                           ;coordenadas.c: 53:         }
  1232  00099C  2A1E               	incf	coord@n^0,f,c
  1233  00099E  0E07               	movlw	7
  1234  0009A0  641E               	cpfsgt	coord@n^0,c
  1235  0009A2  EFD5  F004         	goto	u631
  1236  0009A6  EFD7  F004         	goto	u630
  1237  0009AA                     u631:
  1238  0009AA  EFB1  F004         	goto	l1857
  1239  0009AE                     u630:
  1240  0009AE                     
  1241                           ;coordenadas.c: 54:             if(counterRevision == 6)
  1242  0009AE  0E06               	movlw	6
  1243  0009B0  181B               	xorwf	coord@counterRevision^0,w,c
  1244  0009B2  A4D8               	btfss	status,2,c
  1245  0009B4  EFDE  F004         	goto	u641
  1246  0009B8  EFE0  F004         	goto	u640
  1247  0009BC                     u641:
  1248  0009BC  EFE2  F004         	goto	l1869
  1249  0009C0                     u640:
  1250  0009C0                     
  1251                           ;coordenadas.c: 57:             }
  1252  0009C0  EFE8  F004         	goto	l1873
  1253  0009C4                     l1869:
  1254                           
  1255                           ;coordenadas.c: 60:             {;coordenadas.c: 61:                 return 0;
  1256  0009C4  0E00               	movlw	0
  1257  0009C6  6E03               	movwf	(?_coord+1)^0,c
  1258  0009C8  0E00               	movlw	0
  1259  0009CA  6E02               	movwf	?_coord^0,c
  1260  0009CC  EF2C  F005         	goto	l204
  1261  0009D0                     l1873:
  1262  0009D0                     
  1263                           ;coordenadas.c: 65:         {;coordenadas.c: 66:             *x = 1*(buffer[CharacterX3]
      +                          -48) + 10*(buffer[CharacterX2]-48) + 100*(buffer[CharacterX1]-48);
  1264  0009D0  0E30               	movlw	48
  1265  0009D2  6E0C               	movwf	??_coord^0,c
  1266  0009D4  0EEB               	movlw	235
  1267  0009D6  6E0D               	movwf	(??_coord+1)^0,c
  1268  0009D8  5012               	movf	(coord@buffer+2)^0,w,c
  1269  0009DA  0D64               	mullw	100
  1270  0009DC  CFF3 F00E          	movff	prodl,??_coord+2
  1271  0009E0  CFF4 F00F          	movff	prodh,??_coord+3
  1272  0009E4  5013               	movf	(coord@buffer+3)^0,w,c
  1273  0009E6  0D0A               	mullw	10
  1274  0009E8  50F3               	movf	243,w,c
  1275  0009EA  260E               	addwf	(??_coord+2)^0,f,c
  1276  0009EC  50F4               	movf	244,w,c
  1277  0009EE  220F               	addwfc	(??_coord+3)^0,f,c
  1278  0009F0  5014               	movf	(coord@buffer+4)^0,w,c
  1279  0009F2  260E               	addwf	(??_coord+2)^0,f,c
  1280  0009F4  0E00               	movlw	0
  1281  0009F6  220F               	addwfc	(??_coord+3)^0,f,c
  1282  0009F8  500C               	movf	??_coord^0,w,c
  1283  0009FA  260E               	addwf	(??_coord+2)^0,f,c
  1284  0009FC  500D               	movf	(??_coord+1)^0,w,c
  1285  0009FE  220F               	addwfc	(??_coord+3)^0,f,c
  1286  000A00  C006  FFD9         	movff	coord@x,fsr2l
  1287  000A04  C007  FFDA         	movff	coord@x+1,fsr2h
  1288  000A08  C00E  FFDE         	movff	??_coord+2,postinc2
  1289  000A0C  C00F  FFDD         	movff	??_coord+3,postdec2
  1290                           
  1291                           ;coordenadas.c: 67:             *y = 1*(buffer[CharacterY3]-48) + 10*(buffer[CharacterY2
      +                          ]-48) + 100*(buffer[CharacterY1]-48);
  1292  000A10  0E30               	movlw	48
  1293  000A12  6E0C               	movwf	??_coord^0,c
  1294  000A14  0EEB               	movlw	235
  1295  000A16  6E0D               	movwf	(??_coord+1)^0,c
  1296  000A18  5015               	movf	(coord@buffer+5)^0,w,c
  1297  000A1A  0D64               	mullw	100
  1298  000A1C  CFF3 F00E          	movff	prodl,??_coord+2
  1299  000A20  CFF4 F00F          	movff	prodh,??_coord+3
  1300  000A24  5016               	movf	(coord@buffer+6)^0,w,c
  1301  000A26  0D0A               	mullw	10
  1302  000A28  50F3               	movf	243,w,c
  1303  000A2A  260E               	addwf	(??_coord+2)^0,f,c
  1304  000A2C  50F4               	movf	244,w,c
  1305  000A2E  220F               	addwfc	(??_coord+3)^0,f,c
  1306  000A30  5017               	movf	(coord@buffer+7)^0,w,c
  1307  000A32  260E               	addwf	(??_coord+2)^0,f,c
  1308  000A34  0E00               	movlw	0
  1309  000A36  220F               	addwfc	(??_coord+3)^0,f,c
  1310  000A38  500C               	movf	??_coord^0,w,c
  1311  000A3A  260E               	addwf	(??_coord+2)^0,f,c
  1312  000A3C  500D               	movf	(??_coord+1)^0,w,c
  1313  000A3E  220F               	addwfc	(??_coord+3)^0,f,c
  1314  000A40  C008  FFD9         	movff	coord@y,fsr2l
  1315  000A44  C009  FFDA         	movff	coord@y+1,fsr2h
  1316  000A48  C00E  FFDE         	movff	??_coord+2,postinc2
  1317  000A4C  C00F  FFDD         	movff	??_coord+3,postdec2
  1318  000A50                     
  1319                           ;coordenadas.c: 69:             return 1;
  1320  000A50  0E00               	movlw	0
  1321  000A52  6E03               	movwf	(?_coord+1)^0,c
  1322  000A54  0E01               	movlw	1
  1323  000A56  6E02               	movwf	?_coord^0,c
  1324  000A58                     l204:
  1325  000A58  0012               	return		;funcret
  1326  000A5A                     __end_of_coord:
  1327                           	opt callstack 0
  1328                           
  1329 ;; *************** function _UARTRead *****************
  1330 ;; Defined at:
  1331 ;;		line 38 in file "UART.c"
  1332 ;; Parameters:    Size  Location     Type
  1333 ;;		None
  1334 ;; Auto vars:     Size  Location     Type
  1335 ;;  Lecture         1    0[COMRAM] unsigned char 
  1336 ;; Return value:  Size  Location     Type
  1337 ;;                  1    wreg      unsigned char 
  1338 ;; Registers used:
  1339 ;;		wreg, status,2
  1340 ;; Tracked objects:
  1341 ;;		On entry : 0/0
  1342 ;;		On exit  : 0/0
  1343 ;;		Unchanged: 0/0
  1344 ;; Data sizes:     COMRAM   BANK0   BANK1   BANK2   BANK3   BANK4   BANK5   BANK6   BANK7
  1345 ;;      Params:         0       0       0       0       0       0       0       0       0
  1346 ;;      Locals:         1       0       0       0       0       0       0       0       0
  1347 ;;      Temps:          0       0       0       0       0       0       0       0       0
  1348 ;;      Totals:         1       0       0       0       0       0       0       0       0
  1349 ;;Total ram usage:        1 bytes
  1350 ;; Hardware stack levels used:    1
  1351 ;; This function calls:
  1352 ;;		Nothing
  1353 ;; This function is called by:
  1354 ;;		_coord
  1355 ;; This function uses a non-reentrant model
  1356 ;;
  1357                           
  1358                           	psect	text6
  1359  0014B0                     __ptext6:
  1360                           	opt callstack 0
  1361  0014B0                     _UARTRead:
  1362                           	opt callstack 27
  1363  0014B0                     l141:
  1364  0014B0  AA9E               	btfss	158,5,c	;volatile
  1365  0014B2  EF5D  F00A         	goto	u21
  1366  0014B6  EF5F  F00A         	goto	u20
  1367  0014BA                     u21:
  1368  0014BA  EF58  F00A         	goto	l141
  1369  0014BE                     u20:
  1370  0014BE                     
  1371                           ;UART.c: 50:     Lecture = RCREG;
  1372  0014BE  CFAE F001          	movff	4014,UARTRead@Lecture	;volatile
  1373  0014C2                     
  1374                           ;UART.c: 51:     RCREG = 0;
  1375  0014C2  0E00               	movlw	0
  1376  0014C4  6EAE               	movwf	174,c	;volatile
  1377                           
  1378                           ;UART.c: 52:     return Lecture;
  1379  0014C6  5001               	movf	UARTRead@Lecture^0,w,c
  1380  0014C8  0012               	return		;funcret
  1381  0014CA                     __end_of_UARTRead:
  1382                           	opt callstack 0
  1383                           
  1384 ;; *************** function _Par_Validated *****************
  1385 ;; Defined at:
  1386 ;;		line 43 in file "cases.c"
  1387 ;; Parameters:    Size  Location     Type
  1388 ;;		None
  1389 ;; Auto vars:     Size  Location     Type
  1390 ;;		None
  1391 ;; Return value:  Size  Location     Type
  1392 ;;                  1    wreg      unsigned char 
  1393 ;; Registers used:
  1394 ;;		wreg, status,2, status,0, tblptrl, tblptrh, tblptru, cstack
  1395 ;; Tracked objects:
  1396 ;;		On entry : 0/0
  1397 ;;		On exit  : 0/0
  1398 ;;		Unchanged: 0/0
  1399 ;; Data sizes:     COMRAM   BANK0   BANK1   BANK2   BANK3   BANK4   BANK5   BANK6   BANK7
  1400 ;;      Params:         0       0       0       0       0       0       0       0       0
  1401 ;;      Locals:         0       0       0       0       0       0       0       0       0
  1402 ;;      Temps:          0       0       0       0       0       0       0       0       0
  1403 ;;      Totals:         0       0       0       0       0       0       0       0       0
  1404 ;;Total ram usage:        0 bytes
  1405 ;; Hardware stack levels used:    1
  1406 ;; Hardware stack levels required when called:    2
  1407 ;; This function calls:
  1408 ;;		_LEDerror
  1409 ;;		_UARTWrite
  1410 ;;		_myPrintf
  1411 ;; This function is called by:
  1412 ;;		_verification
  1413 ;; This function uses a non-reentrant model
  1414 ;;
  1415                           
  1416                           	psect	text7
  1417  001366                     __ptext7:
  1418                           	opt callstack 0
  1419  001366                     _Par_Validated:
  1420                           	opt callstack 27
  1421  001366                     
  1422                           ;cases.c: 45:     if(Par1==0X3C && Par2==0x3E)
  1423  001366  0E3C               	movlw	60
  1424  001368  183B               	xorwf	_Par1^0,w,c
  1425  00136A  A4D8               	btfss	status,2,c
  1426  00136C  EFBA  F009         	goto	u751
  1427  001370  EFBC  F009         	goto	u750
  1428  001374                     u751:
  1429  001374  EFC8  F009         	goto	l1985
  1430  001378                     u750:
  1431  001378  0E3E               	movlw	62
  1432  00137A  1839               	xorwf	_Par2^0,w,c
  1433  00137C  A4D8               	btfss	status,2,c
  1434  00137E  EFC3  F009         	goto	u761
  1435  001382  EFC5  F009         	goto	u760
  1436  001386                     u761:
  1437  001386  EFC8  F009         	goto	l1985
  1438  00138A                     u760:
  1439  00138A                     
  1440                           ;cases.c: 46:     {;cases.c: 47:         return validate_Instruct_State;
  1441  00138A  0E03               	movlw	3
  1442  00138C  EFD4  F009         	goto	l60
  1443  001390                     l1985:
  1444                           
  1445                           ;cases.c: 50:     {;cases.c: 52:         myPrintf("Frames are not inserted correctly");
  1446  001390  0E26               	movlw	low STR_4
  1447  001392  6E02               	movwf	myPrintf@PointString^0,c
  1448  001394  0E08               	movlw	high STR_4
  1449  001396  6E03               	movwf	(myPrintf@PointString+1)^0,c
  1450  001398  ECD8  F008         	call	_myPrintf	;wreg free
  1451  00139C                     
  1452                           ;cases.c: 53:         UARTWrite(0x0A);
  1453  00139C  0E0A               	movlw	10
  1454  00139E  EC7B  F00A         	call	_UARTWrite
  1455  0013A2                     
  1456                           ;cases.c: 58:         LEDerror();
  1457  0013A2  EC47  F00A         	call	_LEDerror	;wreg free
  1458  0013A6                     
  1459                           ;cases.c: 59:         return wait_cmd_State;
  1460  0013A6  0E01               	movlw	1
  1461  0013A8                     l60:
  1462  0013A8  0012               	return		;funcret
  1463  0013AA                     __end_of_Par_Validated:
  1464                           	opt callstack 0
  1465                           
  1466 ;; *************** function _Ins_Validated *****************
  1467 ;; Defined at:
  1468 ;;		line 63 in file "cases.c"
  1469 ;; Parameters:    Size  Location     Type
  1470 ;;		None
  1471 ;; Auto vars:     Size  Location     Type
  1472 ;;		None
  1473 ;; Return value:  Size  Location     Type
  1474 ;;                  1    wreg      unsigned char 
  1475 ;; Registers used:
  1476 ;;		wreg, status,2, status,0, tblptrl, tblptrh, tblptru, cstack
  1477 ;; Tracked objects:
  1478 ;;		On entry : 0/0
  1479 ;;		On exit  : 0/0
  1480 ;;		Unchanged: 0/0
  1481 ;; Data sizes:     COMRAM   BANK0   BANK1   BANK2   BANK3   BANK4   BANK5   BANK6   BANK7
  1482 ;;      Params:         0       0       0       0       0       0       0       0       0
  1483 ;;      Locals:         0       0       0       0       0       0       0       0       0
  1484 ;;      Temps:          0       0       0       0       0       0       0       0       0
  1485 ;;      Totals:         0       0       0       0       0       0       0       0       0
  1486 ;;Total ram usage:        0 bytes
  1487 ;; Hardware stack levels used:    1
  1488 ;; Hardware stack levels required when called:    2
  1489 ;; This function calls:
  1490 ;;		_LEDerror
  1491 ;;		_UARTWrite
  1492 ;;		_myPrintf
  1493 ;; This function is called by:
  1494 ;;		_verification
  1495 ;; This function uses a non-reentrant model
  1496 ;;
  1497                           
  1498                           	psect	text8
  1499  0012CA                     __ptext8:
  1500                           	opt callstack 0
  1501  0012CA                     _Ins_Validated:
  1502                           	opt callstack 27
  1503  0012CA                     
  1504                           ;cases.c: 65:     if(letter == 0x43)
  1505  0012CA  0E43               	movlw	67
  1506  0012CC  183A               	xorwf	_letter^0,w,c
  1507  0012CE  A4D8               	btfss	status,2,c
  1508  0012D0  EF6C  F009         	goto	u771
  1509  0012D4  EF6E  F009         	goto	u770
  1510  0012D8                     u771:
  1511  0012D8  EF73  F009         	goto	l2005
  1512  0012DC                     u770:
  1513  0012DC                     
  1514                           ;cases.c: 66:     {;cases.c: 67:         click=1;
  1515  0012DC  0E01               	movlw	1
  1516  0012DE  6E2F               	movwf	_click^0,c
  1517  0012E0                     l1999:
  1518                           
  1519                           ;cases.c: 68:         return validate_Coord_State;
  1520  0012E0  0E04               	movlw	4
  1521  0012E2  EF8C  F009         	goto	l65
  1522  0012E6                     l2005:
  1523  0012E6  0E53               	movlw	83
  1524  0012E8  183A               	xorwf	_letter^0,w,c
  1525  0012EA  A4D8               	btfss	status,2,c
  1526  0012EC  EF7A  F009         	goto	u781
  1527  0012F0  EF7C  F009         	goto	u780
  1528  0012F4                     u781:
  1529  0012F4  EF80  F009         	goto	l2015
  1530  0012F8                     u780:
  1531  0012F8                     
  1532                           ;cases.c: 72:     {;cases.c: 73:         click=0;
  1533  0012F8  0E00               	movlw	0
  1534  0012FA  6E2F               	movwf	_click^0,c
  1535  0012FC  EF70  F009         	goto	l1999
  1536  001300                     l2015:
  1537                           
  1538                           ;cases.c: 77:     {;cases.c: 80:         myPrintf("Touch Instrucction is not recognized"
      +                          );
  1539  001300  0E01               	movlw	low STR_5
  1540  001302  6E02               	movwf	myPrintf@PointString^0,c
  1541  001304  0E08               	movlw	high STR_5
  1542  001306  6E03               	movwf	(myPrintf@PointString+1)^0,c
  1543  001308  ECD8  F008         	call	_myPrintf	;wreg free
  1544  00130C                     
  1545                           ;cases.c: 81:         UARTWrite(0x0A);
  1546  00130C  0E0A               	movlw	10
  1547  00130E  EC7B  F00A         	call	_UARTWrite
  1548  001312                     
  1549                           ;cases.c: 86:         LEDerror();
  1550  001312  EC47  F00A         	call	_LEDerror	;wreg free
  1551  001316                     
  1552                           ;cases.c: 87:         return wait_cmd_State;
  1553  001316  0E01               	movlw	1
  1554  001318                     l65:
  1555  001318  0012               	return		;funcret
  1556  00131A                     __end_of_Ins_Validated:
  1557                           	opt callstack 0
  1558                           
  1559 ;; *************** function _Coord_Validated *****************
  1560 ;; Defined at:
  1561 ;;		line 91 in file "cases.c"
  1562 ;; Parameters:    Size  Location     Type
  1563 ;;		None
  1564 ;; Auto vars:     Size  Location     Type
  1565 ;;		None
  1566 ;; Return value:  Size  Location     Type
  1567 ;;                  1    wreg      unsigned char 
  1568 ;; Registers used:
  1569 ;;		wreg, status,2, status,0, tblptrl, tblptrh, tblptru, cstack
  1570 ;; Tracked objects:
  1571 ;;		On entry : 0/0
  1572 ;;		On exit  : 0/0
  1573 ;;		Unchanged: 0/0
  1574 ;; Data sizes:     COMRAM   BANK0   BANK1   BANK2   BANK3   BANK4   BANK5   BANK6   BANK7
  1575 ;;      Params:         0       0       0       0       0       0       0       0       0
  1576 ;;      Locals:         0       0       0       0       0       0       0       0       0
  1577 ;;      Temps:          0       0       0       0       0       0       0       0       0
  1578 ;;      Totals:         0       0       0       0       0       0       0       0       0
  1579 ;;Total ram usage:        0 bytes
  1580 ;; Hardware stack levels used:    1
  1581 ;; Hardware stack levels required when called:    2
  1582 ;; This function calls:
  1583 ;;		_LEDerror
  1584 ;;		_UARTWrite
  1585 ;;		_myPrintf
  1586 ;; This function is called by:
  1587 ;;		_verification
  1588 ;; This function uses a non-reentrant model
  1589 ;;
  1590                           
  1591                           	psect	text9
  1592  00131A                     __ptext9:
  1593                           	opt callstack 0
  1594  00131A                     _Coord_Validated:
  1595                           	opt callstack 27
  1596  00131A                     
  1597                           ;cases.c: 93:     if(cord_x<=300 && cord_y<=300)
  1598  00131A  0E2D               	movlw	45
  1599  00131C  5C37               	subwf	_cord_x^0,w,c
  1600  00131E  0E01               	movlw	1
  1601  001320  5838               	subwfb	(_cord_x+1)^0,w,c
  1602  001322  B0D8               	btfsc	status,0,c
  1603  001324  EF96  F009         	goto	u791
  1604  001328  EF98  F009         	goto	u790
  1605  00132C                     u791:
  1606  00132C  EFA6  F009         	goto	l2035
  1607  001330                     u790:
  1608  001330  0E2D               	movlw	45
  1609  001332  5C35               	subwf	_cord_y^0,w,c
  1610  001334  0E01               	movlw	1
  1611  001336  5836               	subwfb	(_cord_y+1)^0,w,c
  1612  001338  B0D8               	btfsc	status,0,c
  1613  00133A  EFA1  F009         	goto	u801
  1614  00133E  EFA3  F009         	goto	u800
  1615  001342                     u801:
  1616  001342  EFA6  F009         	goto	l2035
  1617  001346                     u800:
  1618  001346                     
  1619                           ;cases.c: 94:     {;cases.c: 95:         return end_State;
  1620  001346  0E05               	movlw	5
  1621  001348  EFB2  F009         	goto	l72
  1622  00134C                     l2035:
  1623                           
  1624                           ;cases.c: 98:     {;cases.c: 100:         myPrintf("Surpasses coordinates size");
  1625  00134C  0E65               	movlw	low STR_6
  1626  00134E  6E02               	movwf	myPrintf@PointString^0,c
  1627  001350  0E08               	movlw	high STR_6
  1628  001352  6E03               	movwf	(myPrintf@PointString+1)^0,c
  1629  001354  ECD8  F008         	call	_myPrintf	;wreg free
  1630  001358                     
  1631                           ;cases.c: 101:         UARTWrite(0x0A);
  1632  001358  0E0A               	movlw	10
  1633  00135A  EC7B  F00A         	call	_UARTWrite
  1634  00135E                     
  1635                           ;cases.c: 106:         LEDerror();
  1636  00135E  EC47  F00A         	call	_LEDerror	;wreg free
  1637  001362                     
  1638                           ;cases.c: 107:         return wait_cmd_State;
  1639  001362  0E01               	movlw	1
  1640  001364                     l72:
  1641  001364  0012               	return		;funcret
  1642  001366                     __end_of_Coord_Validated:
  1643                           	opt callstack 0
  1644                           
  1645 ;; *************** function _LEDerror *****************
  1646 ;; Defined at:
  1647 ;;		line 120 in file "cases.c"
  1648 ;; Parameters:    Size  Location     Type
  1649 ;;		None
  1650 ;; Auto vars:     Size  Location     Type
  1651 ;;		None
  1652 ;; Return value:  Size  Location     Type
  1653 ;;                  1    wreg      void 
  1654 ;; Registers used:
  1655 ;;		wreg
  1656 ;; Tracked objects:
  1657 ;;		On entry : 0/0
  1658 ;;		On exit  : 0/0
  1659 ;;		Unchanged: 0/0
  1660 ;; Data sizes:     COMRAM   BANK0   BANK1   BANK2   BANK3   BANK4   BANK5   BANK6   BANK7
  1661 ;;      Params:         0       0       0       0       0       0       0       0       0
  1662 ;;      Locals:         0       0       0       0       0       0       0       0       0
  1663 ;;      Temps:          2       0       0       0       0       0       0       0       0
  1664 ;;      Totals:         2       0       0       0       0       0       0       0       0
  1665 ;;Total ram usage:        2 bytes
  1666 ;; Hardware stack levels used:    1
  1667 ;; This function calls:
  1668 ;;		Nothing
  1669 ;; This function is called by:
  1670 ;;		_cmd
  1671 ;;		_Par_Validated
  1672 ;;		_Ins_Validated
  1673 ;;		_Coord_Validated
  1674 ;; This function uses a non-reentrant model
  1675 ;;
  1676                           
  1677                           	psect	text10
  1678  00148E                     __ptext10:
  1679                           	opt callstack 0
  1680  00148E                     _LEDerror:
  1681                           	opt callstack 28
  1682  00148E                     
  1683                           ;cases.c: 122:     PORTDbits.RD6 = 1;
  1684  00148E  8C83               	bsf	131,6,c	;volatile
  1685                           
  1686                           ;cases.c: 123:     PORTDbits.RD5 = 0;
  1687  001490  9A83               	bcf	131,5,c	;volatile
  1688  001492                     
  1689                           ;cases.c: 124:     _delay((unsigned long)((600)*(8000000L/4000.0)));
  1690  001492  0E07               	movlw	7
  1691  001494  6E02               	movwf	(??_LEDerror+1)^0,c
  1692  001496  0E17               	movlw	23
  1693  001498  6E01               	movwf	??_LEDerror^0,c
  1694  00149A  0E6A               	movlw	106
  1695  00149C                     u1017:
  1696  00149C  2EE8               	decfsz	wreg,f,c
  1697  00149E  D7FE               	bra	u1017
  1698  0014A0  2E01               	decfsz	??_LEDerror^0,f,c
  1699  0014A2  D7FC               	bra	u1017
  1700  0014A4  2E02               	decfsz	(??_LEDerror+1)^0,f,c
  1701  0014A6  D7FA               	bra	u1017
  1702  0014A8  D000               	nop2	
  1703  0014AA                     
  1704                           ;cases.c: 125:     PORTDbits.RD6 = 0;
  1705  0014AA  9C83               	bcf	131,6,c	;volatile
  1706  0014AC                     
  1707                           ;cases.c: 126:     PORTDbits.RD5 = 1;
  1708  0014AC  8A83               	bsf	131,5,c	;volatile
  1709  0014AE  0012               	return		;funcret
  1710  0014B0                     __end_of_LEDerror:
  1711                           	opt callstack 0
  1712                           
  1713 ;; *************** function _PrintMyActulPosition *****************
  1714 ;; Defined at:
  1715 ;;		line 38 in file "main.c"
  1716 ;; Parameters:    Size  Location     Type
  1717 ;;		None
  1718 ;; Auto vars:     Size  Location     Type
  1719 ;;  i               2   22[COMRAM] int 
  1720 ;;  i               2   20[COMRAM] int 
  1721 ;;  b               3   15[COMRAM] unsigned char [3]
  1722 ;;  a               3   12[COMRAM] unsigned char [3]
  1723 ;; Return value:  Size  Location     Type
  1724 ;;                  1    wreg      void 
  1725 ;; Registers used:
  1726 ;;		wreg, fsr2l, fsr2h, status,2, status,0, cstack
  1727 ;; Tracked objects:
  1728 ;;		On entry : 0/0
  1729 ;;		On exit  : 0/0
  1730 ;;		Unchanged: 0/0
  1731 ;; Data sizes:     COMRAM   BANK0   BANK1   BANK2   BANK3   BANK4   BANK5   BANK6   BANK7
  1732 ;;      Params:         0       0       0       0       0       0       0       0       0
  1733 ;;      Locals:        12       0       0       0       0       0       0       0       0
  1734 ;;      Temps:          0       0       0       0       0       0       0       0       0
  1735 ;;      Totals:        12       0       0       0       0       0       0       0       0
  1736 ;;Total ram usage:       12 bytes
  1737 ;; Hardware stack levels used:    1
  1738 ;; Hardware stack levels required when called:    1
  1739 ;; This function calls:
  1740 ;;		_UARTWrite
  1741 ;;		___lwdiv
  1742 ;;		___lwmod
  1743 ;; This function is called by:
  1744 ;;		_main
  1745 ;; This function uses a non-reentrant model
  1746 ;;
  1747                           
  1748                           	psect	text11
  1749  000BF4                     __ptext11:
  1750                           	opt callstack 0
  1751  000BF4                     _PrintMyActulPosition:
  1752                           	opt callstack 29
  1753  000BF4                     
  1754                           ;main.c: 41:         char a[3];;main.c: 42:         char b[3];;main.c: 44:         a[0]=
      +                          (CoordAntX/100)+48;
  1755  000BF4  C03E  F006         	movff	_CoordAntX,___lwdiv@dividend
  1756  000BF8  C03F  F007         	movff	_CoordAntX+1,___lwdiv@dividend+1
  1757  000BFC  0E00               	movlw	0
  1758  000BFE  6E09               	movwf	(___lwdiv@divisor+1)^0,c
  1759  000C00  0E64               	movlw	100
  1760  000C02  6E08               	movwf	___lwdiv@divisor^0,c
  1761  000C04  EC90  F007         	call	___lwdiv	;wreg free
  1762  000C08  5006               	movf	?___lwdiv^0,w,c
  1763  000C0A  0F30               	addlw	48
  1764  000C0C  6E0D               	movwf	PrintMyActulPosition@a^0,c
  1765                           
  1766                           ;main.c: 45:         a[1]=((CoordAntX%100)/10)+48;
  1767  000C0E  0E00               	movlw	0
  1768  000C10  6E04               	movwf	(___lwmod@divisor+1)^0,c
  1769  000C12  0E64               	movlw	100
  1770  000C14  6E03               	movwf	___lwmod@divisor^0,c
  1771  000C16  C03E  F001         	movff	_CoordAntX,___lwmod@dividend
  1772  000C1A  C03F  F002         	movff	_CoordAntX+1,___lwmod@dividend+1
  1773  000C1E  ECA6  F008         	call	___lwmod	;wreg free
  1774  000C22  C001  F006         	movff	?___lwmod,___lwdiv@dividend
  1775  000C26  C002  F007         	movff	?___lwmod+1,___lwdiv@dividend+1
  1776  000C2A  0E00               	movlw	0
  1777  000C2C  6E09               	movwf	(___lwdiv@divisor+1)^0,c
  1778  000C2E  0E0A               	movlw	10
  1779  000C30  6E08               	movwf	___lwdiv@divisor^0,c
  1780  000C32  EC90  F007         	call	___lwdiv	;wreg free
  1781  000C36  5006               	movf	?___lwdiv^0,w,c
  1782  000C38  0F30               	addlw	48
  1783  000C3A  6E0E               	movwf	(PrintMyActulPosition@a+1)^0,c
  1784                           
  1785                           ;main.c: 46:         a[2]=((CoordAntX%100)%10)+48;
  1786  000C3C  0E00               	movlw	0
  1787  000C3E  6E04               	movwf	(___lwmod@divisor+1)^0,c
  1788  000C40  0E64               	movlw	100
  1789  000C42  6E03               	movwf	___lwmod@divisor^0,c
  1790  000C44  C03E  F001         	movff	_CoordAntX,___lwmod@dividend
  1791  000C48  C03F  F002         	movff	_CoordAntX+1,___lwmod@dividend+1
  1792  000C4C  ECA6  F008         	call	___lwmod	;wreg free
  1793  000C50  C001  F013         	movff	?___lwmod,_PrintMyActulPosition$1708
  1794  000C54  C002  F014         	movff	?___lwmod+1,_PrintMyActulPosition$1708+1
  1795                           
  1796                           ;main.c: 46:         a[2]=((CoordAntX%100)%10)+48;
  1797  000C58  C013  F001         	movff	_PrintMyActulPosition$1708,___lwmod@dividend
  1798  000C5C  C014  F002         	movff	_PrintMyActulPosition$1708+1,___lwmod@dividend+1
  1799  000C60  0E00               	movlw	0
  1800  000C62  6E04               	movwf	(___lwmod@divisor+1)^0,c
  1801  000C64  0E0A               	movlw	10
  1802  000C66  6E03               	movwf	___lwmod@divisor^0,c
  1803  000C68  ECA6  F008         	call	___lwmod	;wreg free
  1804  000C6C  5001               	movf	?___lwmod^0,w,c
  1805  000C6E  0F30               	addlw	48
  1806  000C70  6E0F               	movwf	(PrintMyActulPosition@a+2)^0,c
  1807                           
  1808                           ;main.c: 48:         b[0]=(CoordAntY/100)+48;
  1809  000C72  C03C  F006         	movff	_CoordAntY,___lwdiv@dividend
  1810  000C76  C03D  F007         	movff	_CoordAntY+1,___lwdiv@dividend+1
  1811  000C7A  0E00               	movlw	0
  1812  000C7C  6E09               	movwf	(___lwdiv@divisor+1)^0,c
  1813  000C7E  0E64               	movlw	100
  1814  000C80  6E08               	movwf	___lwdiv@divisor^0,c
  1815  000C82  EC90  F007         	call	___lwdiv	;wreg free
  1816  000C86  5006               	movf	?___lwdiv^0,w,c
  1817  000C88  0F30               	addlw	48
  1818  000C8A  6E10               	movwf	PrintMyActulPosition@b^0,c
  1819                           
  1820                           ;main.c: 49:         b[1]=((CoordAntY%100)/10)+48;
  1821  000C8C  0E00               	movlw	0
  1822  000C8E  6E04               	movwf	(___lwmod@divisor+1)^0,c
  1823  000C90  0E64               	movlw	100
  1824  000C92  6E03               	movwf	___lwmod@divisor^0,c
  1825  000C94  C03C  F001         	movff	_CoordAntY,___lwmod@dividend
  1826  000C98  C03D  F002         	movff	_CoordAntY+1,___lwmod@dividend+1
  1827  000C9C  ECA6  F008         	call	___lwmod	;wreg free
  1828  000CA0  C001  F006         	movff	?___lwmod,___lwdiv@dividend
  1829  000CA4  C002  F007         	movff	?___lwmod+1,___lwdiv@dividend+1
  1830  000CA8  0E00               	movlw	0
  1831  000CAA  6E09               	movwf	(___lwdiv@divisor+1)^0,c
  1832  000CAC  0E0A               	movlw	10
  1833  000CAE  6E08               	movwf	___lwdiv@divisor^0,c
  1834  000CB0  EC90  F007         	call	___lwdiv	;wreg free
  1835  000CB4  5006               	movf	?___lwdiv^0,w,c
  1836  000CB6  0F30               	addlw	48
  1837  000CB8  6E11               	movwf	(PrintMyActulPosition@b+1)^0,c
  1838                           
  1839                           ;main.c: 50:         b[2]=((CoordAntY%100)%10)+48;
  1840  000CBA  0E00               	movlw	0
  1841  000CBC  6E04               	movwf	(___lwmod@divisor+1)^0,c
  1842  000CBE  0E64               	movlw	100
  1843  000CC0  6E03               	movwf	___lwmod@divisor^0,c
  1844  000CC2  C03C  F001         	movff	_CoordAntY,___lwmod@dividend
  1845  000CC6  C03D  F002         	movff	_CoordAntY+1,___lwmod@dividend+1
  1846  000CCA  ECA6  F008         	call	___lwmod	;wreg free
  1847  000CCE  C001  F013         	movff	?___lwmod,_PrintMyActulPosition$1708
  1848  000CD2  C002  F014         	movff	?___lwmod+1,_PrintMyActulPosition$1708+1
  1849                           
  1850                           ;main.c: 50:         b[2]=((CoordAntY%100)%10)+48;
  1851  000CD6  C013  F001         	movff	_PrintMyActulPosition$1708,___lwmod@dividend
  1852  000CDA  C014  F002         	movff	_PrintMyActulPosition$1708+1,___lwmod@dividend+1
  1853  000CDE  0E00               	movlw	0
  1854  000CE0  6E04               	movwf	(___lwmod@divisor+1)^0,c
  1855  000CE2  0E0A               	movlw	10
  1856  000CE4  6E03               	movwf	___lwmod@divisor^0,c
  1857  000CE6  ECA6  F008         	call	___lwmod	;wreg free
  1858  000CEA  5001               	movf	?___lwmod^0,w,c
  1859  000CEC  0F30               	addlw	48
  1860  000CEE  6E12               	movwf	(PrintMyActulPosition@b+2)^0,c
  1861  000CF0                     
  1862                           ;main.c: 52:         for(int i=0; i<3; i++){
  1863  000CF0  0E00               	movlw	0
  1864  000CF2  6E16               	movwf	(PrintMyActulPosition@i+1)^0,c
  1865  000CF4  0E00               	movlw	0
  1866  000CF6  6E15               	movwf	PrintMyActulPosition@i^0,c
  1867  000CF8                     l2229:
  1868                           
  1869                           ;main.c: 54:             UARTWrite(a[i]);
  1870  000CF8  0E0D               	movlw	low PrintMyActulPosition@a
  1871  000CFA  2415               	addwf	PrintMyActulPosition@i^0,w,c
  1872  000CFC  6ED9               	movwf	fsr2l,c
  1873  000CFE  0E00               	movlw	high PrintMyActulPosition@a
  1874  000D00  2016               	addwfc	(PrintMyActulPosition@i+1)^0,w,c
  1875  000D02  6EDA               	movwf	fsr2h,c
  1876  000D04  50DF               	movf	indf2,w,c
  1877  000D06  EC7B  F00A         	call	_UARTWrite
  1878  000D0A                     
  1879                           ;main.c: 55:         }
  1880  000D0A  4A15               	infsnz	PrintMyActulPosition@i^0,f,c
  1881  000D0C  2A16               	incf	(PrintMyActulPosition@i+1)^0,f,c
  1882  000D0E  BE16               	btfsc	(PrintMyActulPosition@i+1)^0,7,c
  1883  000D10  EF93  F006         	goto	u961
  1884  000D14  5016               	movf	(PrintMyActulPosition@i+1)^0,w,c
  1885  000D16  E109               	bnz	u960
  1886  000D18  0E03               	movlw	3
  1887  000D1A  5C15               	subwf	PrintMyActulPosition@i^0,w,c
  1888  000D1C  A0D8               	btfss	status,0,c
  1889  000D1E  EF93  F006         	goto	u961
  1890  000D22  EF95  F006         	goto	u960
  1891  000D26                     u961:
  1892  000D26  EF7C  F006         	goto	l2229
  1893  000D2A                     u960:
  1894  000D2A                     
  1895                           ;main.c: 56:         UARTWrite(0x2C);
  1896  000D2A  0E2C               	movlw	44
  1897  000D2C  EC7B  F00A         	call	_UARTWrite
  1898  000D30                     
  1899                           ;main.c: 57:         for(int i=0; i<3; i++){
  1900  000D30  0E00               	movlw	0
  1901  000D32  6E18               	movwf	(PrintMyActulPosition@i_741+1)^0,c
  1902  000D34  0E00               	movlw	0
  1903  000D36  6E17               	movwf	PrintMyActulPosition@i_741^0,c
  1904  000D38                     l2243:
  1905                           
  1906                           ;main.c: 59:             UARTWrite(b[i]);
  1907  000D38  0E10               	movlw	low PrintMyActulPosition@b
  1908  000D3A  2417               	addwf	PrintMyActulPosition@i_741^0,w,c
  1909  000D3C  6ED9               	movwf	fsr2l,c
  1910  000D3E  0E00               	movlw	high PrintMyActulPosition@b
  1911  000D40  2018               	addwfc	(PrintMyActulPosition@i_741+1)^0,w,c
  1912  000D42  6EDA               	movwf	fsr2h,c
  1913  000D44  50DF               	movf	indf2,w,c
  1914  000D46  EC7B  F00A         	call	_UARTWrite
  1915  000D4A                     
  1916                           ;main.c: 60:         }
  1917  000D4A  4A17               	infsnz	PrintMyActulPosition@i_741^0,f,c
  1918  000D4C  2A18               	incf	(PrintMyActulPosition@i_741+1)^0,f,c
  1919  000D4E  BE18               	btfsc	(PrintMyActulPosition@i_741+1)^0,7,c
  1920  000D50  EFB3  F006         	goto	u971
  1921  000D54  5018               	movf	(PrintMyActulPosition@i_741+1)^0,w,c
  1922  000D56  E109               	bnz	u970
  1923  000D58  0E03               	movlw	3
  1924  000D5A  5C17               	subwf	PrintMyActulPosition@i_741^0,w,c
  1925  000D5C  A0D8               	btfss	status,0,c
  1926  000D5E  EFB3  F006         	goto	u971
  1927  000D62  EFB5  F006         	goto	u970
  1928  000D66                     u971:
  1929  000D66  EF9C  F006         	goto	l2243
  1930  000D6A                     u970:
  1931  000D6A  0012               	return		;funcret
  1932  000D6C                     __end_of_PrintMyActulPosition:
  1933                           	opt callstack 0
  1934                           
  1935 ;; *************** function ___lwmod *****************
  1936 ;; Defined at:
  1937 ;;		line 7 in file "C:\Program Files (x86)\Microchip\xc8\v2.10\pic\sources\c99\common\lwmod.c"
  1938 ;; Parameters:    Size  Location     Type
  1939 ;;  dividend        2    0[COMRAM] unsigned int 
  1940 ;;  divisor         2    2[COMRAM] unsigned int 
  1941 ;; Auto vars:     Size  Location     Type
  1942 ;;  counter         1    4[COMRAM] unsigned char 
  1943 ;; Return value:  Size  Location     Type
  1944 ;;                  2    0[COMRAM] unsigned int 
  1945 ;; Registers used:
  1946 ;;		wreg, status,2, status,0
  1947 ;; Tracked objects:
  1948 ;;		On entry : 0/0
  1949 ;;		On exit  : 0/0
  1950 ;;		Unchanged: 0/0
  1951 ;; Data sizes:     COMRAM   BANK0   BANK1   BANK2   BANK3   BANK4   BANK5   BANK6   BANK7
  1952 ;;      Params:         4       0       0       0       0       0       0       0       0
  1953 ;;      Locals:         1       0       0       0       0       0       0       0       0
  1954 ;;      Temps:          0       0       0       0       0       0       0       0       0
  1955 ;;      Totals:         5       0       0       0       0       0       0       0       0
  1956 ;;Total ram usage:        5 bytes
  1957 ;; Hardware stack levels used:    1
  1958 ;; This function calls:
  1959 ;;		Nothing
  1960 ;; This function is called by:
  1961 ;;		_PrintMyActulPosition
  1962 ;; This function uses a non-reentrant model
  1963 ;;
  1964                           
  1965                           	psect	text12
  1966  00114C                     __ptext12:
  1967                           	opt callstack 0
  1968  00114C                     ___lwmod:
  1969                           	opt callstack 29
  1970  00114C  5003               	movf	___lwmod@divisor^0,w,c
  1971  00114E  1004               	iorwf	(___lwmod@divisor+1)^0,w,c
  1972  001150  B4D8               	btfsc	status,2,c
  1973  001152  EFAD  F008         	goto	u921
  1974  001156  EFAF  F008         	goto	u920
  1975  00115A                     u921:
  1976  00115A  EFD3  F008         	goto	l1071
  1977  00115E                     u920:
  1978  00115E  0E01               	movlw	1
  1979  001160  6E05               	movwf	___lwmod@counter^0,c
  1980  001162  EFB7  F008         	goto	l2155
  1981  001166                     l2153:
  1982  001166  90D8               	bcf	status,0,c
  1983  001168  3603               	rlcf	___lwmod@divisor^0,f,c
  1984  00116A  3604               	rlcf	(___lwmod@divisor+1)^0,f,c
  1985  00116C  2A05               	incf	___lwmod@counter^0,f,c
  1986  00116E                     l2155:
  1987  00116E  AE04               	btfss	(___lwmod@divisor+1)^0,7,c
  1988  001170  EFBC  F008         	goto	u931
  1989  001174  EFBE  F008         	goto	u930
  1990  001178                     u931:
  1991  001178  EFB3  F008         	goto	l2153
  1992  00117C                     u930:
  1993  00117C                     l2157:
  1994  00117C  5003               	movf	___lwmod@divisor^0,w,c
  1995  00117E  5C01               	subwf	___lwmod@dividend^0,w,c
  1996  001180  5004               	movf	(___lwmod@divisor+1)^0,w,c
  1997  001182  5802               	subwfb	(___lwmod@dividend+1)^0,w,c
  1998  001184  A0D8               	btfss	status,0,c
  1999  001186  EFC7  F008         	goto	u941
  2000  00118A  EFC9  F008         	goto	u940
  2001  00118E                     u941:
  2002  00118E  EFCD  F008         	goto	l2161
  2003  001192                     u940:
  2004  001192  5003               	movf	___lwmod@divisor^0,w,c
  2005  001194  5E01               	subwf	___lwmod@dividend^0,f,c
  2006  001196  5004               	movf	(___lwmod@divisor+1)^0,w,c
  2007  001198  5A02               	subwfb	(___lwmod@dividend+1)^0,f,c
  2008  00119A                     l2161:
  2009  00119A  90D8               	bcf	status,0,c
  2010  00119C  3204               	rrcf	(___lwmod@divisor+1)^0,f,c
  2011  00119E  3203               	rrcf	___lwmod@divisor^0,f,c
  2012  0011A0  2E05               	decfsz	___lwmod@counter^0,f,c
  2013  0011A2  EFBE  F008         	goto	l2157
  2014  0011A6                     l1071:
  2015  0011A6  C001  F001         	movff	___lwmod@dividend,?___lwmod
  2016  0011AA  C002  F002         	movff	___lwmod@dividend+1,?___lwmod+1
  2017  0011AE  0012               	return		;funcret
  2018  0011B0                     __end_of___lwmod:
  2019                           	opt callstack 0
  2020                           
  2021 ;; *************** function ___lwdiv *****************
  2022 ;; Defined at:
  2023 ;;		line 7 in file "C:\Program Files (x86)\Microchip\xc8\v2.10\pic\sources\c99\common\lwdiv.c"
  2024 ;; Parameters:    Size  Location     Type
  2025 ;;  dividend        2    5[COMRAM] unsigned int 
  2026 ;;  divisor         2    7[COMRAM] unsigned int 
  2027 ;; Auto vars:     Size  Location     Type
  2028 ;;  quotient        2    9[COMRAM] unsigned int 
  2029 ;;  counter         1   11[COMRAM] unsigned char 
  2030 ;; Return value:  Size  Location     Type
  2031 ;;                  2    5[COMRAM] unsigned int 
  2032 ;; Registers used:
  2033 ;;		wreg, status,2, status,0
  2034 ;; Tracked objects:
  2035 ;;		On entry : 0/0
  2036 ;;		On exit  : 0/0
  2037 ;;		Unchanged: 0/0
  2038 ;; Data sizes:     COMRAM   BANK0   BANK1   BANK2   BANK3   BANK4   BANK5   BANK6   BANK7
  2039 ;;      Params:         4       0       0       0       0       0       0       0       0
  2040 ;;      Locals:         3       0       0       0       0       0       0       0       0
  2041 ;;      Temps:          0       0       0       0       0       0       0       0       0
  2042 ;;      Totals:         7       0       0       0       0       0       0       0       0
  2043 ;;Total ram usage:        7 bytes
  2044 ;; Hardware stack levels used:    1
  2045 ;; This function calls:
  2046 ;;		Nothing
  2047 ;; This function is called by:
  2048 ;;		_PrintMyActulPosition
  2049 ;; This function uses a non-reentrant model
  2050 ;;
  2051                           
  2052                           	psect	text13
  2053  000F20                     __ptext13:
  2054                           	opt callstack 0
  2055  000F20                     ___lwdiv:
  2056                           	opt callstack 29
  2057  000F20  0E00               	movlw	0
  2058  000F22  6E0B               	movwf	(___lwdiv@quotient+1)^0,c
  2059  000F24  0E00               	movlw	0
  2060  000F26  6E0A               	movwf	___lwdiv@quotient^0,c
  2061  000F28  5008               	movf	___lwdiv@divisor^0,w,c
  2062  000F2A  1009               	iorwf	(___lwdiv@divisor+1)^0,w,c
  2063  000F2C  B4D8               	btfsc	status,2,c
  2064  000F2E  EF9B  F007         	goto	u891
  2065  000F32  EF9D  F007         	goto	u890
  2066  000F36                     u891:
  2067  000F36  EFC5  F007         	goto	l1061
  2068  000F3A                     u890:
  2069  000F3A  0E01               	movlw	1
  2070  000F3C  6E0C               	movwf	___lwdiv@counter^0,c
  2071  000F3E  EFA5  F007         	goto	l2135
  2072  000F42                     l2133:
  2073  000F42  90D8               	bcf	status,0,c
  2074  000F44  3608               	rlcf	___lwdiv@divisor^0,f,c
  2075  000F46  3609               	rlcf	(___lwdiv@divisor+1)^0,f,c
  2076  000F48  2A0C               	incf	___lwdiv@counter^0,f,c
  2077  000F4A                     l2135:
  2078  000F4A  AE09               	btfss	(___lwdiv@divisor+1)^0,7,c
  2079  000F4C  EFAA  F007         	goto	u901
  2080  000F50  EFAC  F007         	goto	u900
  2081  000F54                     u901:
  2082  000F54  EFA1  F007         	goto	l2133
  2083  000F58                     u900:
  2084  000F58                     l2137:
  2085  000F58  90D8               	bcf	status,0,c
  2086  000F5A  360A               	rlcf	___lwdiv@quotient^0,f,c
  2087  000F5C  360B               	rlcf	(___lwdiv@quotient+1)^0,f,c
  2088  000F5E  5008               	movf	___lwdiv@divisor^0,w,c
  2089  000F60  5C06               	subwf	___lwdiv@dividend^0,w,c
  2090  000F62  5009               	movf	(___lwdiv@divisor+1)^0,w,c
  2091  000F64  5807               	subwfb	(___lwdiv@dividend+1)^0,w,c
  2092  000F66  A0D8               	btfss	status,0,c
  2093  000F68  EFB8  F007         	goto	u911
  2094  000F6C  EFBA  F007         	goto	u910
  2095  000F70                     u911:
  2096  000F70  EFBF  F007         	goto	l2145
  2097  000F74                     u910:
  2098  000F74  5008               	movf	___lwdiv@divisor^0,w,c
  2099  000F76  5E06               	subwf	___lwdiv@dividend^0,f,c
  2100  000F78  5009               	movf	(___lwdiv@divisor+1)^0,w,c
  2101  000F7A  5A07               	subwfb	(___lwdiv@dividend+1)^0,f,c
  2102  000F7C  800A               	bsf	___lwdiv@quotient^0,0,c
  2103  000F7E                     l2145:
  2104  000F7E  90D8               	bcf	status,0,c
  2105  000F80  3209               	rrcf	(___lwdiv@divisor+1)^0,f,c
  2106  000F82  3208               	rrcf	___lwdiv@divisor^0,f,c
  2107  000F84  2E0C               	decfsz	___lwdiv@counter^0,f,c
  2108  000F86  EFAC  F007         	goto	l2137
  2109  000F8A                     l1061:
  2110  000F8A  C00A  F006         	movff	___lwdiv@quotient,?___lwdiv
  2111  000F8E  C00B  F007         	movff	___lwdiv@quotient+1,?___lwdiv+1
  2112  000F92  0012               	return		;funcret
  2113  000F94                     __end_of___lwdiv:
  2114                           	opt callstack 0
  2115                           
  2116 ;; *************** function _Movement *****************
  2117 ;; Defined at:
  2118 ;;		line 13 in file "Movimiento.c"
  2119 ;; Parameters:    Size  Location     Type
  2120 ;;		None
  2121 ;; Auto vars:     Size  Location     Type
  2122 ;;		None
  2123 ;; Return value:  Size  Location     Type
  2124 ;;                  2  217[None  ] int 
  2125 ;; Registers used:
  2126 ;;		wreg, status,2, status,0, tblptrl, tblptrh, tblptru, prodl, prodh, cstack
  2127 ;; Tracked objects:
  2128 ;;		On entry : 0/0
  2129 ;;		On exit  : 0/0
  2130 ;;		Unchanged: 0/0
  2131 ;; Data sizes:     COMRAM   BANK0   BANK1   BANK2   BANK3   BANK4   BANK5   BANK6   BANK7
  2132 ;;      Params:         0       0       0       0       0       0       0       0       0
  2133 ;;      Locals:         0       0       0       0       0       0       0       0       0
  2134 ;;      Temps:          2       0       0       0       0       0       0       0       0
  2135 ;;      Totals:         2       0       0       0       0       0       0       0       0
  2136 ;;Total ram usage:        2 bytes
  2137 ;; Hardware stack levels used:    1
  2138 ;; Hardware stack levels required when called:    3
  2139 ;; This function calls:
  2140 ;;		_PWM
  2141 ;;		_myPrintf
  2142 ;; This function is called by:
  2143 ;;		_main
  2144 ;; This function uses a non-reentrant model
  2145 ;;
  2146                           
  2147                           	psect	text14
  2148  001076                     __ptext14:
  2149                           	opt callstack 0
  2150  001076                     _Movement:
  2151                           	opt callstack 27
  2152  001076                     
  2153                           ;Movimiento.c: 15:     if(click == 1){
  2154  001076  042F               	decf	_click^0,w,c
  2155  001078  A4D8               	btfss	status,2,c
  2156  00107A  EF41  F008         	goto	u981
  2157  00107E  EF43  F008         	goto	u980
  2158  001082                     u981:
  2159  001082  EF5A  F008         	goto	l2261
  2160  001086                     u980:
  2161  001086                     
  2162                           ;Movimiento.c: 16:         PWM();
  2163  001086  EC2D  F005         	call	_PWM	;wreg free
  2164  00108A                     
  2165                           ;Movimiento.c: 17:         PORTDbits.RD7=1;
  2166  00108A  8E83               	bsf	131,7,c	;volatile
  2167  00108C                     
  2168                           ;Movimiento.c: 18:         _delay((unsigned long)((1200)*(8000000L/4000.0)));
  2169  00108C  0E0D               	movlw	13
  2170  00108E  6E08               	movwf	(??_Movement+1)^0,c
  2171  001090  0E2D               	movlw	45
  2172  001092  6E07               	movwf	??_Movement^0,c
  2173  001094  0ED8               	movlw	216
  2174  001096                     u1027:
  2175  001096  2EE8               	decfsz	wreg,f,c
  2176  001098  D7FE               	bra	u1027
  2177  00109A  2E07               	decfsz	??_Movement^0,f,c
  2178  00109C  D7FC               	bra	u1027
  2179  00109E  2E08               	decfsz	(??_Movement+1)^0,f,c
  2180  0010A0  D7FA               	bra	u1027
  2181  0010A2                     
  2182                           ;Movimiento.c: 19:         PORTDbits.RD7=0;
  2183  0010A2  9E83               	bcf	131,7,c	;volatile
  2184  0010A4                     
  2185                           ;Movimiento.c: 20:         myPrintf("Click");
  2186  0010A4  0EB0               	movlw	low STR_8
  2187  0010A6  6E02               	movwf	myPrintf@PointString^0,c
  2188  0010A8  0E08               	movlw	high STR_8
  2189  0010AA  6E03               	movwf	(myPrintf@PointString+1)^0,c
  2190  0010AC  ECD8  F008         	call	_myPrintf	;wreg free
  2191                           
  2192                           ;Movimiento.c: 21:     }
  2193  0010B0  EF6C  F008         	goto	l2271
  2194  0010B4                     l2261:
  2195                           
  2196                           ;Movimiento.c: 23:         if(click == 0)
  2197  0010B4  502F               	movf	_click^0,w,c
  2198  0010B6  A4D8               	btfss	status,2,c
  2199  0010B8  EF60  F008         	goto	u991
  2200  0010BC  EF62  F008         	goto	u990
  2201  0010C0                     u991:
  2202  0010C0  EF6C  F008         	goto	l2271
  2203  0010C4                     u990:
  2204  0010C4                     
  2205                           ;Movimiento.c: 24:         {;Movimiento.c: 25:             PORTDbits.RD7=1;
  2206  0010C4  8E83               	bsf	131,7,c	;volatile
  2207  0010C6                     
  2208                           ;Movimiento.c: 26:             PWM();
  2209  0010C6  EC2D  F005         	call	_PWM	;wreg free
  2210  0010CA                     
  2211                           ;Movimiento.c: 27:             PORTDbits.RD7=0;
  2212  0010CA  9E83               	bcf	131,7,c	;volatile
  2213  0010CC                     
  2214                           ;Movimiento.c: 28:             myPrintf("Slide");
  2215  0010CC  0EAA               	movlw	low STR_9
  2216  0010CE  6E02               	movwf	myPrintf@PointString^0,c
  2217  0010D0  0E08               	movlw	high STR_9
  2218  0010D2  6E03               	movwf	(myPrintf@PointString+1)^0,c
  2219  0010D4  ECD8  F008         	call	_myPrintf	;wreg free
  2220  0010D8                     l2271:
  2221                           
  2222                           ;Movimiento.c: 32:     ControlFlagVerification = 1;
  2223  0010D8  0E00               	movlw	0
  2224  0010DA  6E2E               	movwf	(_ControlFlagVerification+1)^0,c
  2225  0010DC  0E01               	movlw	1
  2226  0010DE  6E2D               	movwf	_ControlFlagVerification^0,c
  2227  0010E0  0012               	return		;funcret
  2228  0010E2                     __end_of_Movement:
  2229                           	opt callstack 0
  2230                           
  2231 ;; *************** function _myPrintf *****************
  2232 ;; Defined at:
  2233 ;;		line 63 in file "main.c"
  2234 ;; Parameters:    Size  Location     Type
  2235 ;;  PointString     2    1[COMRAM] PTR unsigned char 
  2236 ;;		 -> STR_9(6), STR_8(6), STR_7(17), STR_6(27), 
  2237 ;;		 -> STR_5(37), STR_4(34), STR_3(29), STR_2(14), 
  2238 ;;		 -> STR_1(11), 
  2239 ;; Auto vars:     Size  Location     Type
  2240 ;;  i               1    5[COMRAM] unsigned char 
  2241 ;; Return value:  Size  Location     Type
  2242 ;;                  1    wreg      void 
  2243 ;; Registers used:
  2244 ;;		wreg, status,2, status,0, tblptrl, tblptrh, tblptru, cstack
  2245 ;; Tracked objects:
  2246 ;;		On entry : 0/0
  2247 ;;		On exit  : 0/0
  2248 ;;		Unchanged: 0/0
  2249 ;; Data sizes:     COMRAM   BANK0   BANK1   BANK2   BANK3   BANK4   BANK5   BANK6   BANK7
  2250 ;;      Params:         2       0       0       0       0       0       0       0       0
  2251 ;;      Locals:         1       0       0       0       0       0       0       0       0
  2252 ;;      Temps:          2       0       0       0       0       0       0       0       0
  2253 ;;      Totals:         5       0       0       0       0       0       0       0       0
  2254 ;;Total ram usage:        5 bytes
  2255 ;; Hardware stack levels used:    1
  2256 ;; Hardware stack levels required when called:    1
  2257 ;; This function calls:
  2258 ;;		_UARTWrite
  2259 ;; This function is called by:
  2260 ;;		_start
  2261 ;;		_cmd
  2262 ;;		_Par_Validated
  2263 ;;		_Ins_Validated
  2264 ;;		_Coord_Validated
  2265 ;;		_end
  2266 ;;		_Movement
  2267 ;; This function uses a non-reentrant model
  2268 ;;
  2269                           
  2270                           	psect	text15
  2271  0011B0                     __ptext15:
  2272                           	opt callstack 0
  2273  0011B0                     _myPrintf:
  2274                           	opt callstack 27
  2275  0011B0                     
  2276                           ;main.c: 63: void myPrintf(unsigned char *PointString);main.c: 64: {;main.c: 65:     for
      +                           (unsigned char i = 0; i < 255; i++) {
  2277  0011B0  0E00               	movlw	0
  2278  0011B2  6E06               	movwf	myPrintf@i^0,c
  2279  0011B4                     l1805:
  2280                           
  2281                           ;main.c: 66:         if (PointString[i] == ((void*)0)) {
  2282  0011B4  5006               	movf	myPrintf@i^0,w,c
  2283  0011B6  2402               	addwf	myPrintf@PointString^0,w,c
  2284  0011B8  6E04               	movwf	??_myPrintf^0,c
  2285  0011BA  0E00               	movlw	0
  2286  0011BC  2003               	addwfc	(myPrintf@PointString+1)^0,w,c
  2287  0011BE  6E05               	movwf	(??_myPrintf+1)^0,c
  2288  0011C0  C004  FFF6         	movff	??_myPrintf,tblptrl
  2289  0011C4  C005  FFF7         	movff	??_myPrintf+1,tblptrh
  2290  0011C8                     	if	0	;tblptru may be non-zero
  2291  0011C8                     	endif
  2292  0011C8                     	if	0	;tblptru may be non-zero
  2293  0011C8                     	endif
  2294  0011C8  0008               	tblrd		*
  2295  0011CA  50F5               	movf	tablat,w,c
  2296  0011CC  0900               	iorlw	0
  2297  0011CE  A4D8               	btfss	status,2,c
  2298  0011D0  EFEC  F008         	goto	u561
  2299  0011D4  EFEE  F008         	goto	u560
  2300  0011D8                     u561:
  2301  0011D8  EFF0  F008         	goto	l1811
  2302  0011DC                     u560:
  2303  0011DC  EF07  F009         	goto	l279
  2304  0011E0                     l1811:
  2305                           
  2306                           ;main.c: 69:             UARTWrite(PointString[i]);
  2307  0011E0  5006               	movf	myPrintf@i^0,w,c
  2308  0011E2  2402               	addwf	myPrintf@PointString^0,w,c
  2309  0011E4  6E04               	movwf	??_myPrintf^0,c
  2310  0011E6  0E00               	movlw	0
  2311  0011E8  2003               	addwfc	(myPrintf@PointString+1)^0,w,c
  2312  0011EA  6E05               	movwf	(??_myPrintf+1)^0,c
  2313  0011EC  C004  FFF6         	movff	??_myPrintf,tblptrl
  2314  0011F0  C005  FFF7         	movff	??_myPrintf+1,tblptrh
  2315  0011F4                     	if	0	;tblptru may be non-zero
  2316  0011F4                     	endif
  2317  0011F4                     	if	0	;tblptru may be non-zero
  2318  0011F4                     	endif
  2319  0011F4  0008               	tblrd		*
  2320  0011F6  50F5               	movf	tablat,w,c
  2321  0011F8  EC7B  F00A         	call	_UARTWrite
  2322  0011FC                     
  2323                           ;main.c: 70:     }
  2324  0011FC  2A06               	incf	myPrintf@i^0,f,c
  2325  0011FE  2806               	incf	myPrintf@i^0,w,c
  2326  001200  A4D8               	btfss	status,2,c
  2327  001202  EF05  F009         	goto	u571
  2328  001206  EF07  F009         	goto	u570
  2329  00120A                     u571:
  2330  00120A  EFDA  F008         	goto	l1805
  2331  00120E                     u570:
  2332  00120E                     l279:
  2333  00120E  0012               	return		;funcret
  2334  001210                     __end_of_myPrintf:
  2335                           	opt callstack 0
  2336                           
  2337 ;; *************** function _UARTWrite *****************
  2338 ;; Defined at:
  2339 ;;		line 32 in file "UART.c"
  2340 ;; Parameters:    Size  Location     Type
  2341 ;;  data            1    wreg     unsigned char 
  2342 ;; Auto vars:     Size  Location     Type
  2343 ;;  data            1    0[COMRAM] unsigned char 
  2344 ;; Return value:  Size  Location     Type
  2345 ;;                  1    wreg      void 
  2346 ;; Registers used:
  2347 ;;		wreg
  2348 ;; Tracked objects:
  2349 ;;		On entry : 0/0
  2350 ;;		On exit  : 0/0
  2351 ;;		Unchanged: 0/0
  2352 ;; Data sizes:     COMRAM   BANK0   BANK1   BANK2   BANK3   BANK4   BANK5   BANK6   BANK7
  2353 ;;      Params:         0       0       0       0       0       0       0       0       0
  2354 ;;      Locals:         1       0       0       0       0       0       0       0       0
  2355 ;;      Temps:          0       0       0       0       0       0       0       0       0
  2356 ;;      Totals:         1       0       0       0       0       0       0       0       0
  2357 ;;Total ram usage:        1 bytes
  2358 ;; Hardware stack levels used:    1
  2359 ;; This function calls:
  2360 ;;		Nothing
  2361 ;; This function is called by:
  2362 ;;		_start
  2363 ;;		_cmd
  2364 ;;		_Par_Validated
  2365 ;;		_Ins_Validated
  2366 ;;		_Coord_Validated
  2367 ;;		_end
  2368 ;;		_PrintMyActulPosition
  2369 ;;		_myPrintf
  2370 ;; This function uses a non-reentrant model
  2371 ;;
  2372                           
  2373                           	psect	text16
  2374  0014F6                     __ptext16:
  2375                           	opt callstack 0
  2376  0014F6                     _UARTWrite:
  2377                           	opt callstack 27
  2378                           
  2379                           ;incstack = 0
  2380                           ;UARTWrite@data stored from wreg
  2381  0014F6  6E01               	movwf	UARTWrite@data^0,c
  2382  0014F8                     l135:
  2383  0014F8  A89E               	btfss	158,4,c	;volatile
  2384  0014FA  EF81  F00A         	goto	u551
  2385  0014FE  EF83  F00A         	goto	u550
  2386  001502                     u551:
  2387  001502  EF7C  F00A         	goto	l135
  2388  001506                     u550:
  2389  001506                     
  2390                           ;UART.c: 34:     TXREG= data;
  2391  001506  C001  FFAD         	movff	UARTWrite@data,4013	;volatile
  2392  00150A  0012               	return		;funcret
  2393  00150C                     __end_of_UARTWrite:
  2394                           	opt callstack 0
  2395                           
  2396 ;; *************** function _PWM *****************
  2397 ;; Defined at:
  2398 ;;		line 22 in file "PWM.c"
  2399 ;; Parameters:    Size  Location     Type
  2400 ;;		None
  2401 ;; Auto vars:     Size  Location     Type
  2402 ;;		None
  2403 ;; Return value:  Size  Location     Type
  2404 ;;                  1    wreg      void 
  2405 ;; Registers used:
  2406 ;;		wreg, status,2, status,0, prodl, prodh, cstack
  2407 ;; Tracked objects:
  2408 ;;		On entry : 0/0
  2409 ;;		On exit  : 0/0
  2410 ;;		Unchanged: 0/0
  2411 ;; Data sizes:     COMRAM   BANK0   BANK1   BANK2   BANK3   BANK4   BANK5   BANK6   BANK7
  2412 ;;      Params:         0       0       0       0       0       0       0       0       0
  2413 ;;      Locals:         0       0       0       0       0       0       0       0       0
  2414 ;;      Temps:          0       0       0       0       0       0       0       0       0
  2415 ;;      Totals:         0       0       0       0       0       0       0       0       0
  2416 ;;Total ram usage:        0 bytes
  2417 ;; Hardware stack levels used:    1
  2418 ;; Hardware stack levels required when called:    2
  2419 ;; This function calls:
  2420 ;;		_ContarPulsos
  2421 ;;		___wmul
  2422 ;; This function is called by:
  2423 ;;		_Movement
  2424 ;; This function uses a non-reentrant model
  2425 ;;
  2426                           
  2427                           	psect	text17
  2428  000A5A                     __ptext17:
  2429                           	opt callstack 0
  2430  000A5A                     _PWM:
  2431                           	opt callstack 27
  2432  000A5A                     
  2433                           ;PWM.c: 24:     FlagDirectionX= 1;
  2434  000A5A  0E00               	movlw	0
  2435  000A5C  6E24               	movwf	(_FlagDirectionX+1)^0,c
  2436  000A5E  0E01               	movlw	1
  2437  000A60  6E23               	movwf	_FlagDirectionX^0,c
  2438                           
  2439                           ;PWM.c: 25:     FlagDirectionY= 1;
  2440  000A62  0E00               	movlw	0
  2441  000A64  6E22               	movwf	(_FlagDirectionY+1)^0,c
  2442  000A66  0E01               	movlw	1
  2443  000A68  6E21               	movwf	_FlagDirectionY^0,c
  2444  000A6A                     
  2445                           ;PWM.c: 28:     if(CoordAntX==0)
  2446  000A6A  503E               	movf	_CoordAntX^0,w,c
  2447  000A6C  103F               	iorwf	(_CoordAntX+1)^0,w,c
  2448  000A6E  A4D8               	btfss	status,2,c
  2449  000A70  EF3C  F005         	goto	u811
  2450  000A74  EF3E  F005         	goto	u810
  2451  000A78                     u811:
  2452  000A78  EF44  F005         	goto	l2079
  2453  000A7C                     u810:
  2454  000A7C                     
  2455                           ;PWM.c: 29:     {;PWM.c: 30:         CoordRelatX=cord_x;
  2456  000A7C  C037  F033         	movff	_cord_x,_CoordRelatX
  2457  000A80  C038  F034         	movff	_cord_x+1,_CoordRelatX+1
  2458                           
  2459                           ;PWM.c: 31:     }else{
  2460  000A84  EF4A  F005         	goto	l340
  2461  000A88                     l2079:
  2462                           
  2463                           ;PWM.c: 32:         CoordRelatX=cord_x-CoordAntX;
  2464  000A88  503E               	movf	_CoordAntX^0,w,c
  2465  000A8A  5C37               	subwf	_cord_x^0,w,c
  2466  000A8C  6E33               	movwf	_CoordRelatX^0,c
  2467  000A8E  503F               	movf	(_CoordAntX+1)^0,w,c
  2468  000A90  5838               	subwfb	(_cord_x+1)^0,w,c
  2469  000A92  6E34               	movwf	(_CoordRelatX+1)^0,c
  2470  000A94                     l340:
  2471                           
  2472                           ;PWM.c: 36:     if (CoordRelatX<0)
  2473  000A94  BE34               	btfsc	(_CoordRelatX+1)^0,7,c
  2474  000A96  EF51  F005         	goto	u820
  2475  000A9A  EF4F  F005         	goto	u821
  2476  000A9E                     u821:
  2477  000A9E  EF5D  F005         	goto	l341
  2478  000AA2                     u820:
  2479  000AA2                     
  2480                           ;PWM.c: 37:     {;PWM.c: 38:         PORTDbits.RD0= 1;
  2481  000AA2  8083               	bsf	131,0,c	;volatile
  2482                           
  2483                           ;PWM.c: 39:         PORTDbits.RD1= 1;
  2484  000AA4  8283               	bsf	131,1,c	;volatile
  2485  000AA6                     
  2486                           ;PWM.c: 40:         CoordRelatX=CoordRelatX*(-1);
  2487  000AA6  6C33               	negf	_CoordRelatX^0,c
  2488  000AA8  1E34               	comf	(_CoordRelatX+1)^0,f,c
  2489  000AAA  B0D8               	btfsc	status,0,c
  2490  000AAC  2A34               	incf	(_CoordRelatX+1)^0,f,c
  2491  000AAE                     
  2492                           ;PWM.c: 41:         FlagDirectionX= 0;
  2493  000AAE  0E00               	movlw	0
  2494  000AB0  6E24               	movwf	(_FlagDirectionX+1)^0,c
  2495  000AB2  0E00               	movlw	0
  2496  000AB4  6E23               	movwf	_FlagDirectionX^0,c
  2497                           
  2498                           ;PWM.c: 42:     }
  2499  000AB6  EF63  F005         	goto	l2089
  2500  000ABA                     l341:
  2501                           
  2502                           ;PWM.c: 44:             PORTDbits.RD0= 0;
  2503  000ABA  9083               	bcf	131,0,c	;volatile
  2504                           
  2505                           ;PWM.c: 45:             PORTDbits.RD1= 0;
  2506  000ABC  9283               	bcf	131,1,c	;volatile
  2507  000ABE                     
  2508                           ;PWM.c: 46:             FlagDirectionX= 1;
  2509  000ABE  0E00               	movlw	0
  2510  000AC0  6E24               	movwf	(_FlagDirectionX+1)^0,c
  2511  000AC2  0E01               	movlw	1
  2512  000AC4  6E23               	movwf	_FlagDirectionX^0,c
  2513  000AC6                     l2089:
  2514                           
  2515                           ;PWM.c: 49:     StepsOnX=CoordRelatX*5;
  2516  000AC6  C033  F001         	movff	_CoordRelatX,___wmul@multiplier
  2517  000ACA  C034  F002         	movff	_CoordRelatX+1,___wmul@multiplier+1
  2518  000ACE  0E00               	movlw	0
  2519  000AD0  6E04               	movwf	(___wmul@multiplicand+1)^0,c
  2520  000AD2  0E05               	movlw	5
  2521  000AD4  6E03               	movwf	___wmul@multiplicand^0,c
  2522  000AD6  EC23  F00A         	call	___wmul	;wreg free
  2523  000ADA  C001  F027         	movff	?___wmul,_StepsOnX
  2524  000ADE  C002  F028         	movff	?___wmul+1,_StepsOnX+1
  2525  000AE2                     
  2526                           ;PWM.c: 50:     ContarPulsos(StepsOnX);
  2527  000AE2  C027  F001         	movff	_StepsOnX,ContarPulsos@pasos
  2528  000AE6  C028  F002         	movff	_StepsOnX+1,ContarPulsos@pasos+1
  2529  000AEA  EC37  F009         	call	_ContarPulsos	;wreg free
  2530  000AEE                     
  2531                           ;PWM.c: 53:     if(FlagDirectionX==0)
  2532  000AEE  5023               	movf	_FlagDirectionX^0,w,c
  2533  000AF0  1024               	iorwf	(_FlagDirectionX+1)^0,w,c
  2534  000AF2  A4D8               	btfss	status,2,c
  2535  000AF4  EF7E  F005         	goto	u831
  2536  000AF8  EF80  F005         	goto	u830
  2537  000AFC                     u831:
  2538  000AFC  EF88  F005         	goto	l2097
  2539  000B00                     u830:
  2540  000B00                     
  2541                           ;PWM.c: 54:     {;PWM.c: 55:         CoordAntX= CoordAntX-CoordRelatX;
  2542  000B00  5033               	movf	_CoordRelatX^0,w,c
  2543  000B02  5C3E               	subwf	_CoordAntX^0,w,c
  2544  000B04  6E3E               	movwf	_CoordAntX^0,c
  2545  000B06  5034               	movf	(_CoordRelatX+1)^0,w,c
  2546  000B08  583F               	subwfb	(_CoordAntX+1)^0,w,c
  2547  000B0A  6E3F               	movwf	(_CoordAntX+1)^0,c
  2548                           
  2549                           ;PWM.c: 56:     }
  2550  000B0C  EF97  F005         	goto	l344
  2551  000B10                     l2097:
  2552                           
  2553                           ;PWM.c: 58:         if(FlagDirectionX== 1)
  2554  000B10  0423               	decf	_FlagDirectionX^0,w,c
  2555  000B12  1024               	iorwf	(_FlagDirectionX+1)^0,w,c
  2556  000B14  A4D8               	btfss	status,2,c
  2557  000B16  EF8F  F005         	goto	u841
  2558  000B1A  EF91  F005         	goto	u840
  2559  000B1E                     u841:
  2560  000B1E  EF97  F005         	goto	l344
  2561  000B22                     u840:
  2562  000B22                     
  2563                           ;PWM.c: 59:         {;PWM.c: 60:             CoordAntX=CoordAntX+CoordRelatX;
  2564  000B22  503E               	movf	_CoordAntX^0,w,c
  2565  000B24  2433               	addwf	_CoordRelatX^0,w,c
  2566  000B26  6E3E               	movwf	_CoordAntX^0,c
  2567  000B28  503F               	movf	(_CoordAntX+1)^0,w,c
  2568  000B2A  2034               	addwfc	(_CoordRelatX+1)^0,w,c
  2569  000B2C  6E3F               	movwf	(_CoordAntX+1)^0,c
  2570  000B2E                     l344:
  2571                           
  2572                           ;PWM.c: 66:     if(CoordAntY==0)
  2573  000B2E  503C               	movf	_CoordAntY^0,w,c
  2574  000B30  103D               	iorwf	(_CoordAntY+1)^0,w,c
  2575  000B32  A4D8               	btfss	status,2,c
  2576  000B34  EF9E  F005         	goto	u851
  2577  000B38  EFA0  F005         	goto	u850
  2578  000B3C                     u851:
  2579  000B3C  EFA6  F005         	goto	l2103
  2580  000B40                     u850:
  2581  000B40                     
  2582                           ;PWM.c: 67:     {;PWM.c: 68:         CoordRelatY=cord_y;
  2583  000B40  C035  F031         	movff	_cord_y,_CoordRelatY
  2584  000B44  C036  F032         	movff	_cord_y+1,_CoordRelatY+1
  2585                           
  2586                           ;PWM.c: 69:     }
  2587  000B48  EFAC  F005         	goto	l347
  2588  000B4C                     l2103:
  2589                           
  2590                           ;PWM.c: 71:             CoordRelatY=cord_y-CoordAntY;
  2591  000B4C  503C               	movf	_CoordAntY^0,w,c
  2592  000B4E  5C35               	subwf	_cord_y^0,w,c
  2593  000B50  6E31               	movwf	_CoordRelatY^0,c
  2594  000B52  503D               	movf	(_CoordAntY+1)^0,w,c
  2595  000B54  5836               	subwfb	(_cord_y+1)^0,w,c
  2596  000B56  6E32               	movwf	(_CoordRelatY+1)^0,c
  2597  000B58                     l347:
  2598                           
  2599                           ;PWM.c: 73:     if(CoordRelatY<0)
  2600  000B58  BE32               	btfsc	(_CoordRelatY+1)^0,7,c
  2601  000B5A  EFB3  F005         	goto	u860
  2602  000B5E  EFB1  F005         	goto	u861
  2603  000B62                     u861:
  2604  000B62  EFBF  F005         	goto	l348
  2605  000B66                     u860:
  2606  000B66                     
  2607                           ;PWM.c: 74:     {;PWM.c: 75:         PORTDbits.RD0= 0;
  2608  000B66  9083               	bcf	131,0,c	;volatile
  2609                           
  2610                           ;PWM.c: 76:         PORTDbits.RD1= 1;
  2611  000B68  8283               	bsf	131,1,c	;volatile
  2612  000B6A                     
  2613                           ;PWM.c: 77:         CoordRelatY=CoordRelatY*(-1);
  2614  000B6A  6C31               	negf	_CoordRelatY^0,c
  2615  000B6C  1E32               	comf	(_CoordRelatY+1)^0,f,c
  2616  000B6E  B0D8               	btfsc	status,0,c
  2617  000B70  2A32               	incf	(_CoordRelatY+1)^0,f,c
  2618  000B72                     
  2619                           ;PWM.c: 78:         FlagDirectionY= 0;
  2620  000B72  0E00               	movlw	0
  2621  000B74  6E22               	movwf	(_FlagDirectionY+1)^0,c
  2622  000B76  0E00               	movlw	0
  2623  000B78  6E21               	movwf	_FlagDirectionY^0,c
  2624                           
  2625                           ;PWM.c: 79:     }
  2626  000B7A  EFC5  F005         	goto	l2113
  2627  000B7E                     l348:
  2628                           
  2629                           ;PWM.c: 81:         PORTDbits.RD0= 1;
  2630  000B7E  8083               	bsf	131,0,c	;volatile
  2631                           
  2632                           ;PWM.c: 82:         PORTDbits.RD1= 0;
  2633  000B80  9283               	bcf	131,1,c	;volatile
  2634  000B82                     
  2635                           ;PWM.c: 83:         FlagDirectionY= 1;
  2636  000B82  0E00               	movlw	0
  2637  000B84  6E22               	movwf	(_FlagDirectionY+1)^0,c
  2638  000B86  0E01               	movlw	1
  2639  000B88  6E21               	movwf	_FlagDirectionY^0,c
  2640  000B8A                     l2113:
  2641                           
  2642                           ;PWM.c: 86:     StepsOnY=CoordRelatY*5;
  2643  000B8A  C031  F001         	movff	_CoordRelatY,___wmul@multiplier
  2644  000B8E  C032  F002         	movff	_CoordRelatY+1,___wmul@multiplier+1
  2645  000B92  0E00               	movlw	0
  2646  000B94  6E04               	movwf	(___wmul@multiplicand+1)^0,c
  2647  000B96  0E05               	movlw	5
  2648  000B98  6E03               	movwf	___wmul@multiplicand^0,c
  2649  000B9A  EC23  F00A         	call	___wmul	;wreg free
  2650  000B9E  C001  F025         	movff	?___wmul,_StepsOnY
  2651  000BA2  C002  F026         	movff	?___wmul+1,_StepsOnY+1
  2652  000BA6                     
  2653                           ;PWM.c: 87:     ContarPulsos(StepsOnY);
  2654  000BA6  C025  F001         	movff	_StepsOnY,ContarPulsos@pasos
  2655  000BAA  C026  F002         	movff	_StepsOnY+1,ContarPulsos@pasos+1
  2656  000BAE  EC37  F009         	call	_ContarPulsos	;wreg free
  2657  000BB2                     
  2658                           ;PWM.c: 90:     if(FlagDirectionY== 0)
  2659  000BB2  5021               	movf	_FlagDirectionY^0,w,c
  2660  000BB4  1022               	iorwf	(_FlagDirectionY+1)^0,w,c
  2661  000BB6  A4D8               	btfss	status,2,c
  2662  000BB8  EFE0  F005         	goto	u871
  2663  000BBC  EFE2  F005         	goto	u870
  2664  000BC0                     u871:
  2665  000BC0  EFEA  F005         	goto	l2121
  2666  000BC4                     u870:
  2667  000BC4                     
  2668                           ;PWM.c: 91:     {;PWM.c: 92:         CoordAntY= CoordAntY-CoordRelatY;
  2669  000BC4  5031               	movf	_CoordRelatY^0,w,c
  2670  000BC6  5C3C               	subwf	_CoordAntY^0,w,c
  2671  000BC8  6E3C               	movwf	_CoordAntY^0,c
  2672  000BCA  5032               	movf	(_CoordRelatY+1)^0,w,c
  2673  000BCC  583D               	subwfb	(_CoordAntY+1)^0,w,c
  2674  000BCE  6E3D               	movwf	(_CoordAntY+1)^0,c
  2675                           
  2676                           ;PWM.c: 93:     }
  2677  000BD0  EFF9  F005         	goto	l353
  2678  000BD4                     l2121:
  2679                           
  2680                           ;PWM.c: 95:             if(FlagDirectionY==1)
  2681  000BD4  0421               	decf	_FlagDirectionY^0,w,c
  2682  000BD6  1022               	iorwf	(_FlagDirectionY+1)^0,w,c
  2683  000BD8  A4D8               	btfss	status,2,c
  2684  000BDA  EFF1  F005         	goto	u881
  2685  000BDE  EFF3  F005         	goto	u880
  2686  000BE2                     u881:
  2687  000BE2  EFF9  F005         	goto	l353
  2688  000BE6                     u880:
  2689  000BE6                     
  2690                           ;PWM.c: 96:             {;PWM.c: 97:                 CoordAntY=CoordAntY+CoordRelatY;
  2691  000BE6  503C               	movf	_CoordAntY^0,w,c
  2692  000BE8  2431               	addwf	_CoordRelatY^0,w,c
  2693  000BEA  6E3C               	movwf	_CoordAntY^0,c
  2694  000BEC  503D               	movf	(_CoordAntY+1)^0,w,c
  2695  000BEE  2032               	addwfc	(_CoordRelatY+1)^0,w,c
  2696  000BF0  6E3D               	movwf	(_CoordAntY+1)^0,c
  2697  000BF2                     l353:
  2698  000BF2  0012               	return		;funcret
  2699  000BF4                     __end_of_PWM:
  2700                           	opt callstack 0
  2701                           
  2702 ;; *************** function ___wmul *****************
  2703 ;; Defined at:
  2704 ;;		line 15 in file "C:\Program Files (x86)\Microchip\xc8\v2.10\pic\sources\c99\common\Umul16.c"
  2705 ;; Parameters:    Size  Location     Type
  2706 ;;  multiplier      2    0[COMRAM] unsigned int 
  2707 ;;  multiplicand    2    2[COMRAM] unsigned int 
  2708 ;; Auto vars:     Size  Location     Type
  2709 ;;  product         2    4[COMRAM] unsigned int 
  2710 ;; Return value:  Size  Location     Type
  2711 ;;                  2    0[COMRAM] unsigned int 
  2712 ;; Registers used:
  2713 ;;		wreg, status,2, status,0, prodl, prodh
  2714 ;; Tracked objects:
  2715 ;;		On entry : 0/0
  2716 ;;		On exit  : 0/0
  2717 ;;		Unchanged: 0/0
  2718 ;; Data sizes:     COMRAM   BANK0   BANK1   BANK2   BANK3   BANK4   BANK5   BANK6   BANK7
  2719 ;;      Params:         4       0       0       0       0       0       0       0       0
  2720 ;;      Locals:         2       0       0       0       0       0       0       0       0
  2721 ;;      Temps:          0       0       0       0       0       0       0       0       0
  2722 ;;      Totals:         6       0       0       0       0       0       0       0       0
  2723 ;;Total ram usage:        6 bytes
  2724 ;; Hardware stack levels used:    1
  2725 ;; This function calls:
  2726 ;;		Nothing
  2727 ;; This function is called by:
  2728 ;;		_PWM
  2729 ;; This function uses a non-reentrant model
  2730 ;;
  2731                           
  2732                           	psect	text18
  2733  001446                     __ptext18:
  2734                           	opt callstack 0
  2735  001446                     ___wmul:
  2736                           	opt callstack 28
  2737  001446  5001               	movf	___wmul@multiplier^0,w,c
  2738  001448  0203               	mulwf	___wmul@multiplicand^0,c
  2739  00144A  CFF3 F005          	movff	prodl,___wmul@product
  2740  00144E  CFF4 F006          	movff	prodh,___wmul@product+1
  2741  001452  5001               	movf	___wmul@multiplier^0,w,c
  2742  001454  0204               	mulwf	(___wmul@multiplicand+1)^0,c
  2743  001456  50F3               	movf	243,w,c
  2744  001458  2606               	addwf	(___wmul@product+1)^0,f,c
  2745  00145A  5002               	movf	(___wmul@multiplier+1)^0,w,c
  2746  00145C  0203               	mulwf	___wmul@multiplicand^0,c
  2747  00145E  50F3               	movf	243,w,c
  2748  001460  2606               	addwf	(___wmul@product+1)^0,f,c
  2749  001462  C005  F001         	movff	___wmul@product,?___wmul
  2750  001466  C006  F002         	movff	___wmul@product+1,?___wmul+1
  2751  00146A  0012               	return		;funcret
  2752  00146C                     __end_of___wmul:
  2753                           	opt callstack 0
  2754                           
  2755 ;; *************** function _ContarPulsos *****************
  2756 ;; Defined at:
  2757 ;;		line 103 in file "PWM.c"
  2758 ;; Parameters:    Size  Location     Type
  2759 ;;  pasos           2    0[COMRAM] int 
  2760 ;; Auto vars:     Size  Location     Type
  2761 ;;		None
  2762 ;; Return value:  Size  Location     Type
  2763 ;;                  1    wreg      void 
  2764 ;; Registers used:
  2765 ;;		wreg, status,2, status,0, cstack
  2766 ;; Tracked objects:
  2767 ;;		On entry : 0/0
  2768 ;;		On exit  : 0/0
  2769 ;;		Unchanged: 0/0
  2770 ;; Data sizes:     COMRAM   BANK0   BANK1   BANK2   BANK3   BANK4   BANK5   BANK6   BANK7
  2771 ;;      Params:         2       0       0       0       0       0       0       0       0
  2772 ;;      Locals:         0       0       0       0       0       0       0       0       0
  2773 ;;      Temps:          0       0       0       0       0       0       0       0       0
  2774 ;;      Totals:         2       0       0       0       0       0       0       0       0
  2775 ;;Total ram usage:        2 bytes
  2776 ;; Hardware stack levels used:    1
  2777 ;; Hardware stack levels required when called:    1
  2778 ;; This function calls:
  2779 ;;		_OneShot
  2780 ;;		_ResetOneShot
  2781 ;; This function is called by:
  2782 ;;		_PWM
  2783 ;; This function uses a non-reentrant model
  2784 ;;
  2785                           
  2786                           	psect	text19
  2787  00126E                     __ptext19:
  2788                           	opt callstack 0
  2789  00126E                     _ContarPulsos:
  2790                           	opt callstack 27
  2791  00126E                     
  2792                           ;PWM.c: 103: void ContarPulsos(int pasos);PWM.c: 104: {;PWM.c: 105:     ActualSteps=0;
  2793  00126E  0E00               	movlw	0
  2794  001270  6E2C               	movwf	(_ActualSteps+1)^0,c
  2795  001272  0E00               	movlw	0
  2796  001274  6E2B               	movwf	_ActualSteps^0,c
  2797                           
  2798                           ;PWM.c: 106:     ons=0;
  2799  001276  0E00               	movlw	0
  2800  001278  6E2A               	movwf	(_ons+1)^0,c
  2801  00127A  0E00               	movlw	0
  2802  00127C  6E29               	movwf	_ons^0,c
  2803  00127E                     
  2804                           ;PWM.c: 107:     PORTDbits.RD2= 0;
  2805  00127E  9483               	bcf	131,2,c	;volatile
  2806  001280                     
  2807                           ;PWM.c: 108:     PORTDbits.RD3= 0;
  2808  001280  9683               	bcf	131,3,c	;volatile
  2809                           
  2810                           ;PWM.c: 109:     while(ActualSteps< pasos)
  2811  001282  EF57  F009         	goto	l1893
  2812  001286                     l357:
  2813                           
  2814                           ;PWM.c: 110:     {;PWM.c: 111:         if (PORTCbits.CCP1==1)
  2815  001286  A482               	btfss	130,2,c	;volatile
  2816  001288  EF48  F009         	goto	u651
  2817  00128C  EF4A  F009         	goto	u650
  2818  001290                     u651:
  2819  001290  EF4C  F009         	goto	l1889
  2820  001294                     u650:
  2821  001294                     
  2822                           ;PWM.c: 112:         {;PWM.c: 113:             OneShot();
  2823  001294  ECF5  F009         	call	_OneShot	;wreg free
  2824  001298                     l1889:
  2825                           
  2826                           ;PWM.c: 115:         if(ons==1)
  2827  001298  0429               	decf	_ons^0,w,c
  2828  00129A  102A               	iorwf	(_ons+1)^0,w,c
  2829  00129C  A4D8               	btfss	status,2,c
  2830  00129E  EF53  F009         	goto	u661
  2831  0012A2  EF55  F009         	goto	u660
  2832  0012A6                     u661:
  2833  0012A6  EF57  F009         	goto	l1893
  2834  0012AA                     u660:
  2835  0012AA                     
  2836                           ;PWM.c: 116:         {;PWM.c: 117:             ResetOneShot();
  2837  0012AA  EC0E  F00A         	call	_ResetOneShot	;wreg free
  2838  0012AE                     l1893:
  2839                           
  2840                           ;PWM.c: 109:     while(ActualSteps< pasos)
  2841  0012AE  5001               	movf	ContarPulsos@pasos^0,w,c
  2842  0012B0  5C2B               	subwf	_ActualSteps^0,w,c
  2843  0012B2  5002               	movf	(ContarPulsos@pasos+1)^0,w,c
  2844  0012B4  582C               	subwfb	(_ActualSteps+1)^0,w,c
  2845  0012B6  A0D8               	btfss	status,0,c
  2846  0012B8  EF60  F009         	goto	u671
  2847  0012BC  EF62  F009         	goto	u670
  2848  0012C0                     u671:
  2849  0012C0  EF43  F009         	goto	l357
  2850  0012C4                     u670:
  2851  0012C4                     
  2852                           ;PWM.c: 121:     PORTDbits.RD2= 1;
  2853  0012C4  8483               	bsf	131,2,c	;volatile
  2854                           
  2855                           ;PWM.c: 122:     PORTDbits.RD3= 1;
  2856  0012C6  8683               	bsf	131,3,c	;volatile
  2857  0012C8  0012               	return		;funcret
  2858  0012CA                     __end_of_ContarPulsos:
  2859                           	opt callstack 0
  2860                           
  2861 ;; *************** function _ResetOneShot *****************
  2862 ;; Defined at:
  2863 ;;		line 141 in file "PWM.c"
  2864 ;; Parameters:    Size  Location     Type
  2865 ;;		None
  2866 ;; Auto vars:     Size  Location     Type
  2867 ;;		None
  2868 ;; Return value:  Size  Location     Type
  2869 ;;                  1    wreg      void 
  2870 ;; Registers used:
  2871 ;;		wreg, status,2
  2872 ;; Tracked objects:
  2873 ;;		On entry : 0/0
  2874 ;;		On exit  : 0/0
  2875 ;;		Unchanged: 0/0
  2876 ;; Data sizes:     COMRAM   BANK0   BANK1   BANK2   BANK3   BANK4   BANK5   BANK6   BANK7
  2877 ;;      Params:         0       0       0       0       0       0       0       0       0
  2878 ;;      Locals:         0       0       0       0       0       0       0       0       0
  2879 ;;      Temps:          0       0       0       0       0       0       0       0       0
  2880 ;;      Totals:         0       0       0       0       0       0       0       0       0
  2881 ;;Total ram usage:        0 bytes
  2882 ;; Hardware stack levels used:    1
  2883 ;; This function calls:
  2884 ;;		Nothing
  2885 ;; This function is called by:
  2886 ;;		_ContarPulsos
  2887 ;; This function uses a non-reentrant model
  2888 ;;
  2889                           
  2890                           	psect	text20
  2891  00141C                     __ptext20:
  2892                           	opt callstack 0
  2893  00141C                     _ResetOneShot:
  2894                           	opt callstack 27
  2895  00141C                     
  2896                           ;PWM.c: 143:     if(PORTCbits.CCP1==1)
  2897  00141C  A482               	btfss	130,2,c	;volatile
  2898  00141E  EF13  F00A         	goto	u51
  2899  001422  EF15  F00A         	goto	u50
  2900  001426                     u51:
  2901  001426  EF17  F00A         	goto	l369
  2902  00142A                     u50:
  2903  00142A  EF22  F00A         	goto	l370
  2904  00142E                     l369:
  2905                           
  2906                           ;PWM.c: 147:     if(PORTCbits.CCP1==0)
  2907  00142E  B482               	btfsc	130,2,c	;volatile
  2908  001430  EF1C  F00A         	goto	u61
  2909  001434  EF1E  F00A         	goto	u60
  2910  001438                     u61:
  2911  001438  EF22  F00A         	goto	l370
  2912  00143C                     u60:
  2913  00143C                     
  2914                           ;PWM.c: 148:     {;PWM.c: 149:         ons=0;
  2915  00143C  0E00               	movlw	0
  2916  00143E  6E2A               	movwf	(_ons+1)^0,c
  2917  001440  0E00               	movlw	0
  2918  001442  6E29               	movwf	_ons^0,c
  2919  001444                     l370:
  2920  001444  0012               	return		;funcret
  2921  001446                     __end_of_ResetOneShot:
  2922                           	opt callstack 0
  2923                           
  2924 ;; *************** function _OneShot *****************
  2925 ;; Defined at:
  2926 ;;		line 127 in file "PWM.c"
  2927 ;; Parameters:    Size  Location     Type
  2928 ;;		None
  2929 ;; Auto vars:     Size  Location     Type
  2930 ;;		None
  2931 ;; Return value:  Size  Location     Type
  2932 ;;                  1    wreg      void 
  2933 ;; Registers used:
  2934 ;;		wreg, status,2, status,0
  2935 ;; Tracked objects:
  2936 ;;		On entry : 0/0
  2937 ;;		On exit  : 0/0
  2938 ;;		Unchanged: 0/0
  2939 ;; Data sizes:     COMRAM   BANK0   BANK1   BANK2   BANK3   BANK4   BANK5   BANK6   BANK7
  2940 ;;      Params:         0       0       0       0       0       0       0       0       0
  2941 ;;      Locals:         0       0       0       0       0       0       0       0       0
  2942 ;;      Temps:          0       0       0       0       0       0       0       0       0
  2943 ;;      Totals:         0       0       0       0       0       0       0       0       0
  2944 ;;Total ram usage:        0 bytes
  2945 ;; Hardware stack levels used:    1
  2946 ;; This function calls:
  2947 ;;		Nothing
  2948 ;; This function is called by:
  2949 ;;		_ContarPulsos
  2950 ;; This function uses a non-reentrant model
  2951 ;;
  2952                           
  2953                           	psect	text21
  2954  0013EA                     __ptext21:
  2955                           	opt callstack 0
  2956  0013EA                     _OneShot:
  2957                           	opt callstack 27
  2958  0013EA                     
  2959                           ;PWM.c: 129:     if(ons==1)
  2960  0013EA  0429               	decf	_ons^0,w,c
  2961  0013EC  102A               	iorwf	(_ons+1)^0,w,c
  2962  0013EE  A4D8               	btfss	status,2,c
  2963  0013F0  EFFC  F009         	goto	u31
  2964  0013F4  EFFE  F009         	goto	u30
  2965  0013F8                     u31:
  2966  0013F8  EF00  F00A         	goto	l364
  2967  0013FC                     u30:
  2968  0013FC  EF0D  F00A         	goto	l365
  2969  001400                     l364:
  2970                           
  2971                           ;PWM.c: 133:     if(PORTCbits.CCP1==1)
  2972  001400  A482               	btfss	130,2,c	;volatile
  2973  001402  EF05  F00A         	goto	u41
  2974  001406  EF07  F00A         	goto	u40
  2975  00140A                     u41:
  2976  00140A  EF0D  F00A         	goto	l365
  2977  00140E                     u40:
  2978  00140E                     
  2979                           ;PWM.c: 134:     {;PWM.c: 135:         ActualSteps++;
  2980  00140E  4A2B               	infsnz	_ActualSteps^0,f,c
  2981  001410  2A2C               	incf	(_ActualSteps+1)^0,f,c
  2982  001412                     
  2983                           ;PWM.c: 136:         ons=1;
  2984  001412  0E00               	movlw	0
  2985  001414  6E2A               	movwf	(_ons+1)^0,c
  2986  001416  0E01               	movlw	1
  2987  001418  6E29               	movwf	_ons^0,c
  2988  00141A                     l365:
  2989  00141A  0012               	return		;funcret
  2990  00141C                     __end_of_OneShot:
  2991                           	opt callstack 0
  2992                           
  2993 ;; *************** function _GoToZero *****************
  2994 ;; Defined at:
  2995 ;;		line 73 in file "main.c"
  2996 ;; Parameters:    Size  Location     Type
  2997 ;;		None
  2998 ;; Auto vars:     Size  Location     Type
  2999 ;;		None
  3000 ;; Return value:  Size  Location     Type
  3001 ;;                  1    wreg      void 
  3002 ;; Registers used:
  3003 ;;		wreg, status,2
  3004 ;; Tracked objects:
  3005 ;;		On entry : 0/0
  3006 ;;		On exit  : 0/0
  3007 ;;		Unchanged: 0/0
  3008 ;; Data sizes:     COMRAM   BANK0   BANK1   BANK2   BANK3   BANK4   BANK5   BANK6   BANK7
  3009 ;;      Params:         0       0       0       0       0       0       0       0       0
  3010 ;;      Locals:         0       0       0       0       0       0       0       0       0
  3011 ;;      Temps:          0       0       0       0       0       0       0       0       0
  3012 ;;      Totals:         0       0       0       0       0       0       0       0       0
  3013 ;;Total ram usage:        0 bytes
  3014 ;; Hardware stack levels used:    1
  3015 ;; This function calls:
  3016 ;;		Nothing
  3017 ;; This function is called by:
  3018 ;;		_main
  3019 ;; This function uses a non-reentrant model
  3020 ;;
  3021                           
  3022                           	psect	text22
  3023  0010E2                     __ptext22:
  3024                           	opt callstack 0
  3025  0010E2                     _GoToZero:
  3026                           	opt callstack 30
  3027  0010E2                     
  3028                           ;main.c: 76:     PORTDbits.RD0= 1;
  3029  0010E2  8083               	bsf	131,0,c	;volatile
  3030                           
  3031                           ;main.c: 77:     PORTDbits.RD1= 1;
  3032  0010E4  8283               	bsf	131,1,c	;volatile
  3033                           
  3034                           ;main.c: 80:     while(PORTBbits.RB1==0)
  3035  0010E6  EF77  F008         	goto	l282
  3036  0010EA                     l283:
  3037                           
  3038                           ;main.c: 81:     {;main.c: 82:         PORTDbits.RD2=0;
  3039  0010EA  9483               	bcf	131,2,c	;volatile
  3040                           
  3041                           ;main.c: 83:         PORTDbits.RD3=0;
  3042  0010EC  9683               	bcf	131,3,c	;volatile
  3043  0010EE                     l282:
  3044                           
  3045                           ;main.c: 80:     while(PORTBbits.RB1==0)
  3046  0010EE  A281               	btfss	129,1,c	;volatile
  3047  0010F0  EF7C  F008         	goto	u461
  3048  0010F4  EF7E  F008         	goto	u460
  3049  0010F8                     u461:
  3050  0010F8  EF75  F008         	goto	l283
  3051  0010FC                     u460:
  3052  0010FC                     
  3053                           ;main.c: 85:      PORTDbits.RD2=1;
  3054  0010FC  8483               	bsf	131,2,c	;volatile
  3055                           
  3056                           ;main.c: 86:      PORTDbits.RD3=1;
  3057  0010FE  8683               	bsf	131,3,c	;volatile
  3058                           
  3059                           ;main.c: 87:      if(PORTBbits.RB1==1){
  3060  001100  A281               	btfss	129,1,c	;volatile
  3061  001102  EF85  F008         	goto	u471
  3062  001106  EF87  F008         	goto	u470
  3063  00110A                     u471:
  3064  00110A  EF8B  F008         	goto	l1679
  3065  00110E                     u470:
  3066  00110E                     
  3067                           ;main.c: 88:      CoordAntX=0;
  3068  00110E  0E00               	movlw	0
  3069  001110  6E3F               	movwf	(_CoordAntX+1)^0,c
  3070  001112  0E00               	movlw	0
  3071  001114  6E3E               	movwf	_CoordAntX^0,c
  3072  001116                     l1679:
  3073                           
  3074                           ;main.c: 92:     PORTDbits.RD0= 0;
  3075  001116  9083               	bcf	131,0,c	;volatile
  3076  001118                     
  3077                           ;main.c: 93:     PORTDbits.RD1= 1;
  3078  001118  8283               	bsf	131,1,c	;volatile
  3079                           
  3080                           ;main.c: 95:     while(PORTBbits.RB0==0)
  3081  00111A  EF91  F008         	goto	l286
  3082  00111E                     l287:
  3083                           
  3084                           ;main.c: 96:     {;main.c: 97:         PORTDbits.RD2=0;
  3085  00111E  9483               	bcf	131,2,c	;volatile
  3086                           
  3087                           ;main.c: 98:         PORTDbits.RD3=0;
  3088  001120  9683               	bcf	131,3,c	;volatile
  3089  001122                     l286:
  3090                           
  3091                           ;main.c: 95:     while(PORTBbits.RB0==0)
  3092  001122  A081               	btfss	129,0,c	;volatile
  3093  001124  EF96  F008         	goto	u481
  3094  001128  EF98  F008         	goto	u480
  3095  00112C                     u481:
  3096  00112C  EF8F  F008         	goto	l287
  3097  001130                     u480:
  3098  001130                     
  3099                           ;main.c: 101:      PORTDbits.RD2=1;
  3100  001130  8483               	bsf	131,2,c	;volatile
  3101                           
  3102                           ;main.c: 102:      PORTDbits.RD3=1;
  3103  001132  8683               	bsf	131,3,c	;volatile
  3104                           
  3105                           ;main.c: 104:      if(PORTBbits.RB0==1)
  3106  001134  A081               	btfss	129,0,c	;volatile
  3107  001136  EF9F  F008         	goto	u491
  3108  00113A  EFA1  F008         	goto	u490
  3109  00113E                     u491:
  3110  00113E  EFA5  F008         	goto	l290
  3111  001142                     u490:
  3112  001142                     
  3113                           ;main.c: 105:      {;main.c: 106:          CoordAntY=0;
  3114  001142  0E00               	movlw	0
  3115  001144  6E3D               	movwf	(_CoordAntY+1)^0,c
  3116  001146  0E00               	movlw	0
  3117  001148  6E3C               	movwf	_CoordAntY^0,c
  3118  00114A                     l290:
  3119  00114A  0012               	return		;funcret
  3120  00114C                     __end_of_GoToZero:
  3121                           	opt callstack 0
  3122                           
  3123 ;; *************** function _Configuracion *****************
  3124 ;; Defined at:
  3125 ;;		line 14 in file "CONFIGUR.c"
  3126 ;; Parameters:    Size  Location     Type
  3127 ;;		None
  3128 ;; Auto vars:     Size  Location     Type
  3129 ;;		None
  3130 ;; Return value:  Size  Location     Type
  3131 ;;                  1    wreg      void 
  3132 ;; Registers used:
  3133 ;;		wreg, status,2, status,0, cstack
  3134 ;; Tracked objects:
  3135 ;;		On entry : 0/0
  3136 ;;		On exit  : 0/0
  3137 ;;		Unchanged: 0/0
  3138 ;; Data sizes:     COMRAM   BANK0   BANK1   BANK2   BANK3   BANK4   BANK5   BANK6   BANK7
  3139 ;;      Params:         0       0       0       0       0       0       0       0       0
  3140 ;;      Locals:         0       0       0       0       0       0       0       0       0
  3141 ;;      Temps:          0       0       0       0       0       0       0       0       0
  3142 ;;      Totals:         0       0       0       0       0       0       0       0       0
  3143 ;;Total ram usage:        0 bytes
  3144 ;; Hardware stack levels used:    1
  3145 ;; Hardware stack levels required when called:    2
  3146 ;; This function calls:
  3147 ;;		_UARTConfi
  3148 ;; This function is called by:
  3149 ;;		_main
  3150 ;; This function uses a non-reentrant model
  3151 ;;
  3152                           
  3153                           	psect	text23
  3154  001210                     __ptext23:
  3155                           	opt callstack 0
  3156  001210                     _Configuracion:
  3157                           	opt callstack 28
  3158  001210                     
  3159                           ;CONFIGUR.c: 18:    OSCCON=0x72;
  3160  001210  0E72               	movlw	114
  3161  001212  6ED3               	movwf	211,c	;volatile
  3162  001214                     
  3163                           ;CONFIGUR.c: 22:    CMCON = 0xFF;
  3164  001214  68B4               	setf	180,c	;volatile
  3165  001216                     
  3166                           ;CONFIGUR.c: 23:    CVRCONbits.CVREN = 0;
  3167  001216  9EB5               	bcf	181,7,c	;volatile
  3168                           
  3169                           ;CONFIGUR.c: 24:    ADCON1 = 0x0F;
  3170  001218  0E0F               	movlw	15
  3171  00121A  6EC1               	movwf	193,c	;volatile
  3172                           
  3173                           ;CONFIGUR.c: 28:    PORTD = 0x00;
  3174  00121C  0E00               	movlw	0
  3175  00121E  6E83               	movwf	131,c	;volatile
  3176                           
  3177                           ;CONFIGUR.c: 29:    LATD = 0x00;
  3178  001220  0E00               	movlw	0
  3179  001222  6E8C               	movwf	140,c	;volatile
  3180                           
  3181                           ;CONFIGUR.c: 30:    TRISD = 0x00;
  3182  001224  0E00               	movlw	0
  3183  001226  6E95               	movwf	149,c	;volatile
  3184                           
  3185                           ;CONFIGUR.c: 32:    PORTC = 0x00;
  3186  001228  0E00               	movlw	0
  3187  00122A  6E82               	movwf	130,c	;volatile
  3188                           
  3189                           ;CONFIGUR.c: 33:    LATC= 0x00;
  3190  00122C  0E00               	movlw	0
  3191  00122E  6E8B               	movwf	139,c	;volatile
  3192                           
  3193                           ;CONFIGUR.c: 34:    TRISC= 0x00;
  3194  001230  0E00               	movlw	0
  3195  001232  6E94               	movwf	148,c	;volatile
  3196                           
  3197                           ;CONFIGUR.c: 36:    PORTB = 0x00;
  3198  001234  0E00               	movlw	0
  3199  001236  6E81               	movwf	129,c	;volatile
  3200                           
  3201                           ;CONFIGUR.c: 37:    LATB= 0x00;
  3202  001238  0E00               	movlw	0
  3203  00123A  6E8A               	movwf	138,c	;volatile
  3204  00123C                     
  3205                           ;CONFIGUR.c: 38:    TRISB= 0xFF;
  3206  00123C  6893               	setf	147,c	;volatile
  3207  00123E                     
  3208                           ;CONFIGUR.c: 42:    UARTConfi(9600);
  3209  00123E  0E25               	movlw	37
  3210  001240  6E10               	movwf	(UARTConfi@BAUD+1)^0,c
  3211  001242  0E80               	movlw	128
  3212  001244  6E0F               	movwf	UARTConfi@BAUD^0,c
  3213  001246  ECCA  F007         	call	_UARTConfi	;wreg free
  3214  00124A                     
  3215                           ;CONFIGUR.c: 43:     TRISC=0X00;
  3216  00124A  0E00               	movlw	0
  3217  00124C  6E94               	movwf	148,c	;volatile
  3218  00124E                     
  3219                           ;CONFIGUR.c: 47:      PR2 = 0xF9;
  3220  00124E  0EF9               	movlw	249
  3221  001250  6ECB               	movwf	203,c	;volatile
  3222  001252                     
  3223                           ;CONFIGUR.c: 50:     CCP1CON = 0x0C;
  3224  001252  0E0C               	movlw	12
  3225  001254  6EBD               	movwf	189,c	;volatile
  3226  001256                     
  3227                           ;CONFIGUR.c: 51:     CCPR1L = 0x7D;
  3228  001256  0E7D               	movlw	125
  3229  001258  6EBE               	movwf	190,c	;volatile
  3230  00125A                     
  3231                           ;CONFIGUR.c: 54:     CCP2CON = 0x0C;
  3232  00125A  0E0C               	movlw	12
  3233  00125C  6EBA               	movwf	186,c	;volatile
  3234  00125E                     
  3235                           ;CONFIGUR.c: 55:     CCPR2L = 0x7D;
  3236  00125E  0E7D               	movlw	125
  3237  001260  6EBB               	movwf	187,c	;volatile
  3238  001262                     
  3239                           ;CONFIGUR.c: 58:     T2CON = 0x03;
  3240  001262  0E03               	movlw	3
  3241  001264  6ECA               	movwf	202,c	;volatile
  3242  001266                     
  3243                           ;CONFIGUR.c: 59:     TMR2 = 0;
  3244  001266  0E00               	movlw	0
  3245  001268  6ECC               	movwf	204,c	;volatile
  3246  00126A                     
  3247                           ;CONFIGUR.c: 60:     TMR2ON = 1;
  3248  00126A  84CA               	bsf	4042,2,c	;volatile
  3249  00126C  0012               	return		;funcret
  3250  00126E                     __end_of_Configuracion:
  3251                           	opt callstack 0
  3252                           
  3253 ;; *************** function _UARTConfi *****************
  3254 ;; Defined at:
  3255 ;;		line 13 in file "UART.c"
  3256 ;; Parameters:    Size  Location     Type
  3257 ;;  BAUD            2   14[COMRAM] int 
  3258 ;; Auto vars:     Size  Location     Type
  3259 ;;		None
  3260 ;; Return value:  Size  Location     Type
  3261 ;;                  1    wreg      void 
  3262 ;; Registers used:
  3263 ;;		wreg, status,2, status,0, cstack
  3264 ;; Tracked objects:
  3265 ;;		On entry : 0/0
  3266 ;;		On exit  : 0/0
  3267 ;;		Unchanged: 0/0
  3268 ;; Data sizes:     COMRAM   BANK0   BANK1   BANK2   BANK3   BANK4   BANK5   BANK6   BANK7
  3269 ;;      Params:         2       0       0       0       0       0       0       0       0
  3270 ;;      Locals:         4       0       0       0       0       0       0       0       0
  3271 ;;      Temps:          0       0       0       0       0       0       0       0       0
  3272 ;;      Totals:         6       0       0       0       0       0       0       0       0
  3273 ;;Total ram usage:        6 bytes
  3274 ;; Hardware stack levels used:    1
  3275 ;; Hardware stack levels required when called:    1
  3276 ;; This function calls:
  3277 ;;		___aldiv
  3278 ;; This function is called by:
  3279 ;;		_Configuracion
  3280 ;; This function uses a non-reentrant model
  3281 ;;
  3282                           
  3283                           	psect	text24
  3284  000F94                     __ptext24:
  3285                           	opt callstack 0
  3286  000F94                     _UARTConfi:
  3287                           	opt callstack 28
  3288  000F94                     
  3289                           ;UART.c: 15:     TRISCbits.RC6=0;
  3290  000F94  9C94               	bcf	148,6,c	;volatile
  3291                           
  3292                           ;UART.c: 16:     TRISCbits.RC7=1;
  3293  000F96  8E94               	bsf	148,7,c	;volatile
  3294  000F98                     
  3295                           ;UART.c: 18:     SPBRG = (unsigned char)((8000000L/BAUD)/64)-1;
  3296  000F98  C00F  F005         	movff	UARTConfi@BAUD,___aldiv@divisor
  3297  000F9C  C010  F006         	movff	UARTConfi@BAUD+1,___aldiv@divisor+1
  3298  000FA0  0E00               	movlw	0
  3299  000FA2  BE06               	btfsc	(___aldiv@divisor+1)^0,7,c
  3300  000FA4  0EFF               	movlw	-1
  3301  000FA6  6E07               	movwf	(___aldiv@divisor+2)^0,c
  3302  000FA8  6E08               	movwf	(___aldiv@divisor+3)^0,c
  3303  000FAA  0E00               	movlw	0
  3304  000FAC  6E01               	movwf	___aldiv@dividend^0,c
  3305  000FAE  0E12               	movlw	18
  3306  000FB0  6E02               	movwf	(___aldiv@dividend+1)^0,c
  3307  000FB2  0E7A               	movlw	122
  3308  000FB4  6E03               	movwf	(___aldiv@dividend+2)^0,c
  3309  000FB6  0E00               	movlw	0
  3310  000FB8  6E04               	movwf	(___aldiv@dividend+3)^0,c
  3311  000FBA  ECB6  F006         	call	___aldiv	;wreg free
  3312  000FBE  C001  F011         	movff	?___aldiv,_UARTConfi$1707
  3313  000FC2  C002  F012         	movff	?___aldiv+1,_UARTConfi$1707+1
  3314  000FC6  C003  F013         	movff	?___aldiv+2,_UARTConfi$1707+2
  3315  000FCA  C004  F014         	movff	?___aldiv+3,_UARTConfi$1707+3
  3316                           
  3317                           ;UART.c: 18:     SPBRG = (unsigned char)((8000000L/BAUD)/64)-1;
  3318  000FCE  C011  F001         	movff	_UARTConfi$1707,___aldiv@dividend
  3319  000FD2  C012  F002         	movff	_UARTConfi$1707+1,___aldiv@dividend+1
  3320  000FD6  C013  F003         	movff	_UARTConfi$1707+2,___aldiv@dividend+2
  3321  000FDA  C014  F004         	movff	_UARTConfi$1707+3,___aldiv@dividend+3
  3322  000FDE  0E40               	movlw	64
  3323  000FE0  6E05               	movwf	___aldiv@divisor^0,c
  3324  000FE2  0E00               	movlw	0
  3325  000FE4  6E06               	movwf	(___aldiv@divisor+1)^0,c
  3326  000FE6  0E00               	movlw	0
  3327  000FE8  6E07               	movwf	(___aldiv@divisor+2)^0,c
  3328  000FEA  0E00               	movlw	0
  3329  000FEC  6E08               	movwf	(___aldiv@divisor+3)^0,c
  3330  000FEE  ECB6  F006         	call	___aldiv	;wreg free
  3331  000FF2  0401               	decf	?___aldiv^0,w,c
  3332  000FF4  6EAF               	movwf	175,c	;volatile
  3333  000FF6                     
  3334                           ;UART.c: 19:     TXSTAbits.BRGH = 0;
  3335  000FF6  94AC               	bcf	172,2,c	;volatile
  3336  000FF8                     
  3337                           ;UART.c: 20:     TXSTAbits.SYNC = 0;
  3338  000FF8  98AC               	bcf	172,4,c	;volatile
  3339  000FFA                     
  3340                           ;UART.c: 21:     RCSTAbits.SPEN = 1;
  3341  000FFA  8EAB               	bsf	171,7,c	;volatile
  3342  000FFC                     
  3343                           ;UART.c: 24:     TXSTAbits.TX9 = 0;
  3344  000FFC  9CAC               	bcf	172,6,c	;volatile
  3345  000FFE                     
  3346                           ;UART.c: 25:     TXSTAbits.TXEN = 1;
  3347  000FFE  8AAC               	bsf	172,5,c	;volatile
  3348  001000                     
  3349                           ;UART.c: 28:     RCSTAbits.RC9 = 0;
  3350  001000  9CAB               	bcf	171,6,c	;volatile
  3351  001002                     
  3352                           ;UART.c: 29:     RCSTAbits.CREN = 1;
  3353  001002  88AB               	bsf	171,4,c	;volatile
  3354  001004  0012               	return		;funcret
  3355  001006                     __end_of_UARTConfi:
  3356                           	opt callstack 0
  3357                           
  3358 ;; *************** function ___aldiv *****************
  3359 ;; Defined at:
  3360 ;;		line 7 in file "C:\Program Files (x86)\Microchip\xc8\v2.10\pic\sources\c99\common\aldiv.c"
  3361 ;; Parameters:    Size  Location     Type
  3362 ;;  dividend        4    0[COMRAM] long 
  3363 ;;  divisor         4    4[COMRAM] long 
  3364 ;; Auto vars:     Size  Location     Type
  3365 ;;  quotient        4   10[COMRAM] long 
  3366 ;;  sign            1    9[COMRAM] unsigned char 
  3367 ;;  counter         1    8[COMRAM] unsigned char 
  3368 ;; Return value:  Size  Location     Type
  3369 ;;                  4    0[COMRAM] long 
  3370 ;; Registers used:
  3371 ;;		wreg, status,2, status,0
  3372 ;; Tracked objects:
  3373 ;;		On entry : 0/0
  3374 ;;		On exit  : 0/0
  3375 ;;		Unchanged: 0/0
  3376 ;; Data sizes:     COMRAM   BANK0   BANK1   BANK2   BANK3   BANK4   BANK5   BANK6   BANK7
  3377 ;;      Params:         8       0       0       0       0       0       0       0       0
  3378 ;;      Locals:         6       0       0       0       0       0       0       0       0
  3379 ;;      Temps:          0       0       0       0       0       0       0       0       0
  3380 ;;      Totals:        14       0       0       0       0       0       0       0       0
  3381 ;;Total ram usage:       14 bytes
  3382 ;; Hardware stack levels used:    1
  3383 ;; This function calls:
  3384 ;;		Nothing
  3385 ;; This function is called by:
  3386 ;;		_UARTConfi
  3387 ;; This function uses a non-reentrant model
  3388 ;;
  3389                           
  3390                           	psect	text25
  3391  000D6C                     __ptext25:
  3392                           	opt callstack 0
  3393  000D6C                     ___aldiv:
  3394                           	opt callstack 28
  3395  000D6C  0E00               	movlw	0
  3396  000D6E  6E0A               	movwf	___aldiv@sign^0,c
  3397  000D70  BE08               	btfsc	(___aldiv@divisor+3)^0,7,c
  3398  000D72  EFBF  F006         	goto	u680
  3399  000D76  EFBD  F006         	goto	u681
  3400  000D7A                     u681:
  3401  000D7A  EFC9  F006         	goto	l1909
  3402  000D7E                     u680:
  3403  000D7E  1E08               	comf	(___aldiv@divisor+3)^0,f,c
  3404  000D80  1E07               	comf	(___aldiv@divisor+2)^0,f,c
  3405  000D82  1E06               	comf	(___aldiv@divisor+1)^0,f,c
  3406  000D84  6C05               	negf	___aldiv@divisor^0,c
  3407  000D86  0E00               	movlw	0
  3408  000D88  2206               	addwfc	(___aldiv@divisor+1)^0,f,c
  3409  000D8A  2207               	addwfc	(___aldiv@divisor+2)^0,f,c
  3410  000D8C  2208               	addwfc	(___aldiv@divisor+3)^0,f,c
  3411  000D8E  0E01               	movlw	1
  3412  000D90  6E0A               	movwf	___aldiv@sign^0,c
  3413  000D92                     l1909:
  3414  000D92  BE04               	btfsc	(___aldiv@dividend+3)^0,7,c
  3415  000D94  EFD0  F006         	goto	u690
  3416  000D98  EFCE  F006         	goto	u691
  3417  000D9C                     u691:
  3418  000D9C  EFDA  F006         	goto	l1915
  3419  000DA0                     u690:
  3420  000DA0  1E04               	comf	(___aldiv@dividend+3)^0,f,c
  3421  000DA2  1E03               	comf	(___aldiv@dividend+2)^0,f,c
  3422  000DA4  1E02               	comf	(___aldiv@dividend+1)^0,f,c
  3423  000DA6  6C01               	negf	___aldiv@dividend^0,c
  3424  000DA8  0E00               	movlw	0
  3425  000DAA  2202               	addwfc	(___aldiv@dividend+1)^0,f,c
  3426  000DAC  2203               	addwfc	(___aldiv@dividend+2)^0,f,c
  3427  000DAE  2204               	addwfc	(___aldiv@dividend+3)^0,f,c
  3428  000DB0  0E01               	movlw	1
  3429  000DB2  1A0A               	xorwf	___aldiv@sign^0,f,c
  3430  000DB4                     l1915:
  3431  000DB4  0E00               	movlw	0
  3432  000DB6  6E0B               	movwf	___aldiv@quotient^0,c
  3433  000DB8  0E00               	movlw	0
  3434  000DBA  6E0C               	movwf	(___aldiv@quotient+1)^0,c
  3435  000DBC  0E00               	movlw	0
  3436  000DBE  6E0D               	movwf	(___aldiv@quotient+2)^0,c
  3437  000DC0  0E00               	movlw	0
  3438  000DC2  6E0E               	movwf	(___aldiv@quotient+3)^0,c
  3439  000DC4  5005               	movf	___aldiv@divisor^0,w,c
  3440  000DC6  1006               	iorwf	(___aldiv@divisor+1)^0,w,c
  3441  000DC8  1007               	iorwf	(___aldiv@divisor+2)^0,w,c
  3442  000DCA  1008               	iorwf	(___aldiv@divisor+3)^0,w,c
  3443  000DCC  B4D8               	btfsc	status,2,c
  3444  000DCE  EFEB  F006         	goto	u701
  3445  000DD2  EFED  F006         	goto	u700
  3446  000DD6                     u701:
  3447  000DD6  EF23  F007         	goto	l1937
  3448  000DDA                     u700:
  3449  000DDA  0E01               	movlw	1
  3450  000DDC  6E09               	movwf	___aldiv@counter^0,c
  3451  000DDE  EFF7  F006         	goto	l1923
  3452  000DE2                     l1921:
  3453  000DE2  90D8               	bcf	status,0,c
  3454  000DE4  3605               	rlcf	___aldiv@divisor^0,f,c
  3455  000DE6  3606               	rlcf	(___aldiv@divisor+1)^0,f,c
  3456  000DE8  3607               	rlcf	(___aldiv@divisor+2)^0,f,c
  3457  000DEA  3608               	rlcf	(___aldiv@divisor+3)^0,f,c
  3458  000DEC  2A09               	incf	___aldiv@counter^0,f,c
  3459  000DEE                     l1923:
  3460  000DEE  AE08               	btfss	(___aldiv@divisor+3)^0,7,c
  3461  000DF0  EFFC  F006         	goto	u711
  3462  000DF4  EFFE  F006         	goto	u710
  3463  000DF8                     u711:
  3464  000DF8  EFF1  F006         	goto	l1921
  3465  000DFC                     u710:
  3466  000DFC                     l1925:
  3467  000DFC  90D8               	bcf	status,0,c
  3468  000DFE  360B               	rlcf	___aldiv@quotient^0,f,c
  3469  000E00  360C               	rlcf	(___aldiv@quotient+1)^0,f,c
  3470  000E02  360D               	rlcf	(___aldiv@quotient+2)^0,f,c
  3471  000E04  360E               	rlcf	(___aldiv@quotient+3)^0,f,c
  3472  000E06  5005               	movf	___aldiv@divisor^0,w,c
  3473  000E08  5C01               	subwf	___aldiv@dividend^0,w,c
  3474  000E0A  5006               	movf	(___aldiv@divisor+1)^0,w,c
  3475  000E0C  5802               	subwfb	(___aldiv@dividend+1)^0,w,c
  3476  000E0E  5007               	movf	(___aldiv@divisor+2)^0,w,c
  3477  000E10  5803               	subwfb	(___aldiv@dividend+2)^0,w,c
  3478  000E12  5008               	movf	(___aldiv@divisor+3)^0,w,c
  3479  000E14  5804               	subwfb	(___aldiv@dividend+3)^0,w,c
  3480  000E16  A0D8               	btfss	status,0,c
  3481  000E18  EF10  F007         	goto	u721
  3482  000E1C  EF12  F007         	goto	u720
  3483  000E20                     u721:
  3484  000E20  EF1B  F007         	goto	l1933
  3485  000E24                     u720:
  3486  000E24  5005               	movf	___aldiv@divisor^0,w,c
  3487  000E26  5E01               	subwf	___aldiv@dividend^0,f,c
  3488  000E28  5006               	movf	(___aldiv@divisor+1)^0,w,c
  3489  000E2A  5A02               	subwfb	(___aldiv@dividend+1)^0,f,c
  3490  000E2C  5007               	movf	(___aldiv@divisor+2)^0,w,c
  3491  000E2E  5A03               	subwfb	(___aldiv@dividend+2)^0,f,c
  3492  000E30  5008               	movf	(___aldiv@divisor+3)^0,w,c
  3493  000E32  5A04               	subwfb	(___aldiv@dividend+3)^0,f,c
  3494  000E34  800B               	bsf	___aldiv@quotient^0,0,c
  3495  000E36                     l1933:
  3496  000E36  90D8               	bcf	status,0,c
  3497  000E38  3208               	rrcf	(___aldiv@divisor+3)^0,f,c
  3498  000E3A  3207               	rrcf	(___aldiv@divisor+2)^0,f,c
  3499  000E3C  3206               	rrcf	(___aldiv@divisor+1)^0,f,c
  3500  000E3E  3205               	rrcf	___aldiv@divisor^0,f,c
  3501  000E40  2E09               	decfsz	___aldiv@counter^0,f,c
  3502  000E42  EFFE  F006         	goto	l1925
  3503  000E46                     l1937:
  3504  000E46  500A               	movf	___aldiv@sign^0,w,c
  3505  000E48  B4D8               	btfsc	status,2,c
  3506  000E4A  EF29  F007         	goto	u731
  3507  000E4E  EF2B  F007         	goto	u730
  3508  000E52                     u731:
  3509  000E52  EF33  F007         	goto	l1941
  3510  000E56                     u730:
  3511  000E56  1E0E               	comf	(___aldiv@quotient+3)^0,f,c
  3512  000E58  1E0D               	comf	(___aldiv@quotient+2)^0,f,c
  3513  000E5A  1E0C               	comf	(___aldiv@quotient+1)^0,f,c
  3514  000E5C  6C0B               	negf	___aldiv@quotient^0,c
  3515  000E5E  0E00               	movlw	0
  3516  000E60  220C               	addwfc	(___aldiv@quotient+1)^0,f,c
  3517  000E62  220D               	addwfc	(___aldiv@quotient+2)^0,f,c
  3518  000E64  220E               	addwfc	(___aldiv@quotient+3)^0,f,c
  3519  000E66                     l1941:
  3520  000E66  C00B  F001         	movff	___aldiv@quotient,?___aldiv
  3521  000E6A  C00C  F002         	movff	___aldiv@quotient+1,?___aldiv+1
  3522  000E6E  C00D  F003         	movff	___aldiv@quotient+2,?___aldiv+2
  3523  000E72  C00E  F004         	movff	___aldiv@quotient+3,?___aldiv+3
  3524  000E76  0012               	return		;funcret
  3525  000E78                     __end_of___aldiv:
  3526                           	opt callstack 0
  3527                           
  3528                           	psect	rparam
  3529  0000                     tosu	equ	0xFFF
  3530                           tosh	equ	0xFFE
  3531                           tosl	equ	0xFFD
  3532                           stkptr	equ	0xFFC
  3533                           pclatu	equ	0xFFB
  3534                           pclath	equ	0xFFA
  3535                           pcl	equ	0xFF9
  3536                           tblptru	equ	0xFF8
  3537                           tblptrh	equ	0xFF7
  3538                           tblptrl	equ	0xFF6
  3539                           tablat	equ	0xFF5
  3540                           prodh	equ	0xFF4
  3541                           prodl	equ	0xFF3
  3542                           indf0	equ	0xFEF
  3543                           postinc0	equ	0xFEE
  3544                           postdec0	equ	0xFED
  3545                           preinc0	equ	0xFEC
  3546                           plusw0	equ	0xFEB
  3547                           fsr0h	equ	0xFEA
  3548                           fsr0l	equ	0xFE9
  3549                           wreg	equ	0xFE8
  3550                           indf1	equ	0xFE7
  3551                           postinc1	equ	0xFE6
  3552                           postdec1	equ	0xFE5
  3553                           preinc1	equ	0xFE4
  3554                           plusw1	equ	0xFE3
  3555                           fsr1h	equ	0xFE2
  3556                           fsr1l	equ	0xFE1
  3557                           bsr	equ	0xFE0
  3558                           indf2	equ	0xFDF
  3559                           postinc2	equ	0xFDE
  3560                           postdec2	equ	0xFDD
  3561                           preinc2	equ	0xFDC
  3562                           plusw2	equ	0xFDB
  3563                           fsr2h	equ	0xFDA
  3564                           fsr2l	equ	0xFD9
  3565                           status	equ	0xFD8


Data Sizes:
    Strings     181
    Constant    0
    Data        0
    BSS         27
    Persistent  4
    Stack       0

Auto Spaces:
    Space          Size  Autos    Used
    COMRAM           95     32      63
    BANK0           160      0       0
    BANK1           256      0       0
    BANK2           256      0       0
    BANK3           256      0       0
    BANK4           256      0       0
    BANK5           256      0       0
    BANK6           256      0       0
    BANK7           256      0       0

Pointer List with Targets:

    myPrintf@PointString	PTR unsigned char  size(2) Largest target is 37
		 -> STR_9(CODE[6]), STR_8(CODE[6]), STR_7(CODE[17]), STR_6(CODE[27]), 
		 -> STR_5(CODE[37]), STR_4(CODE[34]), STR_3(CODE[29]), STR_2(CODE[14]), 
		 -> STR_1(CODE[11]), 

    coord@y	PTR unsigned short  size(2) Largest target is 2
		 -> cord_y(COMRAM[2]), 

    coord@x	PTR unsigned short  size(2) Largest target is 2
		 -> cord_x(COMRAM[2]), 

    coord@P2	PTR unsigned char  size(2) Largest target is 1
		 -> Par2(COMRAM[1]), 

    coord@L	PTR unsigned char  size(2) Largest target is 1
		 -> letter(COMRAM[1]), 

    coord@P1	PTR unsigned char  size(2) Largest target is 1
		 -> Par1(COMRAM[1]), 


Critical Paths under _main in COMRAM

    _main->_verification
    _start->_myPrintf
    _end->_myPrintf
    _cmd->_coord
    _coord->_UARTRead
    _Par_Validated->_myPrintf
    _Ins_Validated->_myPrintf
    _Coord_Validated->_myPrintf
    _PrintMyActulPosition->___lwdiv
    ___lwdiv->___lwmod
    _Movement->_myPrintf
    _myPrintf->_UARTWrite
    _PWM->___wmul
    _Configuracion->_UARTConfi
    _UARTConfi->___aldiv

Critical Paths under _main in BANK0

    None.

Critical Paths under _main in BANK1

    None.

Critical Paths under _main in BANK2

    None.

Critical Paths under _main in BANK3

    None.

Critical Paths under _main in BANK4

    None.

Critical Paths under _main in BANK5

    None.

Critical Paths under _main in BANK6

    None.

Critical Paths under _main in BANK7

    None.

Call Graph Tables:

 ---------------------------------------------------------------------------------
 (Depth) Function   	        Calls       Base Space   Used Autos Params    Refs
 ---------------------------------------------------------------------------------
 (0) _main                                                 0     0      0   10595
                      _Configuracion
                           _GoToZero
                           _Movement
               _PrintMyActulPosition
                       _verification
 ---------------------------------------------------------------------------------
 (1) _verification                                         2     2      0    6204
                                             30 COMRAM     2     2      0
                    _Coord_Validated
                      _Ins_Validated
                      _Par_Validated
                                _cmd
                                _end
                              _start
 ---------------------------------------------------------------------------------
 (2) _start                                                0     0      0     862
                          _UARTWrite
                           _myPrintf
 ---------------------------------------------------------------------------------
 (2) _end                                                  0     0      0     862
                          _UARTWrite
                           _myPrintf
 ---------------------------------------------------------------------------------
 (2) _cmd                                                  0     0      0    1894
                           _LEDerror
                          _UARTWrite
                              _coord
                           _myPrintf
 ---------------------------------------------------------------------------------
 (3) _coord                                               29    19     10    1032
                                              1 COMRAM    29    19     10
                           _UARTRead
 ---------------------------------------------------------------------------------
 (4) _UARTRead                                             1     1      0      15
                                              0 COMRAM     1     1      0
 ---------------------------------------------------------------------------------
 (2) _Par_Validated                                        0     0      0     862
                           _LEDerror
                          _UARTWrite
                           _myPrintf
 ---------------------------------------------------------------------------------
 (2) _Ins_Validated                                        0     0      0     862
                           _LEDerror
                          _UARTWrite
                           _myPrintf
 ---------------------------------------------------------------------------------
 (2) _Coord_Validated                                      0     0      0     862
                           _LEDerror
                          _UARTWrite
                           _myPrintf
 ---------------------------------------------------------------------------------
 (3) _LEDerror                                             2     2      0       0
                                              0 COMRAM     2     2      0
 ---------------------------------------------------------------------------------
 (1) _PrintMyActulPosition                                12    12      0    2189
                                             12 COMRAM    12    12      0
                          _UARTWrite
                            ___lwdiv
                            ___lwmod
 ---------------------------------------------------------------------------------
 (2) ___lwmod                                              5     1      4    1071
                                              0 COMRAM     5     1      4
 ---------------------------------------------------------------------------------
 (2) ___lwdiv                                              7     3      4     770
                                              5 COMRAM     7     3      4
                            ___lwmod (ARG)
 ---------------------------------------------------------------------------------
 (1) _Movement                                             2     2      0    1477
                                              6 COMRAM     2     2      0
                                _PWM
                           _myPrintf
 ---------------------------------------------------------------------------------
 (3) _myPrintf                                             5     3      2     840
                                              1 COMRAM     5     3      2
                          _UARTWrite
 ---------------------------------------------------------------------------------
 (4) _UARTWrite                                            1     1      0      22
                                              0 COMRAM     1     1      0
 ---------------------------------------------------------------------------------
 (2) _PWM                                                  0     0      0     637
                       _ContarPulsos
                             ___wmul
 ---------------------------------------------------------------------------------
 (3) ___wmul                                               6     2      4     463
                                              0 COMRAM     6     2      4
 ---------------------------------------------------------------------------------
 (3) _ContarPulsos                                         2     0      2     174
                                              0 COMRAM     2     0      2
                            _OneShot
                       _ResetOneShot
 ---------------------------------------------------------------------------------
 (4) _ResetOneShot                                         0     0      0       0
 ---------------------------------------------------------------------------------
 (4) _OneShot                                              0     0      0       0
 ---------------------------------------------------------------------------------
 (1) _GoToZero                                             0     0      0       0
 ---------------------------------------------------------------------------------
 (1) _Configuracion                                        0     0      0     725
                          _UARTConfi
 ---------------------------------------------------------------------------------
 (2) _UARTConfi                                            6     4      2     725
                                             14 COMRAM     6     4      2
                            ___aldiv
 ---------------------------------------------------------------------------------
 (3) ___aldiv                                             14     6      8     604
                                              0 COMRAM    14     6      8
 ---------------------------------------------------------------------------------
 Estimated maximum stack depth 4
 ---------------------------------------------------------------------------------

 Call Graph Graphs:

 _main (ROOT)
   _Configuracion
     _UARTConfi
       ___aldiv
   _GoToZero
   _Movement
     _PWM
       _ContarPulsos
         _OneShot
         _ResetOneShot
       ___wmul
     _myPrintf
       _UARTWrite
   _PrintMyActulPosition
     _UARTWrite
     ___lwdiv
       ___lwmod (ARG)
     ___lwmod
   _verification
     _Coord_Validated
       _LEDerror
       _UARTWrite
       _myPrintf
         _UARTWrite
     _Ins_Validated
       _LEDerror
       _UARTWrite
       _myPrintf
         _UARTWrite
     _Par_Validated
       _LEDerror
       _UARTWrite
       _myPrintf
         _UARTWrite
     _cmd
       _LEDerror
       _UARTWrite
       _coord
         _UARTRead
       _myPrintf
         _UARTWrite
     _end
       _UARTWrite
       _myPrintf
         _UARTWrite
     _start
       _UARTWrite
       _myPrintf
         _UARTWrite

 Address spaces:
Name               Size   Autos  Total    Cost      Usage
BIGRAM             7FF      0       0      21        0.0%
EEDATA             100      0       0       0        0.0%
BITBANK7           100      0       0      18        0.0%
BANK7              100      0       0      19        0.0%
BITBANK6           100      0       0      16        0.0%
BANK6              100      0       0      17        0.0%
BITBANK5           100      0       0      14        0.0%
BANK5              100      0       0      15        0.0%
BITBANK4           100      0       0      12        0.0%
BANK4              100      0       0      13        0.0%
BITBANK3           100      0       0      10        0.0%
BANK3              100      0       0      11        0.0%
BITBANK2           100      0       0       8        0.0%
BANK2              100      0       0       9        0.0%
BITBANK1           100      0       0       6        0.0%
BANK1              100      0       0       7        0.0%
BITBANK0            A0      0       0       4        0.0%
BANK0               A0      0       0       5        0.0%
BITCOMRAM           5F      0       0       0        0.0%
COMRAM              5F     20      3F       1       66.3%
BITSFR               0      0       0     200        0.0%
SFR                  0      0       0     200        0.0%
STACK                0      0       0       2        0.0%
NULL                 0      0       0       0        0.0%
ABS                  0      0      3F      20        0.0%
DATA                 0      0      3F       3        0.0%
CODE                 0      0       0       0        0.0%


Microchip Technology PIC18 Macro Assembler V2.10 build 88905656 
Symbol Table                                                                                   Wed Dec 11 12:37:45 2019

                           l51 14F4                             l60 13A8                             l55 1074  
                           l72 1364                             l65 1318                             l76 148C  
                           l79 14AE                             u20 14BE                             u21 14BA  
                           u30 13FC                             u31 13F8                             u40 140E  
                           u41 140A                             u50 142A                             u51 1426  
                           u60 143C                             u61 1438                    __CFG_BOR$ON 000000  
          ___wmul@multiplicand 0003                    __CFG_BORV$3 000000                   __CFG_CP0$OFF 000000  
                 __CFG_CP1$OFF 000000                   __CFG_CP2$OFF 000000                   __CFG_CP3$OFF 000000  
                          l201 099C                            l132 1004                            l204 0A58  
                          l141 14B0                            l135 14F8                            l143 14BE  
                          l144 14C8                            l138 150A                            l340 0A94  
                          l341 0ABA                            l360 12C4                            l344 0B2E  
                          l272 0D6A                            l361 12C8                            l353 0BF2  
                          l290 114A                            l282 10EE                            l370 1444  
                          l434 0F1E                            l283 10EA                            l347 0B58  
                          l284 10FC                            l364 1400                            l348 0B7E  
                          l196 0914                            l365 141A                            l357 1286  
                          l286 1122                            l287 111E                            l279 120E  
                          l288 1130                            l369 142E                            l570 146A  
                          l484 10E0                            l567 126C                            l649 0E76  
                 __CFG_CPB$OFF 000000                            _PR2 000FCB                            u600 0922  
                          u601 091E                            u610 097E                   __CFG_CPD$OFF 000000  
                          u611 097A                            u700 0DDA                            u460 10FC  
                          u620 099A                            u701 0DD6                            u461 10F8  
                          u621 0996                            u710 0DFC                            u470 110E  
                          u550 1506                            u630 09AE                            u711 0DF8  
                          u471 110A                            u551 1502                            u631 09AA  
                          u720 0E24                            u480 1130                            u560 11DC  
                          u800 1346                            u640 09C0                            u721 0E20  
                          u481 112C                            u561 11D8                            u801 1342  
                          u641 09BC                            u730 0E56                            u490 1142  
                          u650 1294                            u810 0A7C                            u570 120E  
                          u731 0E52                            u491 113E                            u651 1290  
                          u811 0A78                            u571 120A                            u660 12AA  
                          u820 0AA2                            u900 0F58                            u580 08F0  
                          u740 1056                            u661 12A6                            u821 0A9E  
                          u901 0F54                            u581 08EC                            u741 1052  
                          u670 12C4                            u830 0B00                            u910 0F74  
                          u750 1378                            u590 0914                            u671 12C0  
                          u831 0AFC                            u911 0F70                            u751 1374  
                          u591 0910                            u680 0D7E                            u840 0B22  
                          u920 115E                            u760 138A                            u681 0D7A  
                          u841 0B1E                            u921 115A                            u761 1386  
                          u690 0DA0                            u850 0B40                            u930 117C  
                          u770 12DC                            u691 0D9C                            u851 0B3C  
                          u931 1178                            u771 12D8                            u860 0B66  
                          u940 1192                            u780 12F8                            u861 0B62  
                          u941 118E                            u781 12F4                            u870 0BC4  
                          u790 1330                            u950 0F1E                            u871 0BC0  
                          u791 132C                            u951 0F1A                            u880 0BE6  
                          u960 0D2A                            u881 0BE2                            u961 0D26  
                          u890 0F3A                            u970 0D6A                            u891 0F36  
                          u971 0D66                            u980 1086                            u981 1082  
                          u990 10C4                            u991 10C0                            _PWM 0A5A  
               ??_ContarPulsos 0003                            _cmd 1006                            _end 146C  
                          _ons 0029                 _FlagDirectionX 0023                 _FlagDirectionY 0021  
                          wreg 000FE8                     _TXSTA1bits 000FAC                   __CFG_LVP$OFF 000000  
                         ?_PWM 0001                    coord@buffer 0010                   __CFG_WDT$OFF 000000  
                         l2101 0B40                           l1061 0F8A                           l2021 1316  
                         l2005 12E6                           l2111 0B82                           l2103 0B4C  
                         l1071 11A6                           l2007 12F8                           l2015 1300  
                         l2121 0BD4                           l2113 0B8A                           l2105 0B66  
                         l2041 1362                           l2025 131A                           l2017 130C  
                         l2201 0E94                           l2123 0BE6                           l2115 0BA6  
                         l2107 0B6A                           l2131 0F3A                           l2027 1330  
                         l2035 134C                           l2019 1312                           l2051 1484  
                         l2203 0E9E                           l1068 0F92                           l2061 0FF8  
                         l1253 13EA                           l2117 0BB2                           l2109 0B72  
                         l2141 0F74                           l2133 0F42                           l2221 0BF4  
                         l2037 1358                           l2029 1346                           l2045 146C  
                         l2213 0EC2                           l2205 0EA8                           l1078 11AE  
                         l2071 1002                           l2063 0FFA                           l2055 0F94  
                         l1263 141C                           l2119 0BC4                           l2143 0F7C  
                         l2135 0F4A                           l2127 0F20                           l2151 115E  
                         l2231 0D0A                           l2223 0CF0                           l2039 135E  
                         l1247 14B0                           l2047 1472                           l2207 0EB2  
                         l2215 0F0C                           l2065 0FFC                           l2057 0F98  
                         l1257 140E                           l2081 0AA2                           l2073 0A5A  
                         l2145 0F7E                           l2137 0F58                           l2129 0F28  
                         l2161 119A                           l2153 1166                           l2233 0D0E  
                         l1353 148E                           l1249 14C2                           l2049 147E  
                         l2305 0ED6                           l2209 0EBA                           ?_cmd 0001  
                         l2067 0FFE                           l2059 0FF6                           l2171 123C  
                         l1259 1412                           l1267 143C                           l2091 0AE2  
                         l2083 0AA6                           l2075 0A6A                           l2251 1086  
                         l2147 0F84                           l2139 0F5E                           l2163 11A0  
                         l2155 116E                           l2243 0D38                           l2235 0D2A  
                         l1355 1492                           l2069 1000                           l2181 1256  
                         l2173 123E                           l2165 1210                           l2093 0AEE  
                         l2085 0AAE                           l2077 0A7C                           l2253 108A  
                         l2261 10B4                           l2157 117C                           l2149 114C  
                         l2245 0D4A                           l2237 0D30                           l2229 0CF8  
                         l1357 14AA                           l2191 126A                           l2183 125A  
                         l2175 124A                           l2167 1214                           l2095 0B00  
                         l2087 0ABE                           l2079 0A88                           l2263 10C4  
                         l2271 10D8                           l2255 108C                           l2159 1192  
                         l2247 0D4E                           l1359 14AC                           l2185 125E  
                         l2177 124E                           l2169 1216                           l2097 0B10  
                         l2089 0AC6                           l2265 10C6                           l2257 10A2  
                         l2249 1076                           l2281 13B8                           l2187 1262  
                         l2179 1252                           l2099 0B22                           l1811 11E0  
                         l2267 10CA                           l2259 10A4                           l2195 0E78  
                         l2291 13CA                           l2283 13C0                           l2275 13AA  
                         ?_end 0001                           l1901 0D6C                           l2189 1266  
                         l1813 11FC                           l1805 11B4                           l2269 10CC  
                         l2197 0E80                           l2293 13D2                           l2285 13C2  
                         l2277 13AE                           l1911 0DA0                           l1903 0D70  
                         l1815 11FE                           l1831 08F0                           l2199 0E8A  
                         l2295 13D6                           l2287 13C4                           l2279 13B0  
                         l1921 0DE2                           l1913 0DB0                           l1905 0D7E  
                         l1681 1118                           l1841 0936                           l1833 08F4  
                         l1825 08C6                           l1817 08B8                           l2297 13DA  
                         l2289 13C8                           l1931 0E34                           l1923 0DEE  
                         l1915 0DB4                           l1907 0D8E                           l1683 1142  
                         l1675 10E2                           l1851 095E                           l1843 0938  
                         l1835 08F8                           l1827 08CC                           l1819 08BC  
                         l2299 13DE                           l1941 0E66                           l1933 0E36  
                         l1925 0DFC                           l1917 0DC4                           l1909 0D92  
                         l1677 110E                           l1861 099A                           l1837 0922  
                         l1845 093A                           l1829 08DC                           l1935 0E40  
                         l1927 0E06                           l1919 0DDA                           l1679 1116  
                         l1863 099E                           l1847 0946                           l1839 0926  
                         l1929 0E24                           l1937 0E46                           l1881 126E  
                         l1873 09D0                           l1865 09AE                           l1857 0962  
                         l1849 0952                           l1953 1006                           l1945 14E0  
                         l1939 0E56                           l1891 12AA                           l1883 127E  
                         l1795 14F8                           l1875 09D0                           l1867 09C0  
                         l1859 097E                           l1971 1072                           l1955 100C  
                         l1947 14E6                           l1893 12AE                           l1885 1280  
                         l1797 1506                           l1877 0A50                           l1869 09C4  
                         l1965 105C                           l1957 1018                           l1949 14F2  
                         l1887 1294                           l1895 1446                           l1799 11B0  
                         l1991 13A6                           l1975 1366                           l1967 1068  
                         l1959 1056                           l1889 1298                           l1897 1462  
                         l1977 1378                           l1985 1390                           l1969 106E  
                         l1995 12CA                           l1987 139C                           l1979 138A  
                         l1997 12DC                           l1989 13A2                           l1999 12E0  
                         STR_1 089F                           STR_2 0891                           STR_3 0848  
                         STR_4 0826                           STR_5 0801                           STR_6 0865  
                         STR_7 0880                           STR_8 08B0                           STR_9 08AA  
                         u1007 092C                           u1017 149C                           u1027 1096  
                         _LATB 000F8A                           _LATC 000F8B                           _LATD 000F8C  
                         _TMR2 000FCC                           _Par1 003B                           _Par2 0039  
                         _main 13AA                           fsr2h 000FDA                           indf2 000FDF  
                         fsr2l 000FD9              ??_Coord_Validated 0007                           prodh 000FF4  
                         prodl 000FF3                           start 0000                  __CFG_IESO$OFF 000000  
                __CFG_MCLRE$ON 000000                   ___param_bank 000000                          ??_PWM 0007  
              __end_of_OneShot 141C                  _Ins_Validated 12CA                          ??_cmd 001F  
                        ??_end 0007                 __CFG_CCP2MX$ON 000000                __end_of___aldiv 0E78  
                        ?_main 0001                          _CMCON 000FB4               __end_of_LEDerror 14B0  
                        _T2CON 000FCA                __end_of___lwdiv 0F94                __end_of___lwmod 11B0  
                        _RCREG 000FAE                  _Par_Validated 1366                          _SPBRG 000FAF  
                        _PORTB 000F81                          _PORTC 000F82                          _PORTD 000F83  
                        _TRISB 000F93                          _TRISC 000F94                          _TRISD 000F95  
                        _TXREG 000FAD                  __CFG_PWRT$OFF 000000                  __CFG_WRT0$OFF 000000  
                __CFG_WRT1$OFF 000000                  __CFG_WRT2$OFF 000000                  __CFG_WRT3$OFF 000000  
           __size_of_UARTConfi 0072                 __CFG_EBTR0$OFF 000000                 __CFG_FCMEN$OFF 000000  
               __CFG_EBTR1$OFF 000000                 __CFG_EBTR2$OFF 000000                 __CFG_EBTR3$OFF 000000  
             __end_of_UARTRead 14CA                  __CFG_WRTB$OFF 000000                  __CFG_WRTC$OFF 000000  
                __CFG_WRTD$OFF 000000             __size_of_UARTWrite 0016                 __CFG_EBTRB$OFF 000000  
                  _ActualSteps 002B                          _click 002F                          _coord 08B8  
                        _start 14E0                          tablat 000FF5                          status 000FD8  
               __CFG_ICPRT$OFF 000000                 __CFG_PBADEN$ON 000000               __end_of_GoToZero 114C  
              __initialization 14CA                   __end_of_main 13EA                 ?_Ins_Validated 0001  
                       ??_main 0021                 ?_Par_Validated 0001                  __activetblptr 000002  
             __end_of_Movement 10E2                         _ADCON1 000FC1                         ?_coord 0002  
                       _CCPR1L 000FBE                         _CCPR2L 000FBB                         ?_start 0001  
                       _OSCCON 000FD3                         _TMR2ON 007E52                      ??_OneShot 0001  
         __end_of_ContarPulsos 12CA                 __CFG_XINST$OFF 000000              __end_of_UARTConfi 1006  
                  _CoordRelatX 0033                    _CoordRelatY 0031                      ??___aldiv 0009  
            __end_of_UARTWrite 150C                         ___wmul 1446                 __CFG_STVREN$ON 000000  
                    ??___lwdiv 000A                      ??___lwmod 0005                         _cord_x 0037  
                       _cord_y 0035                         _letter 003A                         clear_0 14D0  
                       coord@L 0004                         coord@i 001C                         coord@n 001E  
                       coord@x 0006                         coord@y 0008               __end_of_myPrintf 1210  
                 __mediumconst 0000                         tblptrh 000FF7                         tblptrl 000FF6  
 __end_of_PrintMyActulPosition 0D6C                         tblptru 000FF8                     __accesstop 0060  
      __end_of__initialization 14D6                  ___rparam_used 000001                      ?_LEDerror 0001  
              ??_Ins_Validated 0007                 __pcstackCOMRAM 0001                      ?_UARTRead 0001  
                __end_of_coord 0A5A                  __end_of_start 14F6                ??_Par_Validated 0007  
                ?_ResetOneShot 0001           coord@counterRevision 001B                 _UARTConfi$1707 0011  
                    ?_GoToZero 0001                _Coord_Validated 131A                        ??_coord 000C  
                      ??_start 0007          __end_of_Configuracion 126E                     __pnvCOMRAM 003C  
                   ??_LEDerror 0001                      ?_Movement 0001                        ?___wmul 0001  
                   ??_UARTRead 0001                        _CCP1CON 000FBD                        _CCP2CON 000FBA  
               ??_ResetOneShot 0001                     ??_GoToZero 0001          __size_of_ContarPulsos 005C  
              __CFG_VREGEN$OFF 000000                        _OneShot 13EA                      ?_myPrintf 0002  
                      __Hparam 0000                        __Lparam 0000                     ??_Movement 0007  
         _PrintMyActulPosition 0BF4                        ___aldiv 0D6C                __size_of___wmul 0026  
                      ___lwdiv 0F20                        ___lwmod 114C                   __psmallconst 0800  
                      __pcinit 14CA                        __ramtop 0800                        __ptext0 13AA  
                      __ptext1 0E78                        __ptext2 14E0                        __ptext3 146C  
                      __ptext4 1006                        __ptext5 08B8                        __ptext6 14B0  
                      __ptext7 1366                        __ptext8 12CA                        __ptext9 131A  
      __end_of_Coord_Validated 1366                   __size_of_PWM 019A                   __size_of_cmd 0070  
                 __size_of_end 0022                   _ContarPulsos 126E               ___aldiv@dividend 0001  
                      coord@P1 0002                        coord@P2 000A           end_of_initialization 14D6  
                __Lmediumconst 0000                     ??_myPrintf 0004          ?_PrintMyActulPosition 0001  
                    _RCSTAbits 000FAB               ___aldiv@quotient 000B                        postdec2 000FDD  
                      postinc0 000FEE                        postinc2 000FDE                      _UARTConfi 0F94  
                    _UARTWrite 14F6                      _PORTBbits 000F81                      _PORTCbits 000F82  
                    _PORTDbits 000F83      _PrintMyActulPosition$1708 0013                UARTRead@Lecture 0001  
                    _TRISCbits 000F94                  ?_verification 0001                      _TXSTAbits 000FAC  
         __end_of_ResetOneShot 1446            myPrintf@PointString 0002              __size_of_LEDerror 0022  
                   ?_UARTConfi 000F                 __end_of___wmul 146C                      _CoordAntX 003E  
                    _CoordAntY 003C              __size_of_UARTRead 001A                     ?_UARTWrite 0001  
             ?_Coord_Validated 0001            start_initialization 14CA                    __end_of_PWM 0BF4  
                  __end_of_cmd 1076                    __end_of_end 148E                 ??_verification 001F  
                UARTConfi@BAUD 000F              __size_of_GoToZero 006A                      _NextState 0030  
       ??_PrintMyActulPosition 000D          __end_of_Ins_Validated 131A                       ??___wmul 0005  
            __size_of_Movement 006C               __CFG_LPT1OSC$OFF 000000          __end_of_Par_Validated 13AA  
                  __pbssCOMRAM 0021        _ControlFlagVerification 002D                       ?_OneShot 0001  
             ___lwdiv@dividend 0006              __size_of_myPrintf 0060                       ?___aldiv 0001  
    PrintMyActulPosition@i_741 0017                       ?___lwdiv 0006                       ?___lwmod 0001  
                  ??_UARTConfi 0011                    ??_UARTWrite 0001         __size_of_Configuracion 005E  
                  __smallconst 0800               ___lwdiv@quotient 000A                 __size_of_coord 01A2  
        __size_of_ResetOneShot 002A                 __size_of_start 0016                ___aldiv@divisor 0005  
              ___aldiv@counter 0009                 ___wmul@product 0005                       _LEDerror 148E  
                     _PIR1bits 000F9E               __CFG_WDTPS$32768 000000                       _UARTRead 14B0  
         __end_of_verification 0F20              ___wmul@multiplier 0001          PrintMyActulPosition@a 000D  
        PrintMyActulPosition@b 0010          PrintMyActulPosition@i 0015                   _ResetOneShot 141C  
                    coord@read 0019                       _GoToZero 10E2                  UARTWrite@data 0001  
                _Configuracion 1210                       __Hrparam 0000               __size_of_OneShot 0032  
                     _Movement 1076                       __Lrparam 0000               __size_of___aldiv 010C  
                     _StepsOnX 0027                       _StepsOnY 0025               __size_of___lwdiv 0074  
             __size_of___lwmod 0064              ContarPulsos@pasos 0001                ___lwdiv@divisor 0008  
              ___lwdiv@counter 000C                      myPrintf@i 0006                       __ptext10 148E  
                     __ptext11 0BF4                       __ptext20 141C                       __ptext12 114C  
                     __ptext21 13EA                       __ptext13 0F20                       __ptext22 10E2  
                     __ptext14 1076                       __ptext23 1210                       __ptext15 11B0  
                     __ptext24 0F94                       __ptext16 14F6                       __ptext25 0D6C  
                     __ptext17 0A5A                       __ptext18 1446                       __ptext19 126E  
               ?_Configuracion 0001                  __size_of_main 0040                       _myPrintf 11B0  
                   _CVRCONbits 000FB5       __size_of_Coord_Validated 004C               ___lwmod@dividend 0001  
                   _RCSTA1bits 000FAB          __size_of_verification 00A8  __size_of_PrintMyActulPosition 0178  
          __CFG_FOSC$INTOSC_EC 000000                ___lwmod@divisor 0003                  ?_ContarPulsos 0001  
              ___lwmod@counter 0005                   ___aldiv@sign 000A                ??_Configuracion 0015  
       __size_of_Ins_Validated 0050                   _verification 0E78         __size_of_Par_Validated 0044  
