

Microchip MPLAB XC8 Assembler V2.10 build 88905656 
                                                                                               Mon Dec 09 16:21:34 2019

Microchip MPLAB XC8 C Compiler v2.10 (Free license) build 20190730164152 Og1 
     1                           	processor	18F4550
     2                           	fnconf	rparam,??,?,0
     3                           	opt	pw 120
     4                           	opt	flic
     5                           	psect	idataCOMRAM,global,class=CODE,delta=1,noexec
     6                           	psect	nvCOMRAM,global,class=COMRAM,space=1,delta=1,noexec
     7                           	psect	smallconst,global,reloc=2,class=SMALLCONST,delta=1,noexec
     8                           	psect	cinit,global,reloc=2,class=CODE,delta=1
     9                           	psect	bssCOMRAM,global,class=COMRAM,space=1,delta=1,noexec
    10                           	psect	dataCOMRAM,global,class=COMRAM,space=1,delta=1,noexec
    11                           	psect	cstackCOMRAM,global,class=COMRAM,space=1,delta=1,noexec
    12                           	psect	text0,global,reloc=2,class=CODE,delta=1
    13                           	psect	text1,global,reloc=2,class=CODE,delta=1
    14                           	psect	text2,global,reloc=2,class=CODE,delta=1
    15                           	psect	text3,global,reloc=2,class=CODE,delta=1
    16                           	psect	text4,global,reloc=2,class=CODE,delta=1
    17                           	psect	text5,global,reloc=2,class=CODE,delta=1
    18                           	psect	text6,global,reloc=2,class=CODE,delta=1
    19                           	psect	text7,global,reloc=2,class=CODE,delta=1
    20                           	psect	text8,global,reloc=2,class=CODE,delta=1
    21                           	psect	text9,global,reloc=2,class=CODE,delta=1
    22                           	psect	text10,global,reloc=2,class=CODE,delta=1
    23                           	psect	text11,global,reloc=2,class=CODE,delta=1
    24                           	psect	text12,global,reloc=2,class=CODE,delta=1,group=1
    25                           	psect	text13,global,reloc=2,class=CODE,delta=1,group=1
    26                           	psect	text14,global,reloc=2,class=CODE,delta=1
    27                           	psect	text15,global,reloc=2,class=CODE,delta=1
    28                           	psect	text16,global,reloc=2,class=CODE,delta=1
    29                           	psect	text17,global,reloc=2,class=CODE,delta=1,group=1
    30                           	psect	text18,global,reloc=2,class=CODE,delta=1
    31                           	psect	text19,global,reloc=2,class=CODE,delta=1
    32                           	psect	text20,global,reloc=2,class=CODE,delta=1
    33                           	psect	text21,global,reloc=2,class=CODE,delta=1
    34                           	psect	text22,global,reloc=2,class=CODE,delta=1
    35                           	psect	text23,global,reloc=2,class=CODE,delta=1,group=1
    36                           	psect	intcode,global,reloc=2,class=CODE,delta=1
    37                           	psect	intcode_body,global,reloc=2,class=CODE,delta=1
    38                           	psect	text25,global,reloc=2,class=CODE,delta=1
    39                           	psect	text26,global,reloc=2,class=CODE,delta=1
    40                           	psect	text27,global,reloc=2,class=CODE,delta=1
    41                           	psect	text28,global,reloc=2,class=CODE,delta=1
    42                           	psect	text29,global,reloc=2,class=CODE,delta=1
    43                           	psect	text30,global,reloc=2,class=CODE,delta=1
    44                           	psect	intsave_regs,global,class=BIGRAM,space=1,delta=1,noexec
    45                           	psect	rparam,global,class=COMRAM,space=1,delta=1,noexec
    46                           	psect	temp,global,ovrld,common,class=COMRAM,space=1,delta=1
    47  0000                     
    48                           ; Version 2.10
    49                           ; Generated 31/07/2019 GMT
    50                           ; 
    51                           ; Copyright © 2019, Microchip Technology Inc. and its subsidiaries ("Microchip")
    52                           ; All rights reserved.
    53                           ; 
    54                           ; This software is developed by Microchip Technology Inc. and its subsidiaries ("Microch
      +                          ip").
    55                           ; 
    56                           ; Redistribution and use in source and binary forms, with or without modification, are
    57                           ; permitted provided that the following conditions are met:
    58                           ; 
    59                           ;     1. Redistributions of source code must retain the above copyright notice, this lis
      +                          t of
    60                           ;        conditions and the following disclaimer.
    61                           ; 
    62                           ;     2. Redistributions in binary form must reproduce the above copyright notice, this 
      +                          list
    63                           ;        of conditions and the following disclaimer in the documentation and/or other
    64                           ;        materials provided with the distribution.
    65                           ; 
    66                           ;     3. Microchip's name may not be used to endorse or promote products derived from th
      +                          is
    67                           ;        software without specific prior written permission.
    68                           ; 
    69                           ; THIS SOFTWARE IS PROVIDED BY MICROCHIP "AS IS" AND ANY EXPRESS OR IMPLIED WARRANTIES,
    70                           ; INCLUDING, BUT NOT LIMITED TO, THE IMPLIED WARRANTIES OF MERCHANTABILITY AND FITNESS F
      +                          OR
    71                           ; PURPOSE ARE DISCLAIMED.  IN NO EVENT SHALL MICROCHIP BE LIABLE FOR ANY DIRECT, INDIREC
      +                          T,
    72                           ; INCIDENTAL, SPECIAL, EXEMPLARY, OR CONSEQUENTIAL DAMAGES (INCLUDING BUT NOT LIMITED TO
    73                           ; PROCUREMENT OF SUBSTITUTE GOODS OR SERVICES; LOSS OF USE, DATA OR PROFITS; OR BUSINESS
    74                           ; INTERRUPTION) HOWSOEVER CAUSED AND ON ANY THEORY OF LIABILITY, WHETHER IN CONTRACT, ST
      +                          RICT
    75                           ; LIABILITY, OR TORT (INCLUDING NEGLIGENCE OR OTHERWISE) ARISING IN ANY WAY OUT OF THE U
      +                          SE OF
    76                           ; THIS SOFTWARE, EVEN IF ADVISED OF THE POSSIBILITY OF SUCH DAMAGE.
    77                           ; 
    78                           ; 
    79                           ; Code-generator required, PIC18F4550 Definitions
    80                           ; 
    81                           ; SFR Addresses
    82  0000                     
    83                           	psect	idataCOMRAM
    84  00169A                     __pidataCOMRAM:
    85                           	opt callstack 0
    86                           
    87                           ;initializer for Movimiento@F3433
    88  00169A  73                 	db	115
    89  00169B  6C                 	db	108
    90  00169C  69                 	db	105
    91  00169D  64                 	db	100
    92  00169E  65                 	db	101
    93                           
    94                           ;initializer for Movimiento@F3430
    95  00169F  63                 	db	99
    96  0016A0  6C                 	db	108
    97  0016A1  69                 	db	105
    98  0016A2  63                 	db	99
    99  0016A3  6B                 	db	107
   100                           
   101                           	psect	nvCOMRAM
   102  000049                     __pnvCOMRAM:
   103                           	opt callstack 0
   104  000049                     _CoordAntY:
   105                           	opt callstack 0
   106  000049                     	ds	2
   107  00004B                     _CoordAntX:
   108                           	opt callstack 0
   109  00004B                     	ds	2
   110  00004D                     _ControlFlagVerification:
   111                           	opt callstack 0
   112  00004D                     	ds	2
   113  0000                     _TMR2	set	4044
   114  0000                     _T2CON	set	4042
   115  0000                     _CCPR2L	set	4027
   116  0000                     _CCP2CON	set	4026
   117  0000                     _CCPR1L	set	4030
   118  0000                     _CCP1CON	set	4029
   119  0000                     _PR2	set	4043
   120  0000                     _TRISB	set	3987
   121  0000                     _LATB	set	3978
   122  0000                     _PORTB	set	3969
   123  0000                     _TRISC	set	3988
   124  0000                     _LATC	set	3979
   125  0000                     _PORTC	set	3970
   126  0000                     _TRISD	set	3989
   127  0000                     _LATD	set	3980
   128  0000                     _PORTD	set	3971
   129  0000                     _ADCON1	set	4033
   130  0000                     _CVRCONbits	set	4021
   131  0000                     _CMCON	set	4020
   132  0000                     _OSCCON	set	4051
   133  0000                     _INTCON2bits	set	4081
   134  0000                     _RCONbits	set	4048
   135  0000                     _PORTCbits	set	3970
   136  0000                     _PORTDbits	set	3971
   137  0000                     _INTCON3bits	set	4080
   138  0000                     _PORTBbits	set	3969
   139  0000                     _INTCONbits	set	4082
   140  0000                     _RCSTA1bits	set	4011
   141  0000                     _TXSTA1bits	set	4012
   142  0000                     _RCREG	set	4014
   143  0000                     _TXREG	set	4013
   144  0000                     _PIR1bits	set	3998
   145  0000                     _RCSTAbits	set	4011
   146  0000                     _TXSTAbits	set	4012
   147  0000                     _SPBRG	set	4015
   148  0000                     _TRISCbits	set	3988
   149  0000                     _TMR2ON	set	32338
   150                           
   151                           	psect	smallconst
   152  000800                     __psmallconst:
   153                           	opt callstack 0
   154  000800  00                 	db	0
   155  000801                     STR_5:
   156  000801  54                 	db	84	;'T'
   157  000802  6F                 	db	111	;'o'
   158  000803  75                 	db	117	;'u'
   159  000804  63                 	db	99	;'c'
   160  000805  68                 	db	104	;'h'
   161  000806  20                 	db	32
   162  000807  49                 	db	73	;'I'
   163  000808  6E                 	db	110	;'n'
   164  000809  73                 	db	115	;'s'
   165  00080A  74                 	db	116	;'t'
   166  00080B  72                 	db	114	;'r'
   167  00080C  75                 	db	117	;'u'
   168  00080D  63                 	db	99	;'c'
   169  00080E  63                 	db	99	;'c'
   170  00080F  74                 	db	116	;'t'
   171  000810  69                 	db	105	;'i'
   172  000811  6F                 	db	111	;'o'
   173  000812  6E                 	db	110	;'n'
   174  000813  20                 	db	32
   175  000814  69                 	db	105	;'i'
   176  000815  73                 	db	115	;'s'
   177  000816  20                 	db	32
   178  000817  6E                 	db	110	;'n'
   179  000818  6F                 	db	111	;'o'
   180  000819  74                 	db	116	;'t'
   181  00081A  20                 	db	32
   182  00081B  72                 	db	114	;'r'
   183  00081C  65                 	db	101	;'e'
   184  00081D  63                 	db	99	;'c'
   185  00081E  6F                 	db	111	;'o'
   186  00081F  67                 	db	103	;'g'
   187  000820  6E                 	db	110	;'n'
   188  000821  69                 	db	105	;'i'
   189  000822  7A                 	db	122	;'z'
   190  000823  65                 	db	101	;'e'
   191  000824  64                 	db	100	;'d'
   192  000825  00                 	db	0
   193  000826                     STR_4:
   194  000826  46                 	db	70	;'F'
   195  000827  72                 	db	114	;'r'
   196  000828  61                 	db	97	;'a'
   197  000829  6D                 	db	109	;'m'
   198  00082A  65                 	db	101	;'e'
   199  00082B  73                 	db	115	;'s'
   200  00082C  20                 	db	32
   201  00082D  61                 	db	97	;'a'
   202  00082E  72                 	db	114	;'r'
   203  00082F  65                 	db	101	;'e'
   204  000830  20                 	db	32
   205  000831  6E                 	db	110	;'n'
   206  000832  6F                 	db	111	;'o'
   207  000833  74                 	db	116	;'t'
   208  000834  20                 	db	32
   209  000835  69                 	db	105	;'i'
   210  000836  6E                 	db	110	;'n'
   211  000837  73                 	db	115	;'s'
   212  000838  65                 	db	101	;'e'
   213  000839  72                 	db	114	;'r'
   214  00083A  74                 	db	116	;'t'
   215  00083B  65                 	db	101	;'e'
   216  00083C  64                 	db	100	;'d'
   217  00083D  20                 	db	32
   218  00083E  63                 	db	99	;'c'
   219  00083F  6F                 	db	111	;'o'
   220  000840  72                 	db	114	;'r'
   221  000841  72                 	db	114	;'r'
   222  000842  65                 	db	101	;'e'
   223  000843  63                 	db	99	;'c'
   224  000844  74                 	db	116	;'t'
   225  000845  6C                 	db	108	;'l'
   226  000846  79                 	db	121	;'y'
   227  000847  00                 	db	0
   228  000848                     STR_3:
   229  000848  43                 	db	67	;'C'
   230  000849  6F                 	db	111	;'o'
   231  00084A  6D                 	db	109	;'m'
   232  00084B  6D                 	db	109	;'m'
   233  00084C  61                 	db	97	;'a'
   234  00084D  6E                 	db	110	;'n'
   235  00084E  64                 	db	100	;'d'
   236  00084F  73                 	db	115	;'s'
   237  000850  20                 	db	32
   238  000851  77                 	db	119	;'w'
   239  000852  65                 	db	101	;'e'
   240  000853  72                 	db	114	;'r'
   241  000854  65                 	db	101	;'e'
   242  000855  20                 	db	32
   243  000856  6E                 	db	110	;'n'
   244  000857  6F                 	db	111	;'o'
   245  000858  74                 	db	116	;'t'
   246  000859  20                 	db	32
   247  00085A  72                 	db	114	;'r'
   248  00085B  65                 	db	101	;'e'
   249  00085C  63                 	db	99	;'c'
   250  00085D  6F                 	db	111	;'o'
   251  00085E  67                 	db	103	;'g'
   252  00085F  6E                 	db	110	;'n'
   253  000860  69                 	db	105	;'i'
   254  000861  7A                 	db	122	;'z'
   255  000862  65                 	db	101	;'e'
   256  000863  64                 	db	100	;'d'
   257  000864  00                 	db	0
   258  000865                     STR_6:
   259  000865  53                 	db	83	;'S'
   260  000866  75                 	db	117	;'u'
   261  000867  72                 	db	114	;'r'
   262  000868  70                 	db	112	;'p'
   263  000869  61                 	db	97	;'a'
   264  00086A  73                 	db	115	;'s'
   265  00086B  73                 	db	115	;'s'
   266  00086C  65                 	db	101	;'e'
   267  00086D  73                 	db	115	;'s'
   268  00086E  20                 	db	32
   269  00086F  63                 	db	99	;'c'
   270  000870  6F                 	db	111	;'o'
   271  000871  6F                 	db	111	;'o'
   272  000872  72                 	db	114	;'r'
   273  000873  64                 	db	100	;'d'
   274  000874  69                 	db	105	;'i'
   275  000875  6E                 	db	110	;'n'
   276  000876  61                 	db	97	;'a'
   277  000877  74                 	db	116	;'t'
   278  000878  65                 	db	101	;'e'
   279  000879  73                 	db	115	;'s'
   280  00087A  20                 	db	32
   281  00087B  73                 	db	115	;'s'
   282  00087C  69                 	db	105	;'i'
   283  00087D  7A                 	db	122	;'z'
   284  00087E  65                 	db	101	;'e'
   285  00087F  00                 	db	0
   286  000880                     STR_7:
   287  000880  56                 	db	86	;'V'
   288  000881  65                 	db	101	;'e'
   289  000882  72                 	db	114	;'r'
   290  000883  69                 	db	105	;'i'
   291  000884  66                 	db	102	;'f'
   292  000885  79                 	db	121	;'y'
   293  000886  20                 	db	32
   294  000887  43                 	db	67	;'C'
   295  000888  6F                 	db	111	;'o'
   296  000889  6D                 	db	109	;'m'
   297  00088A  70                 	db	112	;'p'
   298  00088B  6C                 	db	108	;'l'
   299  00088C  65                 	db	101	;'e'
   300  00088D  74                 	db	116	;'t'
   301  00088E  65                 	db	101	;'e'
   302  00088F  64                 	db	100	;'d'
   303  000890  00                 	db	0
   304  000891                     STR_2:
   305  000891  45                 	db	69	;'E'
   306  000892  6E                 	db	110	;'n'
   307  000893  74                 	db	116	;'t'
   308  000894  65                 	db	101	;'e'
   309  000895  72                 	db	114	;'r'
   310  000896  20                 	db	32
   311  000897  63                 	db	99	;'c'
   312  000898  6F                 	db	111	;'o'
   313  000899  6D                 	db	109	;'m'
   314  00089A  6D                 	db	109	;'m'
   315  00089B  61                 	db	97	;'a'
   316  00089C  6E                 	db	110	;'n'
   317  00089D  64                 	db	100	;'d'
   318  00089E  00                 	db	0
   319  00089F                     STR_1:
   320  00089F  57                 	db	87	;'W'
   321  0008A0  61                 	db	97	;'a'
   322  0008A1  69                 	db	105	;'i'
   323  0008A2  74                 	db	116	;'t'
   324  0008A3  69                 	db	105	;'i'
   325  0008A4  6E                 	db	110	;'n'
   326  0008A5  67                 	db	103	;'g'
   327  0008A6  2E                 	db	46
   328  0008A7  2E                 	db	46
   329  0008A8  2E                 	db	46
   330  0008A9  00                 	db	0
   331                           
   332                           ; #config settings
   333  0008AA  00                 	db	0	; dummy byte at the end
   334  0000                     
   335                           	psect	cinit
   336  001490                     __pcinit:
   337                           	opt callstack 0
   338  001490                     start_initialization:
   339                           	opt callstack 0
   340  001490                     __initialization:
   341                           	opt callstack 0
   342                           
   343                           ; Initialize objects allocated to COMRAM (10 bytes)
   344                           ; load TBLPTR registers with __pidataCOMRAM
   345  001490  0E9A               	movlw	low __pidataCOMRAM
   346  001492  6EF6               	movwf	tblptrl,c
   347  001494  0E16               	movlw	high __pidataCOMRAM
   348  001496  6EF7               	movwf	tblptrh,c
   349  001498  0E00               	movlw	low (__pidataCOMRAM shr (0+16))
   350  00149A  6EF8               	movwf	tblptru,c
   351  00149C  EE00  F03F         	lfsr	0,__pdataCOMRAM
   352  0014A0  EE10 F00A          	lfsr	1,10
   353  0014A4                     copy_data0:
   354  0014A4  0009               	tblrd		*+
   355  0014A6  CFF5 FFEE          	movff	tablat,postinc0
   356  0014AA  50E5               	movf	postdec1,w,c
   357  0014AC  50E1               	movf	fsr1l,w,c
   358  0014AE  E1FA               	bnz	copy_data0
   359                           
   360                           ; Clear objects allocated to COMRAM (27 bytes)
   361  0014B0  EE00  F024         	lfsr	0,__pbssCOMRAM
   362  0014B4  0E1B               	movlw	27
   363  0014B6                     clear_0:
   364  0014B6  6AEE               	clrf	postinc0,c
   365  0014B8  06E8               	decf	wreg,f,c
   366  0014BA  E1FD               	bnz	clear_0
   367  0014BC                     end_of_initialization:
   368                           	opt callstack 0
   369  0014BC                     __end_of__initialization:
   370                           	opt callstack 0
   371  0014BC  904F               	bcf	int$flags,0,c	;clear compiler interrupt flag (level 1)
   372  0014BE  924F               	bcf	int$flags,1,c	;clear compiler interrupt flag (level 2)
   373  0014C0  0E00               	movlw	low (__Lmediumconst shr (0+16))
   374  0014C2  6EF8               	movwf	tblptru,c
   375  0014C4  0100               	movlb	0
   376  0014C6  EF65  F00A         	goto	_main	;jump to C main() function
   377                           
   378                           	psect	bssCOMRAM
   379  000024                     __pbssCOMRAM:
   380                           	opt callstack 0
   381  000024                     _BanderaDisY:
   382                           	opt callstack 0
   383  000024                     	ds	2
   384  000026                     _BanderaDisX:
   385                           	opt callstack 0
   386  000026                     	ds	2
   387  000028                     _PasosY:
   388                           	opt callstack 0
   389  000028                     	ds	2
   390  00002A                     _PasosX:
   391                           	opt callstack 0
   392  00002A                     	ds	2
   393  00002C                     _ons:
   394                           	opt callstack 0
   395  00002C                     	ds	2
   396  00002E                     _PasosActuales:
   397                           	opt callstack 0
   398  00002E                     	ds	2
   399  000030                     _pasosRecorridos:
   400                           	opt callstack 0
   401  000030                     	ds	2
   402  000032                     _click:
   403                           	opt callstack 0
   404  000032                     	ds	1
   405  000033                     _NextState:
   406                           	opt callstack 0
   407  000033                     	ds	1
   408  000034                     _CoordRelatY:
   409                           	opt callstack 0
   410  000034                     	ds	2
   411  000036                     _CoordRelatX:
   412                           	opt callstack 0
   413  000036                     	ds	2
   414  000038                     _cord_y:
   415                           	opt callstack 0
   416  000038                     	ds	2
   417  00003A                     _cord_x:
   418                           	opt callstack 0
   419  00003A                     	ds	2
   420  00003C                     _Par2:
   421                           	opt callstack 0
   422  00003C                     	ds	1
   423  00003D                     _letter:
   424                           	opt callstack 0
   425  00003D                     	ds	1
   426  00003E                     _Par1:
   427                           	opt callstack 0
   428  00003E                     	ds	1
   429                           
   430                           	psect	dataCOMRAM
   431  00003F                     __pdataCOMRAM:
   432                           	opt callstack 0
   433  00003F                     Movimiento@F3433:
   434                           	opt callstack 0
   435  00003F                     	ds	5
   436  000044                     Movimiento@F3430:
   437                           	opt callstack 0
   438  000044                     	ds	5
   439                           
   440                           	psect	cstackCOMRAM
   441  000001                     __pcstackCOMRAM:
   442                           	opt callstack 0
   443  000001                     i2UARTWrite@data:
   444                           	opt callstack 0
   445  000001                     i2ContarPulsos@pasos:
   446                           	opt callstack 0
   447                           
   448                           ; 2 bytes @ 0x0
   449  000001                     	ds	2
   450  000003                     ??_INT_ISR:
   451  000003                     
   452                           ; 1 bytes @ 0x2
   453  000003                     	ds	1
   454  000004                     ?___wmul:
   455                           	opt callstack 0
   456  000004                     ?___lwmod:
   457                           	opt callstack 0
   458  000004                     ?___aldiv:
   459                           	opt callstack 0
   460  000004                     UARTWrite@data:
   461                           	opt callstack 0
   462  000004                     UARTRead@Lecture:
   463                           	opt callstack 0
   464  000004                     ContarPulsos@pasos:
   465                           	opt callstack 0
   466  000004                     ___wmul@multiplier:
   467                           	opt callstack 0
   468  000004                     ___lwmod@dividend:
   469                           	opt callstack 0
   470  000004                     ___aldiv@dividend:
   471                           	opt callstack 0
   472                           
   473                           ; 4 bytes @ 0x3
   474  000004                     	ds	1
   475  000005                     ?_coord:
   476                           	opt callstack 0
   477  000005                     coord@P1:
   478                           	opt callstack 0
   479  000005                     myPrintf@PointString:
   480                           	opt callstack 0
   481                           
   482                           ; 2 bytes @ 0x4
   483  000005                     	ds	1
   484  000006                     ___wmul@multiplicand:
   485                           	opt callstack 0
   486  000006                     ___lwmod@divisor:
   487                           	opt callstack 0
   488                           
   489                           ; 2 bytes @ 0x5
   490  000006                     	ds	1
   491  000007                     ??_myPrintf:
   492  000007                     coord@L:
   493                           	opt callstack 0
   494                           
   495                           ; 2 bytes @ 0x6
   496  000007                     	ds	1
   497  000008                     ___lwmod@counter:
   498                           	opt callstack 0
   499  000008                     ___wmul@product:
   500                           	opt callstack 0
   501  000008                     ___aldiv@divisor:
   502                           	opt callstack 0
   503                           
   504                           ; 4 bytes @ 0x7
   505  000008                     	ds	1
   506  000009                     ?___lwdiv:
   507                           	opt callstack 0
   508  000009                     myPrintf@i:
   509                           	opt callstack 0
   510  000009                     coord@x:
   511                           	opt callstack 0
   512  000009                     ___lwdiv@dividend:
   513                           	opt callstack 0
   514                           
   515                           ; 2 bytes @ 0x8
   516  000009                     	ds	1
   517  00000A                     ??_Movimiento:
   518  00000A                     
   519                           ; 1 bytes @ 0x9
   520  00000A                     	ds	1
   521  00000B                     coord@y:
   522                           	opt callstack 0
   523  00000B                     ___lwdiv@divisor:
   524                           	opt callstack 0
   525                           
   526                           ; 2 bytes @ 0xA
   527  00000B                     	ds	1
   528  00000C                     ___aldiv@counter:
   529                           	opt callstack 0
   530  00000C                     Movimiento@loquequieras:
   531                           	opt callstack 0
   532                           
   533                           ; 5 bytes @ 0xB
   534  00000C                     	ds	1
   535  00000D                     ___aldiv@sign:
   536                           	opt callstack 0
   537  00000D                     coord@P2:
   538                           	opt callstack 0
   539  00000D                     ___lwdiv@quotient:
   540                           	opt callstack 0
   541                           
   542                           ; 2 bytes @ 0xC
   543  00000D                     	ds	1
   544  00000E                     ___aldiv@quotient:
   545                           	opt callstack 0
   546                           
   547                           ; 4 bytes @ 0xD
   548  00000E                     	ds	1
   549  00000F                     ??_coord:
   550  00000F                     ___lwdiv@counter:
   551                           	opt callstack 0
   552                           
   553                           ; 1 bytes @ 0xE
   554  00000F                     	ds	1
   555  000010                     PrintMyActulPosition@a:
   556                           	opt callstack 0
   557                           
   558                           ; 3 bytes @ 0xF
   559  000010                     	ds	1
   560  000011                     Movimiento@loquequieras2:
   561                           	opt callstack 0
   562                           
   563                           ; 5 bytes @ 0x10
   564  000011                     	ds	1
   565  000012                     UARTConfi@BAUD:
   566                           	opt callstack 0
   567                           
   568                           ; 2 bytes @ 0x11
   569  000012                     	ds	1
   570  000013                     PrintMyActulPosition@b:
   571                           	opt callstack 0
   572  000013                     coord@buffer:
   573                           	opt callstack 0
   574                           
   575                           ; 9 bytes @ 0x12
   576  000013                     	ds	1
   577  000014                     _UARTConfi$2012:
   578                           	opt callstack 0
   579                           
   580                           ; 4 bytes @ 0x13
   581  000014                     	ds	2
   582  000016                     Movimiento@i:
   583                           	opt callstack 0
   584  000016                     _PrintMyActulPosition$2013:
   585                           	opt callstack 0
   586                           
   587                           ; 2 bytes @ 0x15
   588  000016                     	ds	2
   589  000018                     PrintMyActulPosition@i:
   590                           	opt callstack 0
   591  000018                     Movimiento@i_1065:
   592                           	opt callstack 0
   593                           
   594                           ; 2 bytes @ 0x17
   595  000018                     	ds	2
   596  00001A                     PrintMyActulPosition@i_810:
   597                           	opt callstack 0
   598                           
   599                           ; 2 bytes @ 0x19
   600  00001A                     	ds	2
   601  00001C                     coord@read:
   602                           	opt callstack 0
   603                           
   604                           ; 1 bytes @ 0x1B
   605  00001C                     	ds	2
   606  00001E                     coord@counterRevision:
   607                           	opt callstack 0
   608                           
   609                           ; 1 bytes @ 0x1D
   610  00001E                     	ds	1
   611  00001F                     coord@i:
   612                           	opt callstack 0
   613                           
   614                           ; 2 bytes @ 0x1E
   615  00001F                     	ds	2
   616  000021                     coord@n:
   617                           	opt callstack 0
   618                           
   619                           ; 1 bytes @ 0x20
   620  000021                     	ds	1
   621  000022                     ??_verification:
   622  000022                     
   623                           ; 1 bytes @ 0x21
   624  000022                     	ds	2
   625  000024                     
   626                           ; 1 bytes @ 0x23
   627 ;;
   628 ;;Main: autosize = 0, tempsize = 0, incstack = 0, save=0
   629 ;;
   630 ;; *************** function _main *****************
   631 ;; Defined at:
   632 ;;		line 46 in file "main.c"
   633 ;; Parameters:    Size  Location     Type
   634 ;;		None
   635 ;; Auto vars:     Size  Location     Type
   636 ;;		None
   637 ;; Return value:  Size  Location     Type
   638 ;;                  1    wreg      void 
   639 ;; Registers used:
   640 ;;		wreg, fsr1l, fsr1h, fsr2l, fsr2h, status,2, status,0, tblptrl, tblptrh, tblptru, prodl, prodh, cstack
   641 ;; Tracked objects:
   642 ;;		On entry : 0/0
   643 ;;		On exit  : 0/0
   644 ;;		Unchanged: 0/0
   645 ;; Data sizes:     COMRAM   BANK0   BANK1   BANK2   BANK3   BANK4   BANK5   BANK6   BANK7
   646 ;;      Params:         0       0       0       0       0       0       0       0       0
   647 ;;      Locals:         0       0       0       0       0       0       0       0       0
   648 ;;      Temps:          0       0       0       0       0       0       0       0       0
   649 ;;      Totals:         0       0       0       0       0       0       0       0       0
   650 ;;Total ram usage:        0 bytes
   651 ;; Hardware stack levels required when called:    8
   652 ;; This function calls:
   653 ;;		_Configuracion
   654 ;;		_Movimiento
   655 ;;		_PrintMyActulPosition
   656 ;;		_verification
   657 ;; This function is called by:
   658 ;;		Startup code after reset
   659 ;; This function uses a non-reentrant model
   660 ;;
   661                           
   662                           	psect	text0
   663  0014CA                     __ptext0:
   664                           	opt callstack 0
   665  0014CA                     _main:
   666                           	opt callstack 23
   667  0014CA                     
   668                           ;main.c: 48:     Configuracion();
   669  0014CA  EC53  F009         	call	_Configuracion	;wreg free
   670  0014CE                     
   671                           ;main.c: 50:     CoordAntX=1;
   672  0014CE  0E00               	movlw	0
   673  0014D0  6E4C               	movwf	(_CoordAntX+1)^0,c
   674  0014D2  0E01               	movlw	1
   675  0014D4  6E4B               	movwf	_CoordAntX^0,c
   676  0014D6                     
   677                           ;main.c: 51:     CoordAntY=1;
   678  0014D6  0E00               	movlw	0
   679  0014D8  6E4A               	movwf	(_CoordAntY+1)^0,c
   680  0014DA  0E01               	movlw	1
   681  0014DC  6E49               	movwf	_CoordAntY^0,c
   682  0014DE                     
   683                           ;main.c: 52:     PORTDbits.RD2=1;
   684  0014DE  8483               	bsf	131,2,c	;volatile
   685  0014E0                     
   686                           ;main.c: 53:     PORTDbits.RD3=1;
   687  0014E0  8683               	bsf	131,3,c	;volatile
   688  0014E2                     l2547:
   689                           
   690                           ;main.c: 60:     {;main.c: 61:         ControlFlagVerification = 1;
   691  0014E2  0E00               	movlw	0
   692  0014E4  6E4E               	movwf	(_ControlFlagVerification+1)^0,c
   693  0014E6  0E01               	movlw	1
   694  0014E8  6E4D               	movwf	_ControlFlagVerification^0,c
   695  0014EA                     
   696                           ;main.c: 62:         verification();
   697  0014EA  ECAB  F007         	call	_verification	;wreg free
   698  0014EE                     
   699                           ;main.c: 63:         PrintMyActulPosition();
   700  0014EE  ECF3  F005         	call	_PrintMyActulPosition	;wreg free
   701  0014F2                     
   702                           ;main.c: 64:         Movimiento();
   703  0014F2  EC35  F007         	call	_Movimiento	;wreg free
   704  0014F6                     
   705                           ;main.c: 65:         PrintMyActulPosition();
   706  0014F6  ECF3  F005         	call	_PrintMyActulPosition	;wreg free
   707  0014FA  EF71  F00A         	goto	l2547
   708  0014FE  EF07  F000         	goto	start
   709  001502                     __end_of_main:
   710                           	opt callstack 0
   711                           
   712 ;; *************** function _verification *****************
   713 ;; Defined at:
   714 ;;		line 15 in file "verification.c"
   715 ;; Parameters:    Size  Location     Type
   716 ;;		None
   717 ;; Auto vars:     Size  Location     Type
   718 ;;		None
   719 ;; Return value:  Size  Location     Type
   720 ;;                  1    wreg      void 
   721 ;; Registers used:
   722 ;;		wreg, fsr2l, fsr2h, status,2, status,0, tblptrl, tblptrh, tblptru, prodl, prodh, cstack
   723 ;; Tracked objects:
   724 ;;		On entry : 0/0
   725 ;;		On exit  : 0/0
   726 ;;		Unchanged: 0/0
   727 ;; Data sizes:     COMRAM   BANK0   BANK1   BANK2   BANK3   BANK4   BANK5   BANK6   BANK7
   728 ;;      Params:         0       0       0       0       0       0       0       0       0
   729 ;;      Locals:         0       0       0       0       0       0       0       0       0
   730 ;;      Temps:          2       0       0       0       0       0       0       0       0
   731 ;;      Totals:         2       0       0       0       0       0       0       0       0
   732 ;;Total ram usage:        2 bytes
   733 ;; Hardware stack levels used:    1
   734 ;; Hardware stack levels required when called:    7
   735 ;; This function calls:
   736 ;;		_Coord_Validated
   737 ;;		_Ins_Validated
   738 ;;		_Par_Validated
   739 ;;		_cmd
   740 ;;		_end
   741 ;;		_start
   742 ;; This function is called by:
   743 ;;		_main
   744 ;; This function uses a non-reentrant model
   745 ;;
   746                           
   747                           	psect	text1
   748  000F56                     __ptext1:
   749                           	opt callstack 0
   750  000F56                     _verification:
   751                           	opt callstack 23
   752  000F56                     
   753                           ;verification.c: 17:     NextState = iddle_State;
   754  000F56  0E00               	movlw	0
   755  000F58  6E33               	movwf	_NextState^0,c
   756                           
   757                           ;verification.c: 18:     while(ControlFlagVerification == 1)
   758  000F5A  EFF5  F007         	goto	l2423
   759  000F5E                     l2405:
   760                           
   761                           ;verification.c: 23:                 NextState= start();
   762  000F5E  EC2C  F00B         	call	_start	;wreg free
   763  000F62  6E33               	movwf	_NextState^0,c
   764                           
   765                           ;verification.c: 24:             };verification.c: 25:                 break;
   766  000F64  EFF5  F007         	goto	l2423
   767  000F68                     l2407:
   768                           
   769                           ;verification.c: 28:                 NextState=cmd();
   770  000F68  ECBB  F008         	call	_cmd	;wreg free
   771  000F6C  6E33               	movwf	_NextState^0,c
   772                           
   773                           ;verification.c: 29:             };verification.c: 30:                 break;
   774  000F6E  EFF5  F007         	goto	l2423
   775  000F72                     l2409:
   776                           
   777                           ;verification.c: 33:                 NextState=Par_Validated();
   778  000F72  EC28  F00A         	call	_Par_Validated	;wreg free
   779  000F76  6E33               	movwf	_NextState^0,c
   780                           
   781                           ;verification.c: 34:             };verification.c: 35:                 break;
   782  000F78  EFF5  F007         	goto	l2423
   783  000F7C                     l2411:
   784                           
   785                           ;verification.c: 38:                 NextState=Ins_Validated();
   786  000F7C  ECDE  F009         	call	_Ins_Validated	;wreg free
   787  000F80  6E33               	movwf	_NextState^0,c
   788                           
   789                           ;verification.c: 39:             };verification.c: 40:                 break;
   790  000F82  EFF5  F007         	goto	l2423
   791  000F86                     l2413:
   792                           
   793                           ;verification.c: 43:                 NextState=Coord_Validated();
   794  000F86  EC04  F00A         	call	_Coord_Validated	;wreg free
   795  000F8A  6E33               	movwf	_NextState^0,c
   796                           
   797                           ;verification.c: 44:             };verification.c: 45:                 break;
   798  000F8C  EFF5  F007         	goto	l2423
   799  000F90                     l2415:
   800                           
   801                           ;verification.c: 48:                 end();
   802  000F90  ECF0  F00A         	call	_end	;wreg free
   803                           
   804                           ;verification.c: 49:             };verification.c: 50:                 break;
   805  000F94  EFF5  F007         	goto	l2423
   806  000F98                     l2417:
   807                           
   808                           ;verification.c: 53:                 NextState = wait_cmd_State;
   809  000F98  0E01               	movlw	1
   810  000F9A  6E33               	movwf	_NextState^0,c
   811                           
   812                           ;verification.c: 54:             };verification.c: 55:                 break;
   813  000F9C  EFF5  F007         	goto	l2423
   814  000FA0                     l2421:
   815  000FA0  5033               	movf	_NextState^0,w,c
   816  000FA2  6E22               	movwf	??_verification^0,c
   817  000FA4  6A23               	clrf	(??_verification+1)^0,c
   818                           
   819                           ; Switch on 2 bytes has been partitioned into a top level switch of size 1, and 1 sub-sw
      +                          itches
   820                           ; Switch size 1, requested type "simple"
   821                           ; Number of cases is 1, Range of values is 0 to 0
   822                           ; switch strategies available:
   823                           ; Name         Instructions Cycles
   824                           ; simple_byte            4     3 (average)
   825                           ;	Chosen strategy is simple_byte
   826  000FA6  5023               	movf	(??_verification+1)^0,w,c
   827  000FA8  0A00               	xorlw	0	; case 0
   828  000FAA  B4D8               	btfsc	status,2,c
   829  000FAC  EFDA  F007         	goto	l2561
   830  000FB0  EFCC  F007         	goto	l2417
   831  000FB4                     l2561:
   832                           
   833                           ; Switch size 1, requested type "simple"
   834                           ; Number of cases is 6, Range of values is 0 to 5
   835                           ; switch strategies available:
   836                           ; Name         Instructions Cycles
   837                           ; simple_byte           19    10 (average)
   838                           ;	Chosen strategy is simple_byte
   839  000FB4  5022               	movf	??_verification^0,w,c
   840  000FB6  0A00               	xorlw	0	; case 0
   841  000FB8  B4D8               	btfsc	status,2,c
   842  000FBA  EFAF  F007         	goto	l2405
   843  000FBE  0A01               	xorlw	1	; case 1
   844  000FC0  B4D8               	btfsc	status,2,c
   845  000FC2  EFB4  F007         	goto	l2407
   846  000FC6  0A03               	xorlw	3	; case 2
   847  000FC8  B4D8               	btfsc	status,2,c
   848  000FCA  EFB9  F007         	goto	l2409
   849  000FCE  0A01               	xorlw	1	; case 3
   850  000FD0  B4D8               	btfsc	status,2,c
   851  000FD2  EFBE  F007         	goto	l2411
   852  000FD6  0A07               	xorlw	7	; case 4
   853  000FD8  B4D8               	btfsc	status,2,c
   854  000FDA  EFC3  F007         	goto	l2413
   855  000FDE  0A01               	xorlw	1	; case 5
   856  000FE0  B4D8               	btfsc	status,2,c
   857  000FE2  EFC8  F007         	goto	l2415
   858  000FE6  EFCC  F007         	goto	l2417
   859  000FEA                     l2423:
   860                           
   861                           ;verification.c: 18:     while(ControlFlagVerification == 1)
   862  000FEA  044D               	decf	_ControlFlagVerification^0,w,c
   863  000FEC  104E               	iorwf	(_ControlFlagVerification+1)^0,w,c
   864  000FEE  B4D8               	btfsc	status,2,c
   865  000FF0  EFFC  F007         	goto	u1161
   866  000FF4  EFFE  F007         	goto	u1160
   867  000FF8                     u1161:
   868  000FF8  EFD0  F007         	goto	l2421
   869  000FFC                     u1160:
   870  000FFC  0012               	return		;funcret
   871  000FFE                     __end_of_verification:
   872                           	opt callstack 0
   873                           
   874 ;; *************** function _start *****************
   875 ;; Defined at:
   876 ;;		line 15 in file "cases.c"
   877 ;; Parameters:    Size  Location     Type
   878 ;;		None
   879 ;; Auto vars:     Size  Location     Type
   880 ;;		None
   881 ;; Return value:  Size  Location     Type
   882 ;;                  1    wreg      unsigned char 
   883 ;; Registers used:
   884 ;;		wreg, status,2, status,0, tblptrl, tblptrh, tblptru, cstack
   885 ;; Tracked objects:
   886 ;;		On entry : 0/0
   887 ;;		On exit  : 0/0
   888 ;;		Unchanged: 0/0
   889 ;; Data sizes:     COMRAM   BANK0   BANK1   BANK2   BANK3   BANK4   BANK5   BANK6   BANK7
   890 ;;      Params:         0       0       0       0       0       0       0       0       0
   891 ;;      Locals:         0       0       0       0       0       0       0       0       0
   892 ;;      Temps:          0       0       0       0       0       0       0       0       0
   893 ;;      Totals:         0       0       0       0       0       0       0       0       0
   894 ;;Total ram usage:        0 bytes
   895 ;; Hardware stack levels used:    1
   896 ;; Hardware stack levels required when called:    6
   897 ;; This function calls:
   898 ;;		_UARTWrite
   899 ;;		_myPrintf
   900 ;; This function is called by:
   901 ;;		_verification
   902 ;; This function uses a non-reentrant model
   903 ;;
   904                           
   905                           	psect	text2
   906  001658                     __ptext2:
   907                           	opt callstack 0
   908  001658                     _start:
   909                           	opt callstack 23
   910  001658                     
   911                           ;cases.c: 17:     UARTWrite(0x0D);
   912  001658  0E0D               	movlw	13
   913  00165A  EC37  F00B         	call	_UARTWrite
   914  00165E                     
   915                           ;cases.c: 18:     myPrintf("Waiting...");
   916  00165E  0E9F               	movlw	low STR_1
   917  001660  6E05               	movwf	myPrintf@PointString^0,c
   918  001662  0E08               	movlw	high STR_1
   919  001664  6E06               	movwf	(myPrintf@PointString+1)^0,c
   920  001666  EC23  F009         	call	_myPrintf	;wreg free
   921  00166A                     
   922                           ;cases.c: 19:     return wait_cmd_State;
   923  00166A  0E01               	movlw	1
   924  00166C  0012               	return		;funcret
   925  00166E                     __end_of_start:
   926                           	opt callstack 0
   927                           
   928 ;; *************** function _end *****************
   929 ;; Defined at:
   930 ;;		line 111 in file "cases.c"
   931 ;; Parameters:    Size  Location     Type
   932 ;;		None
   933 ;; Auto vars:     Size  Location     Type
   934 ;;		None
   935 ;; Return value:  Size  Location     Type
   936 ;;                  1    wreg      void 
   937 ;; Registers used:
   938 ;;		wreg, status,2, status,0, tblptrl, tblptrh, tblptru, cstack
   939 ;; Tracked objects:
   940 ;;		On entry : 0/0
   941 ;;		On exit  : 0/0
   942 ;;		Unchanged: 0/0
   943 ;; Data sizes:     COMRAM   BANK0   BANK1   BANK2   BANK3   BANK4   BANK5   BANK6   BANK7
   944 ;;      Params:         0       0       0       0       0       0       0       0       0
   945 ;;      Locals:         0       0       0       0       0       0       0       0       0
   946 ;;      Temps:          0       0       0       0       0       0       0       0       0
   947 ;;      Totals:         0       0       0       0       0       0       0       0       0
   948 ;;Total ram usage:        0 bytes
   949 ;; Hardware stack levels used:    1
   950 ;; Hardware stack levels required when called:    6
   951 ;; This function calls:
   952 ;;		_UARTWrite
   953 ;;		_myPrintf
   954 ;; This function is called by:
   955 ;;		_verification
   956 ;; This function uses a non-reentrant model
   957 ;;
   958                           
   959                           	psect	text3
   960  0015E0                     __ptext3:
   961                           	opt callstack 0
   962  0015E0                     _end:
   963                           	opt callstack 23
   964  0015E0                     
   965                           ;cases.c: 113:     UARTWrite(0x0D);
   966  0015E0  0E0D               	movlw	13
   967  0015E2  EC37  F00B         	call	_UARTWrite
   968  0015E6                     
   969                           ;cases.c: 115:         myPrintf("Verify Completed");
   970  0015E6  0E80               	movlw	low STR_7
   971  0015E8  6E05               	movwf	myPrintf@PointString^0,c
   972  0015EA  0E08               	movlw	high STR_7
   973  0015EC  6E06               	movwf	(myPrintf@PointString+1)^0,c
   974  0015EE  EC23  F009         	call	_myPrintf	;wreg free
   975  0015F2                     
   976                           ;cases.c: 116:         UARTWrite(0x0A);
   977  0015F2  0E0A               	movlw	10
   978  0015F4  EC37  F00B         	call	_UARTWrite
   979  0015F8                     
   980                           ;cases.c: 121:     ControlFlagVerification = 0;
   981  0015F8  0E00               	movlw	0
   982  0015FA  6E4E               	movwf	(_ControlFlagVerification+1)^0,c
   983  0015FC  0E00               	movlw	0
   984  0015FE  6E4D               	movwf	_ControlFlagVerification^0,c
   985  001600  0012               	return		;funcret
   986  001602                     __end_of_end:
   987                           	opt callstack 0
   988                           
   989 ;; *************** function _cmd *****************
   990 ;; Defined at:
   991 ;;		line 22 in file "cases.c"
   992 ;; Parameters:    Size  Location     Type
   993 ;;		None
   994 ;; Auto vars:     Size  Location     Type
   995 ;;		None
   996 ;; Return value:  Size  Location     Type
   997 ;;                  1    wreg      unsigned char 
   998 ;; Registers used:
   999 ;;		wreg, fsr2l, fsr2h, status,2, status,0, tblptrl, tblptrh, tblptru, prodl, prodh, cstack
  1000 ;; Tracked objects:
  1001 ;;		On entry : 0/0
  1002 ;;		On exit  : 0/0
  1003 ;;		Unchanged: 0/0
  1004 ;; Data sizes:     COMRAM   BANK0   BANK1   BANK2   BANK3   BANK4   BANK5   BANK6   BANK7
  1005 ;;      Params:         0       0       0       0       0       0       0       0       0
  1006 ;;      Locals:         0       0       0       0       0       0       0       0       0
  1007 ;;      Temps:          0       0       0       0       0       0       0       0       0
  1008 ;;      Totals:         0       0       0       0       0       0       0       0       0
  1009 ;;Total ram usage:        0 bytes
  1010 ;; Hardware stack levels used:    1
  1011 ;; Hardware stack levels required when called:    6
  1012 ;; This function calls:
  1013 ;;		_UARTWrite
  1014 ;;		_coord
  1015 ;;		_myPrintf
  1016 ;; This function is called by:
  1017 ;;		_verification
  1018 ;; This function uses a non-reentrant model
  1019 ;;
  1020                           
  1021                           	psect	text4
  1022  001176                     __ptext4:
  1023                           	opt callstack 0
  1024  001176                     _cmd:
  1025                           	opt callstack 23
  1026  001176                     
  1027                           ;cases.c: 24:     UARTWrite(0x0D);
  1028  001176  0E0D               	movlw	13
  1029  001178  EC37  F00B         	call	_UARTWrite
  1030  00117C                     
  1031                           ;cases.c: 25:     myPrintf("Enter command");
  1032  00117C  0E91               	movlw	low STR_2
  1033  00117E  6E05               	movwf	myPrintf@PointString^0,c
  1034  001180  0E08               	movlw	high STR_2
  1035  001182  6E06               	movwf	(myPrintf@PointString+1)^0,c
  1036  001184  EC23  F009         	call	_myPrintf	;wreg free
  1037  001188                     
  1038                           ;cases.c: 27:     if(coord(&Par1,&letter,&cord_x, &cord_y, &Par2) == 1)
  1039  001188  0E3E               	movlw	low _Par1
  1040  00118A  6E05               	movwf	coord@P1^0,c
  1041  00118C  0E00               	movlw	high _Par1
  1042  00118E  6E06               	movwf	(coord@P1+1)^0,c
  1043  001190  0E3D               	movlw	low _letter
  1044  001192  6E07               	movwf	coord@L^0,c
  1045  001194  0E00               	movlw	high _letter
  1046  001196  6E08               	movwf	(coord@L+1)^0,c
  1047  001198  0E3A               	movlw	low _cord_x
  1048  00119A  6E09               	movwf	coord@x^0,c
  1049  00119C  0E00               	movlw	high _cord_x
  1050  00119E  6E0A               	movwf	(coord@x+1)^0,c
  1051  0011A0  0E38               	movlw	low _cord_y
  1052  0011A2  6E0B               	movwf	coord@y^0,c
  1053  0011A4  0E00               	movlw	high _cord_y
  1054  0011A6  6E0C               	movwf	(coord@y+1)^0,c
  1055  0011A8  0E3C               	movlw	low _Par2
  1056  0011AA  6E0D               	movwf	coord@P2^0,c
  1057  0011AC  0E00               	movlw	high _Par2
  1058  0011AE  6E0E               	movwf	(coord@P2+1)^0,c
  1059  0011B0  EC56  F004         	call	_coord	;wreg free
  1060  0011B4  0405               	decf	?_coord^0,w,c
  1061  0011B6  1006               	iorwf	(?_coord+1)^0,w,c
  1062  0011B8  A4D8               	btfss	status,2,c
  1063  0011BA  EFE1  F008         	goto	u921
  1064  0011BE  EFE3  F008         	goto	u920
  1065  0011C2                     u921:
  1066  0011C2  EFE6  F008         	goto	l2147
  1067  0011C6                     u920:
  1068  0011C6                     
  1069                           ;cases.c: 28:     {;cases.c: 29:         return validate_Par_State;
  1070  0011C6  0E02               	movlw	2
  1071  0011C8  EFF0  F008         	goto	l51
  1072  0011CC                     l2147:
  1073                           
  1074                           ;cases.c: 32:     {;cases.c: 34:         myPrintf("Commands were not recognized");
  1075  0011CC  0E48               	movlw	low STR_3
  1076  0011CE  6E05               	movwf	myPrintf@PointString^0,c
  1077  0011D0  0E08               	movlw	high STR_3
  1078  0011D2  6E06               	movwf	(myPrintf@PointString+1)^0,c
  1079  0011D4  EC23  F009         	call	_myPrintf	;wreg free
  1080  0011D8                     
  1081                           ;cases.c: 35:         UARTWrite(0x0A);
  1082  0011D8  0E0A               	movlw	10
  1083  0011DA  EC37  F00B         	call	_UARTWrite
  1084  0011DE                     
  1085                           ;cases.c: 40:         return wait_cmd_State;
  1086  0011DE  0E01               	movlw	1
  1087  0011E0                     l51:
  1088  0011E0  0012               	return		;funcret
  1089  0011E2                     __end_of_cmd:
  1090                           	opt callstack 0
  1091                           
  1092 ;; *************** function _coord *****************
  1093 ;; Defined at:
  1094 ;;		line 14 in file "coordenadas.c"
  1095 ;; Parameters:    Size  Location     Type
  1096 ;;  P1              2    4[COMRAM] PTR unsigned char 
  1097 ;;		 -> Par1(1), 
  1098 ;;  L               2    6[COMRAM] PTR unsigned char 
  1099 ;;		 -> letter(1), 
  1100 ;;  x               2    8[COMRAM] PTR unsigned short 
  1101 ;;		 -> cord_x(2), 
  1102 ;;  y               2   10[COMRAM] PTR unsigned short 
  1103 ;;		 -> cord_y(2), 
  1104 ;;  P2              2   12[COMRAM] PTR unsigned char 
  1105 ;;		 -> Par2(1), 
  1106 ;; Auto vars:     Size  Location     Type
  1107 ;;  n               1   32[COMRAM] unsigned char 
  1108 ;;  i               2   30[COMRAM] int 
  1109 ;;  buffer          9   18[COMRAM] unsigned char [9]
  1110 ;;  counterRevis    1   29[COMRAM] unsigned char 
  1111 ;;  flagBuffer      1    0        unsigned char 
  1112 ;;  read            1   27[COMRAM] unsigned char 
  1113 ;; Return value:  Size  Location     Type
  1114 ;;                  2    4[COMRAM] int 
  1115 ;; Registers used:
  1116 ;;		wreg, fsr2l, fsr2h, status,2, status,0, prodl, prodh, cstack
  1117 ;; Tracked objects:
  1118 ;;		On entry : 0/0
  1119 ;;		On exit  : 0/0
  1120 ;;		Unchanged: 0/0
  1121 ;; Data sizes:     COMRAM   BANK0   BANK1   BANK2   BANK3   BANK4   BANK5   BANK6   BANK7
  1122 ;;      Params:        10       0       0       0       0       0       0       0       0
  1123 ;;      Locals:        15       0       0       0       0       0       0       0       0
  1124 ;;      Temps:          4       0       0       0       0       0       0       0       0
  1125 ;;      Totals:        29       0       0       0       0       0       0       0       0
  1126 ;;Total ram usage:       29 bytes
  1127 ;; Hardware stack levels used:    1
  1128 ;; Hardware stack levels required when called:    5
  1129 ;; This function calls:
  1130 ;;		_UARTRead
  1131 ;; This function is called by:
  1132 ;;		_cmd
  1133 ;; This function uses a non-reentrant model
  1134 ;;
  1135                           
  1136                           	psect	text5
  1137  0008AC                     __ptext5:
  1138                           	opt callstack 0
  1139  0008AC                     _coord:
  1140                           	opt callstack 23
  1141  0008AC                     
  1142                           ;coordenadas.c: 18:         char counterRevision = 0;
  1143  0008AC  0E00               	movlw	0
  1144  0008AE  6E1E               	movwf	coord@counterRevision^0,c
  1145  0008B0                     
  1146                           ;coordenadas.c: 20:         RCSTAbits.CREN = 1;
  1147  0008B0  88AB               	bsf	171,4,c	;volatile
  1148                           
  1149                           ;coordenadas.c: 22:         for(int i=StartCommandCharacter; i<(EndCommandCharacter+1); 
      +                          i++){
  1150  0008B2  0E00               	movlw	0
  1151  0008B4  6E20               	movwf	(coord@i+1)^0,c
  1152  0008B6  0E00               	movlw	0
  1153  0008B8  6E1F               	movwf	coord@i^0,c
  1154  0008BA                     l2007:
  1155                           
  1156                           ;coordenadas.c: 23:             read= UARTRead();
  1157  0008BA  EC1F  F00B         	call	_UARTRead	;wreg free
  1158  0008BE  6E1C               	movwf	coord@read^0,c
  1159  0008C0                     
  1160                           ;coordenadas.c: 24:             buffer[i]=read;
  1161  0008C0  0E13               	movlw	low coord@buffer
  1162  0008C2  241F               	addwf	coord@i^0,w,c
  1163  0008C4  6ED9               	movwf	fsr2l,c
  1164  0008C6  0E00               	movlw	high coord@buffer
  1165  0008C8  2020               	addwfc	(coord@i+1)^0,w,c
  1166  0008CA  6EDA               	movwf	fsr2h,c
  1167  0008CC  C01C  FFDF         	movff	coord@read,indf2
  1168  0008D0                     
  1169                           ;coordenadas.c: 27:             if(i == (EndCommandCharacter))
  1170  0008D0  0E08               	movlw	8
  1171  0008D2  181F               	xorwf	coord@i^0,w,c
  1172  0008D4  1020               	iorwf	(coord@i+1)^0,w,c
  1173  0008D6  A4D8               	btfss	status,2,c
  1174  0008D8  EF70  F004         	goto	u761
  1175  0008DC  EF72  F004         	goto	u760
  1176  0008E0                     u761:
  1177  0008E0  EF73  F004         	goto	l2015
  1178  0008E4                     u760:
  1179  0008E4                     
  1180                           ;coordenadas.c: 28:             {;coordenadas.c: 29:                 RCSTAbits.CREN = 0;
  1181  0008E4  98AB               	bcf	171,4,c	;volatile
  1182  0008E6                     l2015:
  1183                           
  1184                           ;coordenadas.c: 31:         }
  1185  0008E6  4A1F               	infsnz	coord@i^0,f,c
  1186  0008E8  2A20               	incf	(coord@i+1)^0,f,c
  1187  0008EA  BE20               	btfsc	(coord@i+1)^0,7,c
  1188  0008EC  EF81  F004         	goto	u771
  1189  0008F0  5020               	movf	(coord@i+1)^0,w,c
  1190  0008F2  E109               	bnz	u770
  1191  0008F4  0E09               	movlw	9
  1192  0008F6  5C1F               	subwf	coord@i^0,w,c
  1193  0008F8  A0D8               	btfss	status,0,c
  1194  0008FA  EF81  F004         	goto	u771
  1195  0008FE  EF83  F004         	goto	u770
  1196  000902                     u771:
  1197  000902  EF5D  F004         	goto	l2007
  1198  000906                     u770:
  1199  000906                     
  1200                           ;coordenadas.c: 33:         if(RCSTAbits.OERR == 1)
  1201  000906  A2AB               	btfss	171,1,c	;volatile
  1202  000908  EF88  F004         	goto	u781
  1203  00090C  EF8A  F004         	goto	u780
  1204  000910                     u781:
  1205  000910  EF96  F004         	goto	l2027
  1206  000914                     u780:
  1207  000914                     
  1208                           ;coordenadas.c: 34:         {;coordenadas.c: 35:             TXSTA1bits.TXEN = 0;
  1209  000914  9AAC               	bcf	172,5,c	;volatile
  1210                           
  1211                           ;coordenadas.c: 36:             RCSTA1bits.CREN = 0;
  1212  000916  98AB               	bcf	171,4,c	;volatile
  1213  000918                     
  1214                           ;coordenadas.c: 37:             _delay((unsigned long)((15)*(8000000L/4000.0)));
  1215  000918  0E27               	movlw	39
  1216  00091A  6E0F               	movwf	??_coord^0,c
  1217  00091C  0EF5               	movlw	245
  1218  00091E                     u1327:
  1219  00091E  2EE8               	decfsz	wreg,f,c
  1220  000920  D7FE               	bra	u1327
  1221  000922  2E0F               	decfsz	??_coord^0,f,c
  1222  000924  D7FC               	bra	u1327
  1223  000926  F000               	nop	
  1224  000928                     
  1225                           ;coordenadas.c: 38:             TXSTA1bits.TXEN = 1;
  1226  000928  8AAC               	bsf	172,5,c	;volatile
  1227  00092A                     
  1228                           ;coordenadas.c: 39:             RCSTA1bits.CREN = 1;
  1229  00092A  88AB               	bsf	171,4,c	;volatile
  1230  00092C                     l2027:
  1231                           
  1232                           ;coordenadas.c: 43:         *P1= buffer[StartCommandCharacter];
  1233  00092C  C005  FFD9         	movff	coord@P1,fsr2l
  1234  000930  C006  FFDA         	movff	coord@P1+1,fsr2h
  1235  000934  C013  FFDF         	movff	coord@buffer,indf2
  1236  000938                     
  1237                           ;coordenadas.c: 44:         *L= buffer[InstructionCharacter];
  1238  000938  C007  FFD9         	movff	coord@L,fsr2l
  1239  00093C  C008  FFDA         	movff	coord@L+1,fsr2h
  1240  000940  C014  FFDF         	movff	coord@buffer+1,indf2
  1241  000944                     
  1242                           ;coordenadas.c: 45:         *P2= buffer[EndCommandCharacter];
  1243  000944  C00D  FFD9         	movff	coord@P2,fsr2l
  1244  000948  C00E  FFDA         	movff	coord@P2+1,fsr2h
  1245  00094C  C01B  FFDF         	movff	coord@buffer+8,indf2
  1246  000950                     
  1247                           ;coordenadas.c: 47:         for(char n=CharacterX1; n<(CharacterY3+1); n++)
  1248  000950  0E02               	movlw	2
  1249  000952  6E21               	movwf	coord@n^0,c
  1250  000954                     l2039:
  1251                           
  1252                           ;coordenadas.c: 48:         {;coordenadas.c: 49:             if(buffer[n] <= 57 && buffe
      +                          r[n] >= 48)
  1253  000954  0E13               	movlw	low coord@buffer
  1254  000956  2421               	addwf	coord@n^0,w,c
  1255  000958  6ED9               	movwf	fsr2l,c
  1256  00095A  6ADA               	clrf	fsr2h,c
  1257  00095C  0E00               	movlw	high coord@buffer
  1258  00095E  22DA               	addwfc	fsr2h,f,c
  1259  000960  0E3A               	movlw	58
  1260  000962  60DF               	cpfslt	indf2,c
  1261  000964  EFB6  F004         	goto	u791
  1262  000968  EFB8  F004         	goto	u790
  1263  00096C                     u791:
  1264  00096C  EFC7  F004         	goto	l196
  1265  000970                     u790:
  1266  000970  0E13               	movlw	low coord@buffer
  1267  000972  2421               	addwf	coord@n^0,w,c
  1268  000974  6ED9               	movwf	fsr2l,c
  1269  000976  6ADA               	clrf	fsr2h,c
  1270  000978  0E00               	movlw	high coord@buffer
  1271  00097A  22DA               	addwfc	fsr2h,f,c
  1272  00097C  0E2F               	movlw	47
  1273  00097E  64DF               	cpfsgt	indf2,c
  1274  000980  EFC4  F004         	goto	u801
  1275  000984  EFC6  F004         	goto	u800
  1276  000988                     u801:
  1277  000988  EFC7  F004         	goto	l196
  1278  00098C                     u800:
  1279  00098C                     
  1280                           ;coordenadas.c: 50:             {;coordenadas.c: 51:                 counterRevision++;
  1281  00098C  2A1E               	incf	coord@counterRevision^0,f,c
  1282  00098E                     l196:
  1283                           
  1284                           ;coordenadas.c: 53:         }
  1285  00098E  2A21               	incf	coord@n^0,f,c
  1286  000990  0E07               	movlw	7
  1287  000992  6421               	cpfsgt	coord@n^0,c
  1288  000994  EFCE  F004         	goto	u811
  1289  000998  EFD0  F004         	goto	u810
  1290  00099C                     u811:
  1291  00099C  EFAA  F004         	goto	l2039
  1292  0009A0                     u810:
  1293  0009A0                     
  1294                           ;coordenadas.c: 54:             if(counterRevision == 6)
  1295  0009A0  0E06               	movlw	6
  1296  0009A2  181E               	xorwf	coord@counterRevision^0,w,c
  1297  0009A4  A4D8               	btfss	status,2,c
  1298  0009A6  EFD7  F004         	goto	u821
  1299  0009AA  EFD9  F004         	goto	u820
  1300  0009AE                     u821:
  1301  0009AE  EFDB  F004         	goto	l2051
  1302  0009B2                     u820:
  1303  0009B2                     
  1304                           ;coordenadas.c: 57:             }
  1305  0009B2  EFE1  F004         	goto	l2055
  1306  0009B6                     l2051:
  1307                           
  1308                           ;coordenadas.c: 60:             {;coordenadas.c: 61:                 return 0;
  1309  0009B6  0E00               	movlw	0
  1310  0009B8  6E06               	movwf	(?_coord+1)^0,c
  1311  0009BA  0E00               	movlw	0
  1312  0009BC  6E05               	movwf	?_coord^0,c
  1313  0009BE  EF25  F005         	goto	l199
  1314  0009C2                     l2055:
  1315  0009C2                     
  1316                           ;coordenadas.c: 65:         {;coordenadas.c: 66:             *x = 1*(buffer[CharacterX3]
      +                          -48) + 10*(buffer[CharacterX2]-48) + 100*(buffer[CharacterX1]-48);
  1317  0009C2  0E30               	movlw	48
  1318  0009C4  6E0F               	movwf	??_coord^0,c
  1319  0009C6  0EEB               	movlw	235
  1320  0009C8  6E10               	movwf	(??_coord+1)^0,c
  1321  0009CA  5015               	movf	(coord@buffer+2)^0,w,c
  1322  0009CC  0D64               	mullw	100
  1323  0009CE  CFF3 F011          	movff	prodl,??_coord+2
  1324  0009D2  CFF4 F012          	movff	prodh,??_coord+3
  1325  0009D6  5016               	movf	(coord@buffer+3)^0,w,c
  1326  0009D8  0D0A               	mullw	10
  1327  0009DA  50F3               	movf	243,w,c
  1328  0009DC  2611               	addwf	(??_coord+2)^0,f,c
  1329  0009DE  50F4               	movf	244,w,c
  1330  0009E0  2212               	addwfc	(??_coord+3)^0,f,c
  1331  0009E2  5017               	movf	(coord@buffer+4)^0,w,c
  1332  0009E4  2611               	addwf	(??_coord+2)^0,f,c
  1333  0009E6  0E00               	movlw	0
  1334  0009E8  2212               	addwfc	(??_coord+3)^0,f,c
  1335  0009EA  500F               	movf	??_coord^0,w,c
  1336  0009EC  2611               	addwf	(??_coord+2)^0,f,c
  1337  0009EE  5010               	movf	(??_coord+1)^0,w,c
  1338  0009F0  2212               	addwfc	(??_coord+3)^0,f,c
  1339  0009F2  C009  FFD9         	movff	coord@x,fsr2l
  1340  0009F6  C00A  FFDA         	movff	coord@x+1,fsr2h
  1341  0009FA  C011  FFDE         	movff	??_coord+2,postinc2
  1342  0009FE  C012  FFDD         	movff	??_coord+3,postdec2
  1343                           
  1344                           ;coordenadas.c: 67:             *y = 1*(buffer[CharacterY3]-48) + 10*(buffer[CharacterY2
      +                          ]-48) + 100*(buffer[CharacterY1]-48);
  1345  000A02  0E30               	movlw	48
  1346  000A04  6E0F               	movwf	??_coord^0,c
  1347  000A06  0EEB               	movlw	235
  1348  000A08  6E10               	movwf	(??_coord+1)^0,c
  1349  000A0A  5018               	movf	(coord@buffer+5)^0,w,c
  1350  000A0C  0D64               	mullw	100
  1351  000A0E  CFF3 F011          	movff	prodl,??_coord+2
  1352  000A12  CFF4 F012          	movff	prodh,??_coord+3
  1353  000A16  5019               	movf	(coord@buffer+6)^0,w,c
  1354  000A18  0D0A               	mullw	10
  1355  000A1A  50F3               	movf	243,w,c
  1356  000A1C  2611               	addwf	(??_coord+2)^0,f,c
  1357  000A1E  50F4               	movf	244,w,c
  1358  000A20  2212               	addwfc	(??_coord+3)^0,f,c
  1359  000A22  501A               	movf	(coord@buffer+7)^0,w,c
  1360  000A24  2611               	addwf	(??_coord+2)^0,f,c
  1361  000A26  0E00               	movlw	0
  1362  000A28  2212               	addwfc	(??_coord+3)^0,f,c
  1363  000A2A  500F               	movf	??_coord^0,w,c
  1364  000A2C  2611               	addwf	(??_coord+2)^0,f,c
  1365  000A2E  5010               	movf	(??_coord+1)^0,w,c
  1366  000A30  2212               	addwfc	(??_coord+3)^0,f,c
  1367  000A32  C00B  FFD9         	movff	coord@y,fsr2l
  1368  000A36  C00C  FFDA         	movff	coord@y+1,fsr2h
  1369  000A3A  C011  FFDE         	movff	??_coord+2,postinc2
  1370  000A3E  C012  FFDD         	movff	??_coord+3,postdec2
  1371  000A42                     
  1372                           ;coordenadas.c: 69:             return 1;
  1373  000A42  0E00               	movlw	0
  1374  000A44  6E06               	movwf	(?_coord+1)^0,c
  1375  000A46  0E01               	movlw	1
  1376  000A48  6E05               	movwf	?_coord^0,c
  1377  000A4A                     l199:
  1378  000A4A  0012               	return		;funcret
  1379  000A4C                     __end_of_coord:
  1380                           	opt callstack 0
  1381                           
  1382 ;; *************** function _UARTRead *****************
  1383 ;; Defined at:
  1384 ;;		line 40 in file "UART.c"
  1385 ;; Parameters:    Size  Location     Type
  1386 ;;		None
  1387 ;; Auto vars:     Size  Location     Type
  1388 ;;  Lecture         1    3[COMRAM] unsigned char 
  1389 ;; Return value:  Size  Location     Type
  1390 ;;                  1    wreg      unsigned char 
  1391 ;; Registers used:
  1392 ;;		wreg, status,2
  1393 ;; Tracked objects:
  1394 ;;		On entry : 0/0
  1395 ;;		On exit  : 0/0
  1396 ;;		Unchanged: 0/0
  1397 ;; Data sizes:     COMRAM   BANK0   BANK1   BANK2   BANK3   BANK4   BANK5   BANK6   BANK7
  1398 ;;      Params:         0       0       0       0       0       0       0       0       0
  1399 ;;      Locals:         1       0       0       0       0       0       0       0       0
  1400 ;;      Temps:          0       0       0       0       0       0       0       0       0
  1401 ;;      Totals:         1       0       0       0       0       0       0       0       0
  1402 ;;Total ram usage:        1 bytes
  1403 ;; Hardware stack levels used:    1
  1404 ;; Hardware stack levels required when called:    4
  1405 ;; This function calls:
  1406 ;;		Nothing
  1407 ;; This function is called by:
  1408 ;;		_coord
  1409 ;; This function uses a non-reentrant model
  1410 ;;
  1411                           
  1412                           	psect	text6
  1413  00163E                     __ptext6:
  1414                           	opt callstack 0
  1415  00163E                     _UARTRead:
  1416                           	opt callstack 23
  1417  00163E                     l136:
  1418  00163E  AA9E               	btfss	158,5,c	;volatile
  1419  001640  EF24  F00B         	goto	u21
  1420  001644  EF26  F00B         	goto	u20
  1421  001648                     u21:
  1422  001648  EF1F  F00B         	goto	l136
  1423  00164C                     u20:
  1424  00164C                     
  1425                           ;UART.c: 52:     Lecture = RCREG;
  1426  00164C  CFAE F004          	movff	4014,UARTRead@Lecture	;volatile
  1427  001650                     
  1428                           ;UART.c: 53:     RCREG = 0;
  1429  001650  0E00               	movlw	0
  1430  001652  6EAE               	movwf	174,c	;volatile
  1431                           
  1432                           ;UART.c: 54:     return Lecture;
  1433  001654  5004               	movf	UARTRead@Lecture^0,w,c
  1434  001656  0012               	return		;funcret
  1435  001658                     __end_of_UARTRead:
  1436                           	opt callstack 0
  1437                           
  1438 ;; *************** function _Par_Validated *****************
  1439 ;; Defined at:
  1440 ;;		line 44 in file "cases.c"
  1441 ;; Parameters:    Size  Location     Type
  1442 ;;		None
  1443 ;; Auto vars:     Size  Location     Type
  1444 ;;		None
  1445 ;; Return value:  Size  Location     Type
  1446 ;;                  1    wreg      unsigned char 
  1447 ;; Registers used:
  1448 ;;		wreg, status,2, status,0, tblptrl, tblptrh, tblptru, cstack
  1449 ;; Tracked objects:
  1450 ;;		On entry : 0/0
  1451 ;;		On exit  : 0/0
  1452 ;;		Unchanged: 0/0
  1453 ;; Data sizes:     COMRAM   BANK0   BANK1   BANK2   BANK3   BANK4   BANK5   BANK6   BANK7
  1454 ;;      Params:         0       0       0       0       0       0       0       0       0
  1455 ;;      Locals:         0       0       0       0       0       0       0       0       0
  1456 ;;      Temps:          0       0       0       0       0       0       0       0       0
  1457 ;;      Totals:         0       0       0       0       0       0       0       0       0
  1458 ;;Total ram usage:        0 bytes
  1459 ;; Hardware stack levels used:    1
  1460 ;; Hardware stack levels required when called:    6
  1461 ;; This function calls:
  1462 ;;		_UARTWrite
  1463 ;;		_myPrintf
  1464 ;; This function is called by:
  1465 ;;		_verification
  1466 ;; This function uses a non-reentrant model
  1467 ;;
  1468                           
  1469                           	psect	text7
  1470  001450                     __ptext7:
  1471                           	opt callstack 0
  1472  001450                     _Par_Validated:
  1473                           	opt callstack 23
  1474  001450                     
  1475                           ;cases.c: 46:     if(Par1==0X3C && Par2==0x3E)
  1476  001450  0E3C               	movlw	60
  1477  001452  183E               	xorwf	_Par1^0,w,c
  1478  001454  A4D8               	btfss	status,2,c
  1479  001456  EF2F  F00A         	goto	u931
  1480  00145A  EF31  F00A         	goto	u930
  1481  00145E                     u931:
  1482  00145E  EF3D  F00A         	goto	l2165
  1483  001462                     u930:
  1484  001462  0E3E               	movlw	62
  1485  001464  183C               	xorwf	_Par2^0,w,c
  1486  001466  A4D8               	btfss	status,2,c
  1487  001468  EF38  F00A         	goto	u941
  1488  00146C  EF3A  F00A         	goto	u940
  1489  001470                     u941:
  1490  001470  EF3D  F00A         	goto	l2165
  1491  001474                     u940:
  1492  001474                     
  1493                           ;cases.c: 47:     {;cases.c: 48:         return validate_Instruct_State;
  1494  001474  0E03               	movlw	3
  1495  001476  EF47  F00A         	goto	l56
  1496  00147A                     l2165:
  1497                           
  1498                           ;cases.c: 51:     {;cases.c: 53:         myPrintf("Frames are not inserted correctly");
  1499  00147A  0E26               	movlw	low STR_4
  1500  00147C  6E05               	movwf	myPrintf@PointString^0,c
  1501  00147E  0E08               	movlw	high STR_4
  1502  001480  6E06               	movwf	(myPrintf@PointString+1)^0,c
  1503  001482  EC23  F009         	call	_myPrintf	;wreg free
  1504  001486                     
  1505                           ;cases.c: 54:         UARTWrite(0x0A);
  1506  001486  0E0A               	movlw	10
  1507  001488  EC37  F00B         	call	_UARTWrite
  1508  00148C                     
  1509                           ;cases.c: 61:         return wait_cmd_State;
  1510  00148C  0E01               	movlw	1
  1511  00148E                     l56:
  1512  00148E  0012               	return		;funcret
  1513  001490                     __end_of_Par_Validated:
  1514                           	opt callstack 0
  1515                           
  1516 ;; *************** function _Ins_Validated *****************
  1517 ;; Defined at:
  1518 ;;		line 65 in file "cases.c"
  1519 ;; Parameters:    Size  Location     Type
  1520 ;;		None
  1521 ;; Auto vars:     Size  Location     Type
  1522 ;;		None
  1523 ;; Return value:  Size  Location     Type
  1524 ;;                  1    wreg      unsigned char 
  1525 ;; Registers used:
  1526 ;;		wreg, status,2, status,0, tblptrl, tblptrh, tblptru, cstack
  1527 ;; Tracked objects:
  1528 ;;		On entry : 0/0
  1529 ;;		On exit  : 0/0
  1530 ;;		Unchanged: 0/0
  1531 ;; Data sizes:     COMRAM   BANK0   BANK1   BANK2   BANK3   BANK4   BANK5   BANK6   BANK7
  1532 ;;      Params:         0       0       0       0       0       0       0       0       0
  1533 ;;      Locals:         0       0       0       0       0       0       0       0       0
  1534 ;;      Temps:          0       0       0       0       0       0       0       0       0
  1535 ;;      Totals:         0       0       0       0       0       0       0       0       0
  1536 ;;Total ram usage:        0 bytes
  1537 ;; Hardware stack levels used:    1
  1538 ;; Hardware stack levels required when called:    6
  1539 ;; This function calls:
  1540 ;;		_UARTWrite
  1541 ;;		_myPrintf
  1542 ;; This function is called by:
  1543 ;;		_verification
  1544 ;; This function uses a non-reentrant model
  1545 ;;
  1546                           
  1547                           	psect	text8
  1548  0013BC                     __ptext8:
  1549                           	opt callstack 0
  1550  0013BC                     _Ins_Validated:
  1551                           	opt callstack 23
  1552  0013BC                     
  1553                           ;cases.c: 67:     if(letter == 0x43)
  1554  0013BC  0E43               	movlw	67
  1555  0013BE  183D               	xorwf	_letter^0,w,c
  1556  0013C0  A4D8               	btfss	status,2,c
  1557  0013C2  EFE5  F009         	goto	u951
  1558  0013C6  EFE7  F009         	goto	u950
  1559  0013CA                     u951:
  1560  0013CA  EFEC  F009         	goto	l2183
  1561  0013CE                     u950:
  1562  0013CE                     
  1563                           ;cases.c: 68:     {;cases.c: 69:         click=1;
  1564  0013CE  0E01               	movlw	1
  1565  0013D0  6E32               	movwf	_click^0,c
  1566  0013D2                     l2177:
  1567                           
  1568                           ;cases.c: 70:         return validate_Coord_State;
  1569  0013D2  0E04               	movlw	4
  1570  0013D4  EF03  F00A         	goto	l61
  1571  0013D8                     l2183:
  1572  0013D8  0E53               	movlw	83
  1573  0013DA  183D               	xorwf	_letter^0,w,c
  1574  0013DC  A4D8               	btfss	status,2,c
  1575  0013DE  EFF3  F009         	goto	u961
  1576  0013E2  EFF5  F009         	goto	u960
  1577  0013E6                     u961:
  1578  0013E6  EFF9  F009         	goto	l2193
  1579  0013EA                     u960:
  1580  0013EA                     
  1581                           ;cases.c: 74:     {;cases.c: 75:         click=0;
  1582  0013EA  0E00               	movlw	0
  1583  0013EC  6E32               	movwf	_click^0,c
  1584  0013EE  EFE9  F009         	goto	l2177
  1585  0013F2                     l2193:
  1586                           
  1587                           ;cases.c: 79:     {;cases.c: 82:         myPrintf("Touch Instrucction is not recognized"
      +                          );
  1588  0013F2  0E01               	movlw	low STR_5
  1589  0013F4  6E05               	movwf	myPrintf@PointString^0,c
  1590  0013F6  0E08               	movlw	high STR_5
  1591  0013F8  6E06               	movwf	(myPrintf@PointString+1)^0,c
  1592  0013FA  EC23  F009         	call	_myPrintf	;wreg free
  1593  0013FE                     
  1594                           ;cases.c: 83:         UARTWrite(0x0A);
  1595  0013FE  0E0A               	movlw	10
  1596  001400  EC37  F00B         	call	_UARTWrite
  1597  001404                     
  1598                           ;cases.c: 88:         return wait_cmd_State;
  1599  001404  0E01               	movlw	1
  1600  001406                     l61:
  1601  001406  0012               	return		;funcret
  1602  001408                     __end_of_Ins_Validated:
  1603                           	opt callstack 0
  1604                           
  1605 ;; *************** function _Coord_Validated *****************
  1606 ;; Defined at:
  1607 ;;		line 92 in file "cases.c"
  1608 ;; Parameters:    Size  Location     Type
  1609 ;;		None
  1610 ;; Auto vars:     Size  Location     Type
  1611 ;;		None
  1612 ;; Return value:  Size  Location     Type
  1613 ;;                  1    wreg      unsigned char 
  1614 ;; Registers used:
  1615 ;;		wreg, status,2, status,0, tblptrl, tblptrh, tblptru, cstack
  1616 ;; Tracked objects:
  1617 ;;		On entry : 0/0
  1618 ;;		On exit  : 0/0
  1619 ;;		Unchanged: 0/0
  1620 ;; Data sizes:     COMRAM   BANK0   BANK1   BANK2   BANK3   BANK4   BANK5   BANK6   BANK7
  1621 ;;      Params:         0       0       0       0       0       0       0       0       0
  1622 ;;      Locals:         0       0       0       0       0       0       0       0       0
  1623 ;;      Temps:          0       0       0       0       0       0       0       0       0
  1624 ;;      Totals:         0       0       0       0       0       0       0       0       0
  1625 ;;Total ram usage:        0 bytes
  1626 ;; Hardware stack levels used:    1
  1627 ;; Hardware stack levels required when called:    6
  1628 ;; This function calls:
  1629 ;;		_UARTWrite
  1630 ;;		_myPrintf
  1631 ;; This function is called by:
  1632 ;;		_verification
  1633 ;; This function uses a non-reentrant model
  1634 ;;
  1635                           
  1636                           	psect	text9
  1637  001408                     __ptext9:
  1638                           	opt callstack 0
  1639  001408                     _Coord_Validated:
  1640                           	opt callstack 23
  1641  001408                     
  1642                           ;cases.c: 94:     if(cord_x<=300 && cord_y<=300)
  1643  001408  0E2D               	movlw	45
  1644  00140A  5C3A               	subwf	_cord_x^0,w,c
  1645  00140C  0E01               	movlw	1
  1646  00140E  583B               	subwfb	(_cord_x+1)^0,w,c
  1647  001410  B0D8               	btfsc	status,0,c
  1648  001412  EF0D  F00A         	goto	u971
  1649  001416  EF0F  F00A         	goto	u970
  1650  00141A                     u971:
  1651  00141A  EF1D  F00A         	goto	l2211
  1652  00141E                     u970:
  1653  00141E  0E2D               	movlw	45
  1654  001420  5C38               	subwf	_cord_y^0,w,c
  1655  001422  0E01               	movlw	1
  1656  001424  5839               	subwfb	(_cord_y+1)^0,w,c
  1657  001426  B0D8               	btfsc	status,0,c
  1658  001428  EF18  F00A         	goto	u981
  1659  00142C  EF1A  F00A         	goto	u980
  1660  001430                     u981:
  1661  001430  EF1D  F00A         	goto	l2211
  1662  001434                     u980:
  1663  001434                     
  1664                           ;cases.c: 95:     {;cases.c: 96:         return end_State;
  1665  001434  0E05               	movlw	5
  1666  001436  EF27  F00A         	goto	l68
  1667  00143A                     l2211:
  1668                           
  1669                           ;cases.c: 99:     {;cases.c: 101:         myPrintf("Surpasses coordinates size");
  1670  00143A  0E65               	movlw	low STR_6
  1671  00143C  6E05               	movwf	myPrintf@PointString^0,c
  1672  00143E  0E08               	movlw	high STR_6
  1673  001440  6E06               	movwf	(myPrintf@PointString+1)^0,c
  1674  001442  EC23  F009         	call	_myPrintf	;wreg free
  1675  001446                     
  1676                           ;cases.c: 102:         UARTWrite(0x0A);
  1677  001446  0E0A               	movlw	10
  1678  001448  EC37  F00B         	call	_UARTWrite
  1679  00144C                     
  1680                           ;cases.c: 107:         return wait_cmd_State;
  1681  00144C  0E01               	movlw	1
  1682  00144E                     l68:
  1683  00144E  0012               	return		;funcret
  1684  001450                     __end_of_Coord_Validated:
  1685                           	opt callstack 0
  1686                           
  1687 ;; *************** function _myPrintf *****************
  1688 ;; Defined at:
  1689 ;;		line 94 in file "main.c"
  1690 ;; Parameters:    Size  Location     Type
  1691 ;;  PointString     2    4[COMRAM] PTR unsigned char 
  1692 ;;		 -> STR_7(17), STR_6(27), STR_5(37), STR_4(34), 
  1693 ;;		 -> STR_3(29), STR_2(14), STR_1(11), 
  1694 ;; Auto vars:     Size  Location     Type
  1695 ;;  i               1    8[COMRAM] unsigned char 
  1696 ;; Return value:  Size  Location     Type
  1697 ;;                  1    wreg      void 
  1698 ;; Registers used:
  1699 ;;		wreg, status,2, status,0, tblptrl, tblptrh, tblptru, cstack
  1700 ;; Tracked objects:
  1701 ;;		On entry : 0/0
  1702 ;;		On exit  : 0/0
  1703 ;;		Unchanged: 0/0
  1704 ;; Data sizes:     COMRAM   BANK0   BANK1   BANK2   BANK3   BANK4   BANK5   BANK6   BANK7
  1705 ;;      Params:         2       0       0       0       0       0       0       0       0
  1706 ;;      Locals:         1       0       0       0       0       0       0       0       0
  1707 ;;      Temps:          2       0       0       0       0       0       0       0       0
  1708 ;;      Totals:         5       0       0       0       0       0       0       0       0
  1709 ;;Total ram usage:        5 bytes
  1710 ;; Hardware stack levels used:    1
  1711 ;; Hardware stack levels required when called:    5
  1712 ;; This function calls:
  1713 ;;		_UARTWrite
  1714 ;; This function is called by:
  1715 ;;		_start
  1716 ;;		_cmd
  1717 ;;		_Par_Validated
  1718 ;;		_Ins_Validated
  1719 ;;		_Coord_Validated
  1720 ;;		_end
  1721 ;; This function uses a non-reentrant model
  1722 ;;
  1723                           
  1724                           	psect	text10
  1725  001246                     __ptext10:
  1726                           	opt callstack 0
  1727  001246                     _myPrintf:
  1728                           	opt callstack 23
  1729  001246                     
  1730                           ;main.c: 94: void myPrintf(unsigned char *PointString);main.c: 95: {;main.c: 96:     for
      +                           (unsigned char i = 0; i < 255; i++) {
  1731  001246  0E00               	movlw	0
  1732  001248  6E09               	movwf	myPrintf@i^0,c
  1733  00124A                     l1987:
  1734                           
  1735                           ;main.c: 97:         if (PointString[i] == ((void*)0)) {
  1736  00124A  5009               	movf	myPrintf@i^0,w,c
  1737  00124C  2405               	addwf	myPrintf@PointString^0,w,c
  1738  00124E  6E07               	movwf	??_myPrintf^0,c
  1739  001250  0E00               	movlw	0
  1740  001252  2006               	addwfc	(myPrintf@PointString+1)^0,w,c
  1741  001254  6E08               	movwf	(??_myPrintf+1)^0,c
  1742  001256  C007  FFF6         	movff	??_myPrintf,tblptrl
  1743  00125A  C008  FFF7         	movff	??_myPrintf+1,tblptrh
  1744  00125E                     	if	0	;tblptru may be non-zero
  1745  00125E                     	endif
  1746  00125E                     	if	0	;tblptru may be non-zero
  1747  00125E                     	endif
  1748  00125E  0008               	tblrd		*
  1749  001260  50F5               	movf	tablat,w,c
  1750  001262  0900               	iorlw	0
  1751  001264  A4D8               	btfss	status,2,c
  1752  001266  EF37  F009         	goto	u741
  1753  00126A  EF39  F009         	goto	u740
  1754  00126E                     u741:
  1755  00126E  EF3B  F009         	goto	l1993
  1756  001272                     u740:
  1757  001272  EF52  F009         	goto	l295
  1758  001276                     l1993:
  1759                           
  1760                           ;main.c: 100:             UARTWrite(PointString[i]);
  1761  001276  5009               	movf	myPrintf@i^0,w,c
  1762  001278  2405               	addwf	myPrintf@PointString^0,w,c
  1763  00127A  6E07               	movwf	??_myPrintf^0,c
  1764  00127C  0E00               	movlw	0
  1765  00127E  2006               	addwfc	(myPrintf@PointString+1)^0,w,c
  1766  001280  6E08               	movwf	(??_myPrintf+1)^0,c
  1767  001282  C007  FFF6         	movff	??_myPrintf,tblptrl
  1768  001286  C008  FFF7         	movff	??_myPrintf+1,tblptrh
  1769  00128A                     	if	0	;tblptru may be non-zero
  1770  00128A                     	endif
  1771  00128A                     	if	0	;tblptru may be non-zero
  1772  00128A                     	endif
  1773  00128A  0008               	tblrd		*
  1774  00128C  50F5               	movf	tablat,w,c
  1775  00128E  EC37  F00B         	call	_UARTWrite
  1776  001292                     
  1777                           ;main.c: 101:     }
  1778  001292  2A09               	incf	myPrintf@i^0,f,c
  1779  001294  2809               	incf	myPrintf@i^0,w,c
  1780  001296  A4D8               	btfss	status,2,c
  1781  001298  EF50  F009         	goto	u751
  1782  00129C  EF52  F009         	goto	u750
  1783  0012A0                     u751:
  1784  0012A0  EF25  F009         	goto	l1987
  1785  0012A4                     u750:
  1786  0012A4                     l295:
  1787  0012A4  0012               	return		;funcret
  1788  0012A6                     __end_of_myPrintf:
  1789                           	opt callstack 0
  1790                           
  1791 ;; *************** function _PrintMyActulPosition *****************
  1792 ;; Defined at:
  1793 ;;		line 69 in file "main.c"
  1794 ;; Parameters:    Size  Location     Type
  1795 ;;		None
  1796 ;; Auto vars:     Size  Location     Type
  1797 ;;  i               2   25[COMRAM] int 
  1798 ;;  i               2   23[COMRAM] int 
  1799 ;;  b               3   18[COMRAM] unsigned char [3]
  1800 ;;  a               3   15[COMRAM] unsigned char [3]
  1801 ;; Return value:  Size  Location     Type
  1802 ;;                  1    wreg      void 
  1803 ;; Registers used:
  1804 ;;		wreg, fsr2l, fsr2h, status,2, status,0, cstack
  1805 ;; Tracked objects:
  1806 ;;		On entry : 0/0
  1807 ;;		On exit  : 0/0
  1808 ;;		Unchanged: 0/0
  1809 ;; Data sizes:     COMRAM   BANK0   BANK1   BANK2   BANK3   BANK4   BANK5   BANK6   BANK7
  1810 ;;      Params:         0       0       0       0       0       0       0       0       0
  1811 ;;      Locals:        12       0       0       0       0       0       0       0       0
  1812 ;;      Temps:          0       0       0       0       0       0       0       0       0
  1813 ;;      Totals:        12       0       0       0       0       0       0       0       0
  1814 ;;Total ram usage:       12 bytes
  1815 ;; Hardware stack levels used:    1
  1816 ;; Hardware stack levels required when called:    5
  1817 ;; This function calls:
  1818 ;;		_UARTWrite
  1819 ;;		___lwdiv
  1820 ;;		___lwmod
  1821 ;; This function is called by:
  1822 ;;		_main
  1823 ;; This function uses a non-reentrant model
  1824 ;;
  1825                           
  1826                           	psect	text11
  1827  000BE6                     __ptext11:
  1828                           	opt callstack 0
  1829  000BE6                     _PrintMyActulPosition:
  1830                           	opt callstack 25
  1831  000BE6                     
  1832                           ;main.c: 72:         char a[3];;main.c: 73:         char b[3];;main.c: 75:         a[0]=
      +                          (CoordAntX/100)+48;
  1833  000BE6  C04B  F009         	movff	_CoordAntX,___lwdiv@dividend
  1834  000BEA  C04C  F00A         	movff	_CoordAntX+1,___lwdiv@dividend+1
  1835  000BEE  0E00               	movlw	0
  1836  000BF0  6E0C               	movwf	(___lwdiv@divisor+1)^0,c
  1837  000BF2  0E64               	movlw	100
  1838  000BF4  6E0B               	movwf	___lwdiv@divisor^0,c
  1839  000BF6  EC48  F008         	call	___lwdiv	;wreg free
  1840  000BFA  5009               	movf	?___lwdiv^0,w,c
  1841  000BFC  0F30               	addlw	48
  1842  000BFE  6E10               	movwf	PrintMyActulPosition@a^0,c
  1843                           
  1844                           ;main.c: 76:         a[1]=((CoordAntX%100)/10)+48;
  1845  000C00  0E00               	movlw	0
  1846  000C02  6E07               	movwf	(___lwmod@divisor+1)^0,c
  1847  000C04  0E64               	movlw	100
  1848  000C06  6E06               	movwf	___lwmod@divisor^0,c
  1849  000C08  C04B  F004         	movff	_CoordAntX,___lwmod@dividend
  1850  000C0C  C04C  F005         	movff	_CoordAntX+1,___lwmod@dividend+1
  1851  000C10  ECF1  F008         	call	___lwmod	;wreg free
  1852  000C14  C004  F009         	movff	?___lwmod,___lwdiv@dividend
  1853  000C18  C005  F00A         	movff	?___lwmod+1,___lwdiv@dividend+1
  1854  000C1C  0E00               	movlw	0
  1855  000C1E  6E0C               	movwf	(___lwdiv@divisor+1)^0,c
  1856  000C20  0E0A               	movlw	10
  1857  000C22  6E0B               	movwf	___lwdiv@divisor^0,c
  1858  000C24  EC48  F008         	call	___lwdiv	;wreg free
  1859  000C28  5009               	movf	?___lwdiv^0,w,c
  1860  000C2A  0F30               	addlw	48
  1861  000C2C  6E11               	movwf	(PrintMyActulPosition@a+1)^0,c
  1862                           
  1863                           ;main.c: 77:         a[2]=((CoordAntX%100)%10)+48;
  1864  000C2E  0E00               	movlw	0
  1865  000C30  6E07               	movwf	(___lwmod@divisor+1)^0,c
  1866  000C32  0E64               	movlw	100
  1867  000C34  6E06               	movwf	___lwmod@divisor^0,c
  1868  000C36  C04B  F004         	movff	_CoordAntX,___lwmod@dividend
  1869  000C3A  C04C  F005         	movff	_CoordAntX+1,___lwmod@dividend+1
  1870  000C3E  ECF1  F008         	call	___lwmod	;wreg free
  1871  000C42  C004  F016         	movff	?___lwmod,_PrintMyActulPosition$2013
  1872  000C46  C005  F017         	movff	?___lwmod+1,_PrintMyActulPosition$2013+1
  1873                           
  1874                           ;main.c: 77:         a[2]=((CoordAntX%100)%10)+48;
  1875  000C4A  C016  F004         	movff	_PrintMyActulPosition$2013,___lwmod@dividend
  1876  000C4E  C017  F005         	movff	_PrintMyActulPosition$2013+1,___lwmod@dividend+1
  1877  000C52  0E00               	movlw	0
  1878  000C54  6E07               	movwf	(___lwmod@divisor+1)^0,c
  1879  000C56  0E0A               	movlw	10
  1880  000C58  6E06               	movwf	___lwmod@divisor^0,c
  1881  000C5A  ECF1  F008         	call	___lwmod	;wreg free
  1882  000C5E  5004               	movf	?___lwmod^0,w,c
  1883  000C60  0F30               	addlw	48
  1884  000C62  6E12               	movwf	(PrintMyActulPosition@a+2)^0,c
  1885                           
  1886                           ;main.c: 79:         b[0]=(CoordAntY/100)+48;
  1887  000C64  C049  F009         	movff	_CoordAntY,___lwdiv@dividend
  1888  000C68  C04A  F00A         	movff	_CoordAntY+1,___lwdiv@dividend+1
  1889  000C6C  0E00               	movlw	0
  1890  000C6E  6E0C               	movwf	(___lwdiv@divisor+1)^0,c
  1891  000C70  0E64               	movlw	100
  1892  000C72  6E0B               	movwf	___lwdiv@divisor^0,c
  1893  000C74  EC48  F008         	call	___lwdiv	;wreg free
  1894  000C78  5009               	movf	?___lwdiv^0,w,c
  1895  000C7A  0F30               	addlw	48
  1896  000C7C  6E13               	movwf	PrintMyActulPosition@b^0,c
  1897                           
  1898                           ;main.c: 80:         b[1]=((CoordAntY%100)/10)+48;
  1899  000C7E  0E00               	movlw	0
  1900  000C80  6E07               	movwf	(___lwmod@divisor+1)^0,c
  1901  000C82  0E64               	movlw	100
  1902  000C84  6E06               	movwf	___lwmod@divisor^0,c
  1903  000C86  C049  F004         	movff	_CoordAntY,___lwmod@dividend
  1904  000C8A  C04A  F005         	movff	_CoordAntY+1,___lwmod@dividend+1
  1905  000C8E  ECF1  F008         	call	___lwmod	;wreg free
  1906  000C92  C004  F009         	movff	?___lwmod,___lwdiv@dividend
  1907  000C96  C005  F00A         	movff	?___lwmod+1,___lwdiv@dividend+1
  1908  000C9A  0E00               	movlw	0
  1909  000C9C  6E0C               	movwf	(___lwdiv@divisor+1)^0,c
  1910  000C9E  0E0A               	movlw	10
  1911  000CA0  6E0B               	movwf	___lwdiv@divisor^0,c
  1912  000CA2  EC48  F008         	call	___lwdiv	;wreg free
  1913  000CA6  5009               	movf	?___lwdiv^0,w,c
  1914  000CA8  0F30               	addlw	48
  1915  000CAA  6E14               	movwf	(PrintMyActulPosition@b+1)^0,c
  1916                           
  1917                           ;main.c: 81:         b[2]=((CoordAntY%100)%10)+48;
  1918  000CAC  0E00               	movlw	0
  1919  000CAE  6E07               	movwf	(___lwmod@divisor+1)^0,c
  1920  000CB0  0E64               	movlw	100
  1921  000CB2  6E06               	movwf	___lwmod@divisor^0,c
  1922  000CB4  C049  F004         	movff	_CoordAntY,___lwmod@dividend
  1923  000CB8  C04A  F005         	movff	_CoordAntY+1,___lwmod@dividend+1
  1924  000CBC  ECF1  F008         	call	___lwmod	;wreg free
  1925  000CC0  C004  F016         	movff	?___lwmod,_PrintMyActulPosition$2013
  1926  000CC4  C005  F017         	movff	?___lwmod+1,_PrintMyActulPosition$2013+1
  1927                           
  1928                           ;main.c: 81:         b[2]=((CoordAntY%100)%10)+48;
  1929  000CC8  C016  F004         	movff	_PrintMyActulPosition$2013,___lwmod@dividend
  1930  000CCC  C017  F005         	movff	_PrintMyActulPosition$2013+1,___lwmod@dividend+1
  1931  000CD0  0E00               	movlw	0
  1932  000CD2  6E07               	movwf	(___lwmod@divisor+1)^0,c
  1933  000CD4  0E0A               	movlw	10
  1934  000CD6  6E06               	movwf	___lwmod@divisor^0,c
  1935  000CD8  ECF1  F008         	call	___lwmod	;wreg free
  1936  000CDC  5004               	movf	?___lwmod^0,w,c
  1937  000CDE  0F30               	addlw	48
  1938  000CE0  6E15               	movwf	(PrintMyActulPosition@b+2)^0,c
  1939  000CE2                     
  1940                           ;main.c: 83:         for(int i=0; i<3; i++){
  1941  000CE2  0E00               	movlw	0
  1942  000CE4  6E19               	movwf	(PrintMyActulPosition@i+1)^0,c
  1943  000CE6  0E00               	movlw	0
  1944  000CE8  6E18               	movwf	PrintMyActulPosition@i^0,c
  1945  000CEA                     l2437:
  1946                           
  1947                           ;main.c: 85:             UARTWrite(a[i]);
  1948  000CEA  0E10               	movlw	low PrintMyActulPosition@a
  1949  000CEC  2418               	addwf	PrintMyActulPosition@i^0,w,c
  1950  000CEE  6ED9               	movwf	fsr2l,c
  1951  000CF0  0E00               	movlw	high PrintMyActulPosition@a
  1952  000CF2  2019               	addwfc	(PrintMyActulPosition@i+1)^0,w,c
  1953  000CF4  6EDA               	movwf	fsr2h,c
  1954  000CF6  50DF               	movf	indf2,w,c
  1955  000CF8  EC37  F00B         	call	_UARTWrite
  1956  000CFC                     
  1957                           ;main.c: 86:         }
  1958  000CFC  4A18               	infsnz	PrintMyActulPosition@i^0,f,c
  1959  000CFE  2A19               	incf	(PrintMyActulPosition@i+1)^0,f,c
  1960  000D00  BE19               	btfsc	(PrintMyActulPosition@i+1)^0,7,c
  1961  000D02  EF8C  F006         	goto	u1171
  1962  000D06  5019               	movf	(PrintMyActulPosition@i+1)^0,w,c
  1963  000D08  E109               	bnz	u1170
  1964  000D0A  0E03               	movlw	3
  1965  000D0C  5C18               	subwf	PrintMyActulPosition@i^0,w,c
  1966  000D0E  A0D8               	btfss	status,0,c
  1967  000D10  EF8C  F006         	goto	u1171
  1968  000D14  EF8E  F006         	goto	u1170
  1969  000D18                     u1171:
  1970  000D18  EF75  F006         	goto	l2437
  1971  000D1C                     u1170:
  1972  000D1C                     
  1973                           ;main.c: 87:         UARTWrite(0x2C);
  1974  000D1C  0E2C               	movlw	44
  1975  000D1E  EC37  F00B         	call	_UARTWrite
  1976  000D22                     
  1977                           ;main.c: 88:         for(int i=0; i<3; i++){
  1978  000D22  0E00               	movlw	0
  1979  000D24  6E1B               	movwf	(PrintMyActulPosition@i_810+1)^0,c
  1980  000D26  0E00               	movlw	0
  1981  000D28  6E1A               	movwf	PrintMyActulPosition@i_810^0,c
  1982  000D2A                     l2451:
  1983                           
  1984                           ;main.c: 90:             UARTWrite(b[i]);
  1985  000D2A  0E13               	movlw	low PrintMyActulPosition@b
  1986  000D2C  241A               	addwf	PrintMyActulPosition@i_810^0,w,c
  1987  000D2E  6ED9               	movwf	fsr2l,c
  1988  000D30  0E00               	movlw	high PrintMyActulPosition@b
  1989  000D32  201B               	addwfc	(PrintMyActulPosition@i_810+1)^0,w,c
  1990  000D34  6EDA               	movwf	fsr2h,c
  1991  000D36  50DF               	movf	indf2,w,c
  1992  000D38  EC37  F00B         	call	_UARTWrite
  1993  000D3C                     
  1994                           ;main.c: 91:         }
  1995  000D3C  4A1A               	infsnz	PrintMyActulPosition@i_810^0,f,c
  1996  000D3E  2A1B               	incf	(PrintMyActulPosition@i_810+1)^0,f,c
  1997  000D40  BE1B               	btfsc	(PrintMyActulPosition@i_810+1)^0,7,c
  1998  000D42  EFAC  F006         	goto	u1181
  1999  000D46  501B               	movf	(PrintMyActulPosition@i_810+1)^0,w,c
  2000  000D48  E109               	bnz	u1180
  2001  000D4A  0E03               	movlw	3
  2002  000D4C  5C1A               	subwf	PrintMyActulPosition@i_810^0,w,c
  2003  000D4E  A0D8               	btfss	status,0,c
  2004  000D50  EFAC  F006         	goto	u1181
  2005  000D54  EFAE  F006         	goto	u1180
  2006  000D58                     u1181:
  2007  000D58  EF95  F006         	goto	l2451
  2008  000D5C                     u1180:
  2009  000D5C  0012               	return		;funcret
  2010  000D5E                     __end_of_PrintMyActulPosition:
  2011                           	opt callstack 0
  2012                           
  2013 ;; *************** function ___lwmod *****************
  2014 ;; Defined at:
  2015 ;;		line 7 in file "C:\Program Files (x86)\Microchip\xc8\v2.10\pic\sources\c99\common\lwmod.c"
  2016 ;; Parameters:    Size  Location     Type
  2017 ;;  dividend        2    3[COMRAM] unsigned int 
  2018 ;;  divisor         2    5[COMRAM] unsigned int 
  2019 ;; Auto vars:     Size  Location     Type
  2020 ;;  counter         1    7[COMRAM] unsigned char 
  2021 ;; Return value:  Size  Location     Type
  2022 ;;                  2    3[COMRAM] unsigned int 
  2023 ;; Registers used:
  2024 ;;		wreg, status,2, status,0
  2025 ;; Tracked objects:
  2026 ;;		On entry : 0/0
  2027 ;;		On exit  : 0/0
  2028 ;;		Unchanged: 0/0
  2029 ;; Data sizes:     COMRAM   BANK0   BANK1   BANK2   BANK3   BANK4   BANK5   BANK6   BANK7
  2030 ;;      Params:         4       0       0       0       0       0       0       0       0
  2031 ;;      Locals:         1       0       0       0       0       0       0       0       0
  2032 ;;      Temps:          0       0       0       0       0       0       0       0       0
  2033 ;;      Totals:         5       0       0       0       0       0       0       0       0
  2034 ;;Total ram usage:        5 bytes
  2035 ;; Hardware stack levels used:    1
  2036 ;; Hardware stack levels required when called:    4
  2037 ;; This function calls:
  2038 ;;		Nothing
  2039 ;; This function is called by:
  2040 ;;		_PrintMyActulPosition
  2041 ;; This function uses a non-reentrant model
  2042 ;;
  2043                           
  2044                           	psect	text12
  2045  0011E2                     __ptext12:
  2046                           	opt callstack 0
  2047  0011E2                     ___lwmod:
  2048                           	opt callstack 25
  2049  0011E2  5006               	movf	___lwmod@divisor^0,w,c
  2050  0011E4  1007               	iorwf	(___lwmod@divisor+1)^0,w,c
  2051  0011E6  B4D8               	btfsc	status,2,c
  2052  0011E8  EFF8  F008         	goto	u1101
  2053  0011EC  EFFA  F008         	goto	u1100
  2054  0011F0                     u1101:
  2055  0011F0  EF1E  F009         	goto	l1161
  2056  0011F4                     u1100:
  2057  0011F4  0E01               	movlw	1
  2058  0011F6  6E08               	movwf	___lwmod@counter^0,c
  2059  0011F8  EF02  F009         	goto	l2329
  2060  0011FC                     l2327:
  2061  0011FC  90D8               	bcf	status,0,c
  2062  0011FE  3606               	rlcf	___lwmod@divisor^0,f,c
  2063  001200  3607               	rlcf	(___lwmod@divisor+1)^0,f,c
  2064  001202  2A08               	incf	___lwmod@counter^0,f,c
  2065  001204                     l2329:
  2066  001204  AE07               	btfss	(___lwmod@divisor+1)^0,7,c
  2067  001206  EF07  F009         	goto	u1111
  2068  00120A  EF09  F009         	goto	u1110
  2069  00120E                     u1111:
  2070  00120E  EFFE  F008         	goto	l2327
  2071  001212                     u1110:
  2072  001212                     l2331:
  2073  001212  5006               	movf	___lwmod@divisor^0,w,c
  2074  001214  5C04               	subwf	___lwmod@dividend^0,w,c
  2075  001216  5007               	movf	(___lwmod@divisor+1)^0,w,c
  2076  001218  5805               	subwfb	(___lwmod@dividend+1)^0,w,c
  2077  00121A  A0D8               	btfss	status,0,c
  2078  00121C  EF12  F009         	goto	u1121
  2079  001220  EF14  F009         	goto	u1120
  2080  001224                     u1121:
  2081  001224  EF18  F009         	goto	l2335
  2082  001228                     u1120:
  2083  001228  5006               	movf	___lwmod@divisor^0,w,c
  2084  00122A  5E04               	subwf	___lwmod@dividend^0,f,c
  2085  00122C  5007               	movf	(___lwmod@divisor+1)^0,w,c
  2086  00122E  5A05               	subwfb	(___lwmod@dividend+1)^0,f,c
  2087  001230                     l2335:
  2088  001230  90D8               	bcf	status,0,c
  2089  001232  3207               	rrcf	(___lwmod@divisor+1)^0,f,c
  2090  001234  3206               	rrcf	___lwmod@divisor^0,f,c
  2091  001236  2E08               	decfsz	___lwmod@counter^0,f,c
  2092  001238  EF09  F009         	goto	l2331
  2093  00123C                     l1161:
  2094  00123C  C004  F004         	movff	___lwmod@dividend,?___lwmod
  2095  001240  C005  F005         	movff	___lwmod@dividend+1,?___lwmod+1
  2096  001244  0012               	return		;funcret
  2097  001246                     __end_of___lwmod:
  2098                           	opt callstack 0
  2099                           
  2100 ;; *************** function ___lwdiv *****************
  2101 ;; Defined at:
  2102 ;;		line 7 in file "C:\Program Files (x86)\Microchip\xc8\v2.10\pic\sources\c99\common\lwdiv.c"
  2103 ;; Parameters:    Size  Location     Type
  2104 ;;  dividend        2    8[COMRAM] unsigned int 
  2105 ;;  divisor         2   10[COMRAM] unsigned int 
  2106 ;; Auto vars:     Size  Location     Type
  2107 ;;  quotient        2   12[COMRAM] unsigned int 
  2108 ;;  counter         1   14[COMRAM] unsigned char 
  2109 ;; Return value:  Size  Location     Type
  2110 ;;                  2    8[COMRAM] unsigned int 
  2111 ;; Registers used:
  2112 ;;		wreg, status,2, status,0
  2113 ;; Tracked objects:
  2114 ;;		On entry : 0/0
  2115 ;;		On exit  : 0/0
  2116 ;;		Unchanged: 0/0
  2117 ;; Data sizes:     COMRAM   BANK0   BANK1   BANK2   BANK3   BANK4   BANK5   BANK6   BANK7
  2118 ;;      Params:         4       0       0       0       0       0       0       0       0
  2119 ;;      Locals:         3       0       0       0       0       0       0       0       0
  2120 ;;      Temps:          0       0       0       0       0       0       0       0       0
  2121 ;;      Totals:         7       0       0       0       0       0       0       0       0
  2122 ;;Total ram usage:        7 bytes
  2123 ;; Hardware stack levels used:    1
  2124 ;; Hardware stack levels required when called:    4
  2125 ;; This function calls:
  2126 ;;		Nothing
  2127 ;; This function is called by:
  2128 ;;		_PrintMyActulPosition
  2129 ;; This function uses a non-reentrant model
  2130 ;;
  2131                           
  2132                           	psect	text13
  2133  001090                     __ptext13:
  2134                           	opt callstack 0
  2135  001090                     ___lwdiv:
  2136                           	opt callstack 25
  2137  001090  0E00               	movlw	0
  2138  001092  6E0E               	movwf	(___lwdiv@quotient+1)^0,c
  2139  001094  0E00               	movlw	0
  2140  001096  6E0D               	movwf	___lwdiv@quotient^0,c
  2141  001098  500B               	movf	___lwdiv@divisor^0,w,c
  2142  00109A  100C               	iorwf	(___lwdiv@divisor+1)^0,w,c
  2143  00109C  B4D8               	btfsc	status,2,c
  2144  00109E  EF53  F008         	goto	u1071
  2145  0010A2  EF55  F008         	goto	u1070
  2146  0010A6                     u1071:
  2147  0010A6  EF7D  F008         	goto	l1151
  2148  0010AA                     u1070:
  2149  0010AA  0E01               	movlw	1
  2150  0010AC  6E0F               	movwf	___lwdiv@counter^0,c
  2151  0010AE  EF5D  F008         	goto	l2309
  2152  0010B2                     l2307:
  2153  0010B2  90D8               	bcf	status,0,c
  2154  0010B4  360B               	rlcf	___lwdiv@divisor^0,f,c
  2155  0010B6  360C               	rlcf	(___lwdiv@divisor+1)^0,f,c
  2156  0010B8  2A0F               	incf	___lwdiv@counter^0,f,c
  2157  0010BA                     l2309:
  2158  0010BA  AE0C               	btfss	(___lwdiv@divisor+1)^0,7,c
  2159  0010BC  EF62  F008         	goto	u1081
  2160  0010C0  EF64  F008         	goto	u1080
  2161  0010C4                     u1081:
  2162  0010C4  EF59  F008         	goto	l2307
  2163  0010C8                     u1080:
  2164  0010C8                     l2311:
  2165  0010C8  90D8               	bcf	status,0,c
  2166  0010CA  360D               	rlcf	___lwdiv@quotient^0,f,c
  2167  0010CC  360E               	rlcf	(___lwdiv@quotient+1)^0,f,c
  2168  0010CE  500B               	movf	___lwdiv@divisor^0,w,c
  2169  0010D0  5C09               	subwf	___lwdiv@dividend^0,w,c
  2170  0010D2  500C               	movf	(___lwdiv@divisor+1)^0,w,c
  2171  0010D4  580A               	subwfb	(___lwdiv@dividend+1)^0,w,c
  2172  0010D6  A0D8               	btfss	status,0,c
  2173  0010D8  EF70  F008         	goto	u1091
  2174  0010DC  EF72  F008         	goto	u1090
  2175  0010E0                     u1091:
  2176  0010E0  EF77  F008         	goto	l2319
  2177  0010E4                     u1090:
  2178  0010E4  500B               	movf	___lwdiv@divisor^0,w,c
  2179  0010E6  5E09               	subwf	___lwdiv@dividend^0,f,c
  2180  0010E8  500C               	movf	(___lwdiv@divisor+1)^0,w,c
  2181  0010EA  5A0A               	subwfb	(___lwdiv@dividend+1)^0,f,c
  2182  0010EC  800D               	bsf	___lwdiv@quotient^0,0,c
  2183  0010EE                     l2319:
  2184  0010EE  90D8               	bcf	status,0,c
  2185  0010F0  320C               	rrcf	(___lwdiv@divisor+1)^0,f,c
  2186  0010F2  320B               	rrcf	___lwdiv@divisor^0,f,c
  2187  0010F4  2E0F               	decfsz	___lwdiv@counter^0,f,c
  2188  0010F6  EF64  F008         	goto	l2311
  2189  0010FA                     l1151:
  2190  0010FA  C00D  F009         	movff	___lwdiv@quotient,?___lwdiv
  2191  0010FE  C00E  F00A         	movff	___lwdiv@quotient+1,?___lwdiv+1
  2192  001102  0012               	return		;funcret
  2193  001104                     __end_of___lwdiv:
  2194                           	opt callstack 0
  2195                           
  2196 ;; *************** function _Movimiento *****************
  2197 ;; Defined at:
  2198 ;;		line 14 in file "Movimiento.c"
  2199 ;; Parameters:    Size  Location     Type
  2200 ;;		None
  2201 ;; Auto vars:     Size  Location     Type
  2202 ;;  i               2   23[COMRAM] int 
  2203 ;;  i               2   21[COMRAM] int 
  2204 ;;  loquequieras    5   16[COMRAM] unsigned char [5]
  2205 ;;  loquequieras    5   11[COMRAM] unsigned char [5]
  2206 ;; Return value:  Size  Location     Type
  2207 ;;                  2  224[None  ] int 
  2208 ;; Registers used:
  2209 ;;		wreg, fsr1l, fsr1h, fsr2l, fsr2h, status,2, status,0, prodl, prodh, cstack
  2210 ;; Tracked objects:
  2211 ;;		On entry : 0/0
  2212 ;;		On exit  : 0/0
  2213 ;;		Unchanged: 0/0
  2214 ;; Data sizes:     COMRAM   BANK0   BANK1   BANK2   BANK3   BANK4   BANK5   BANK6   BANK7
  2215 ;;      Params:         0       0       0       0       0       0       0       0       0
  2216 ;;      Locals:        14       0       0       0       0       0       0       0       0
  2217 ;;      Temps:          2       0       0       0       0       0       0       0       0
  2218 ;;      Totals:        16       0       0       0       0       0       0       0       0
  2219 ;;Total ram usage:       16 bytes
  2220 ;; Hardware stack levels used:    1
  2221 ;; Hardware stack levels required when called:    7
  2222 ;; This function calls:
  2223 ;;		_PWM
  2224 ;;		_UARTWrite
  2225 ;; This function is called by:
  2226 ;;		_main
  2227 ;; This function uses a non-reentrant model
  2228 ;;
  2229                           
  2230                           	psect	text14
  2231  000E6A                     __ptext14:
  2232                           	opt callstack 0
  2233  000E6A                     _Movimiento:
  2234                           	opt callstack 23
  2235  000E6A                     
  2236                           ;Movimiento.c: 17:     if(click == 1){
  2237  000E6A  0432               	decf	_click^0,w,c
  2238  000E6C  A4D8               	btfss	status,2,c
  2239  000E6E  EF3B  F007         	goto	u1191
  2240  000E72  EF3D  F007         	goto	u1190
  2241  000E76                     u1191:
  2242  000E76  EF74  F007         	goto	l2481
  2243  000E7A                     u1190:
  2244  000E7A                     
  2245                           ;Movimiento.c: 18:         PWM();
  2246  000E7A  EC26  F005         	call	_PWM	;wreg free
  2247  000E7E                     
  2248                           ;Movimiento.c: 19:         PORTDbits.RD7=1;
  2249  000E7E  8E83               	bsf	131,7,c	;volatile
  2250  000E80                     
  2251                           ;Movimiento.c: 20:         _delay((unsigned long)((1200)*(8000000L/4000.0)));
  2252  000E80  0E0D               	movlw	13
  2253  000E82  6E0B               	movwf	(??_Movimiento+1)^0,c
  2254  000E84  0E2D               	movlw	45
  2255  000E86  6E0A               	movwf	??_Movimiento^0,c
  2256  000E88  0ED8               	movlw	216
  2257  000E8A                     u1337:
  2258  000E8A  2EE8               	decfsz	wreg,f,c
  2259  000E8C  D7FE               	bra	u1337
  2260  000E8E  2E0A               	decfsz	??_Movimiento^0,f,c
  2261  000E90  D7FC               	bra	u1337
  2262  000E92  2E0B               	decfsz	(??_Movimiento+1)^0,f,c
  2263  000E94  D7FA               	bra	u1337
  2264  000E96                     
  2265                           ;Movimiento.c: 21:         PORTDbits.RD7=0;
  2266  000E96  9E83               	bcf	131,7,c	;volatile
  2267  000E98                     
  2268                           ;Movimiento.c: 22:         char loquequieras[5]="click";
  2269  000E98  EE20  F044         	lfsr	2,Movimiento@F3430
  2270  000E9C  EE10  F00C         	lfsr	1,Movimiento@loquequieras
  2271  000EA0  0E04               	movlw	4
  2272  000EA2                     u1201:
  2273  000EA2  CFDB FFE3          	movff	plusw2,plusw1
  2274  000EA6  06E8               	decf	wreg,f,c
  2275  000EA8  E2FC               	bc	u1201
  2276  000EAA                     
  2277                           ;Movimiento.c: 23:        for(int i=0;i<5;i++){
  2278  000EAA  0E00               	movlw	0
  2279  000EAC  6E17               	movwf	(Movimiento@i+1)^0,c
  2280  000EAE  0E00               	movlw	0
  2281  000EB0  6E16               	movwf	Movimiento@i^0,c
  2282  000EB2                     l2475:
  2283                           
  2284                           ;Movimiento.c: 24:        UARTWrite(loquequieras[i]);
  2285  000EB2  0E0C               	movlw	low Movimiento@loquequieras
  2286  000EB4  2416               	addwf	Movimiento@i^0,w,c
  2287  000EB6  6ED9               	movwf	fsr2l,c
  2288  000EB8  0E00               	movlw	high Movimiento@loquequieras
  2289  000EBA  2017               	addwfc	(Movimiento@i+1)^0,w,c
  2290  000EBC  6EDA               	movwf	fsr2h,c
  2291  000EBE  50DF               	movf	indf2,w,c
  2292  000EC0  EC37  F00B         	call	_UARTWrite
  2293  000EC4                     
  2294                           ;Movimiento.c: 25:        }
  2295  000EC4  4A16               	infsnz	Movimiento@i^0,f,c
  2296  000EC6  2A17               	incf	(Movimiento@i+1)^0,f,c
  2297  000EC8  BE17               	btfsc	(Movimiento@i+1)^0,7,c
  2298  000ECA  EF70  F007         	goto	u1211
  2299  000ECE  5017               	movf	(Movimiento@i+1)^0,w,c
  2300  000ED0  E109               	bnz	u1210
  2301  000ED2  0E05               	movlw	5
  2302  000ED4  5C16               	subwf	Movimiento@i^0,w,c
  2303  000ED6  A0D8               	btfss	status,0,c
  2304  000ED8  EF70  F007         	goto	u1211
  2305  000EDC  EF72  F007         	goto	u1210
  2306  000EE0                     u1211:
  2307  000EE0  EF59  F007         	goto	l2475
  2308  000EE4                     u1210:
  2309  000EE4  EFA6  F007         	goto	l2503
  2310  000EE8                     l2481:
  2311  000EE8  5032               	movf	_click^0,w,c
  2312  000EEA  A4D8               	btfss	status,2,c
  2313  000EEC  EF7A  F007         	goto	u1221
  2314  000EF0  EF7C  F007         	goto	u1220
  2315  000EF4                     u1221:
  2316  000EF4  EFA6  F007         	goto	l2503
  2317  000EF8                     u1220:
  2318  000EF8                     
  2319                           ;Movimiento.c: 29:         PORTDbits.RD7=1;
  2320  000EF8  8E83               	bsf	131,7,c	;volatile
  2321  000EFA                     
  2322                           ;Movimiento.c: 30:         PWM();
  2323  000EFA  EC26  F005         	call	_PWM	;wreg free
  2324  000EFE                     
  2325                           ;Movimiento.c: 31:         PORTDbits.RD7=0;
  2326  000EFE  9E83               	bcf	131,7,c	;volatile
  2327  000F00                     
  2328                           ;Movimiento.c: 32:         char loquequieras2[5]="slide";
  2329  000F00  EE20  F03F         	lfsr	2,Movimiento@F3433
  2330  000F04  EE10  F011         	lfsr	1,Movimiento@loquequieras2
  2331  000F08  0E04               	movlw	4
  2332  000F0A                     u1231:
  2333  000F0A  CFDB FFE3          	movff	plusw2,plusw1
  2334  000F0E  06E8               	decf	wreg,f,c
  2335  000F10  E2FC               	bc	u1231
  2336  000F12                     
  2337                           ;Movimiento.c: 33:        for(int i=0;i<5;i++){
  2338  000F12  0E00               	movlw	0
  2339  000F14  6E19               	movwf	(Movimiento@i_1065+1)^0,c
  2340  000F16  0E00               	movlw	0
  2341  000F18  6E18               	movwf	Movimiento@i_1065^0,c
  2342  000F1A                     l2497:
  2343                           
  2344                           ;Movimiento.c: 34:        UARTWrite(loquequieras2[i]);
  2345  000F1A  0E11               	movlw	low Movimiento@loquequieras2
  2346  000F1C  2418               	addwf	Movimiento@i_1065^0,w,c
  2347  000F1E  6ED9               	movwf	fsr2l,c
  2348  000F20  0E00               	movlw	high Movimiento@loquequieras2
  2349  000F22  2019               	addwfc	(Movimiento@i_1065+1)^0,w,c
  2350  000F24  6EDA               	movwf	fsr2h,c
  2351  000F26  50DF               	movf	indf2,w,c
  2352  000F28  EC37  F00B         	call	_UARTWrite
  2353  000F2C                     
  2354                           ;Movimiento.c: 35:        }
  2355  000F2C  4A18               	infsnz	Movimiento@i_1065^0,f,c
  2356  000F2E  2A19               	incf	(Movimiento@i_1065+1)^0,f,c
  2357  000F30  BE19               	btfsc	(Movimiento@i_1065+1)^0,7,c
  2358  000F32  EFA4  F007         	goto	u1241
  2359  000F36  5019               	movf	(Movimiento@i_1065+1)^0,w,c
  2360  000F38  E109               	bnz	u1240
  2361  000F3A  0E05               	movlw	5
  2362  000F3C  5C18               	subwf	Movimiento@i_1065^0,w,c
  2363  000F3E  A0D8               	btfss	status,0,c
  2364  000F40  EFA4  F007         	goto	u1241
  2365  000F44  EFA6  F007         	goto	u1240
  2366  000F48                     u1241:
  2367  000F48  EF8D  F007         	goto	l2497
  2368  000F4C                     u1240:
  2369  000F4C                     l2503:
  2370                           
  2371                           ;Movimiento.c: 38:     ControlFlagVerification = 1;
  2372  000F4C  0E00               	movlw	0
  2373  000F4E  6E4E               	movwf	(_ControlFlagVerification+1)^0,c
  2374  000F50  0E01               	movlw	1
  2375  000F52  6E4D               	movwf	_ControlFlagVerification^0,c
  2376  000F54  0012               	return		;funcret
  2377  000F56                     __end_of_Movimiento:
  2378                           	opt callstack 0
  2379                           
  2380 ;; *************** function _UARTWrite *****************
  2381 ;; Defined at:
  2382 ;;		line 34 in file "UART.c"
  2383 ;; Parameters:    Size  Location     Type
  2384 ;;  data            1    wreg     unsigned char 
  2385 ;; Auto vars:     Size  Location     Type
  2386 ;;  data            1    3[COMRAM] unsigned char 
  2387 ;; Return value:  Size  Location     Type
  2388 ;;                  1    wreg      void 
  2389 ;; Registers used:
  2390 ;;		wreg
  2391 ;; Tracked objects:
  2392 ;;		On entry : 0/0
  2393 ;;		On exit  : 0/0
  2394 ;;		Unchanged: 0/0
  2395 ;; Data sizes:     COMRAM   BANK0   BANK1   BANK2   BANK3   BANK4   BANK5   BANK6   BANK7
  2396 ;;      Params:         0       0       0       0       0       0       0       0       0
  2397 ;;      Locals:         1       0       0       0       0       0       0       0       0
  2398 ;;      Temps:          0       0       0       0       0       0       0       0       0
  2399 ;;      Totals:         1       0       0       0       0       0       0       0       0
  2400 ;;Total ram usage:        1 bytes
  2401 ;; Hardware stack levels used:    1
  2402 ;; Hardware stack levels required when called:    4
  2403 ;; This function calls:
  2404 ;;		Nothing
  2405 ;; This function is called by:
  2406 ;;		_start
  2407 ;;		_cmd
  2408 ;;		_Par_Validated
  2409 ;;		_Ins_Validated
  2410 ;;		_Coord_Validated
  2411 ;;		_end
  2412 ;;		_PrintMyActulPosition
  2413 ;;		_myPrintf
  2414 ;;		_Movimiento
  2415 ;; This function uses a non-reentrant model
  2416 ;;
  2417                           
  2418                           	psect	text15
  2419  00166E                     __ptext15:
  2420                           	opt callstack 0
  2421  00166E                     _UARTWrite:
  2422                           	opt callstack 23
  2423                           
  2424                           ;incstack = 0
  2425                           ;UARTWrite@data stored from wreg
  2426  00166E  6E04               	movwf	UARTWrite@data^0,c
  2427  001670                     l130:
  2428  001670  A89E               	btfss	158,4,c	;volatile
  2429  001672  EF3D  F00B         	goto	u731
  2430  001676  EF3F  F00B         	goto	u730
  2431  00167A                     u731:
  2432  00167A  EF38  F00B         	goto	l130
  2433  00167E                     u730:
  2434  00167E                     
  2435                           ;UART.c: 36:     TXREG= data;
  2436  00167E  C004  FFAD         	movff	UARTWrite@data,4013	;volatile
  2437  001682  0012               	return		;funcret
  2438  001684                     __end_of_UARTWrite:
  2439                           	opt callstack 0
  2440                           
  2441 ;; *************** function _PWM *****************
  2442 ;; Defined at:
  2443 ;;		line 23 in file "PWM.c"
  2444 ;; Parameters:    Size  Location     Type
  2445 ;;		None
  2446 ;; Auto vars:     Size  Location     Type
  2447 ;;		None
  2448 ;; Return value:  Size  Location     Type
  2449 ;;                  1    wreg      void 
  2450 ;; Registers used:
  2451 ;;		wreg, status,2, status,0, prodl, prodh, cstack
  2452 ;; Tracked objects:
  2453 ;;		On entry : 0/0
  2454 ;;		On exit  : 0/0
  2455 ;;		Unchanged: 0/0
  2456 ;; Data sizes:     COMRAM   BANK0   BANK1   BANK2   BANK3   BANK4   BANK5   BANK6   BANK7
  2457 ;;      Params:         0       0       0       0       0       0       0       0       0
  2458 ;;      Locals:         0       0       0       0       0       0       0       0       0
  2459 ;;      Temps:          0       0       0       0       0       0       0       0       0
  2460 ;;      Totals:         0       0       0       0       0       0       0       0       0
  2461 ;;Total ram usage:        0 bytes
  2462 ;; Hardware stack levels used:    1
  2463 ;; Hardware stack levels required when called:    6
  2464 ;; This function calls:
  2465 ;;		_ContarPulsos
  2466 ;;		___wmul
  2467 ;; This function is called by:
  2468 ;;		_Movimiento
  2469 ;; This function uses a non-reentrant model
  2470 ;;
  2471                           
  2472                           	psect	text16
  2473  000A4C                     __ptext16:
  2474                           	opt callstack 0
  2475  000A4C                     _PWM:
  2476                           	opt callstack 23
  2477  000A4C                     
  2478                           ;PWM.c: 25:     BanderaDisX= 1;
  2479  000A4C  0E00               	movlw	0
  2480  000A4E  6E27               	movwf	(_BanderaDisX+1)^0,c
  2481  000A50  0E01               	movlw	1
  2482  000A52  6E26               	movwf	_BanderaDisX^0,c
  2483                           
  2484                           ;PWM.c: 26:     BanderaDisY= 1;
  2485  000A54  0E00               	movlw	0
  2486  000A56  6E25               	movwf	(_BanderaDisY+1)^0,c
  2487  000A58  0E01               	movlw	1
  2488  000A5A  6E24               	movwf	_BanderaDisY^0,c
  2489  000A5C                     
  2490                           ;PWM.c: 31:     if (CoordAntX==0) CoordRelatX=cord_x;
  2491  000A5C  504B               	movf	_CoordAntX^0,w,c
  2492  000A5E  104C               	iorwf	(_CoordAntX+1)^0,w,c
  2493  000A60  A4D8               	btfss	status,2,c
  2494  000A62  EF35  F005         	goto	u991
  2495  000A66  EF37  F005         	goto	u990
  2496  000A6A                     u991:
  2497  000A6A  EF3D  F005         	goto	l2253
  2498  000A6E                     u990:
  2499  000A6E  C03A  F036         	movff	_cord_x,_CoordRelatX
  2500  000A72  C03B  F037         	movff	_cord_x+1,_CoordRelatX+1
  2501  000A76  EF43  F005         	goto	l347
  2502  000A7A                     l2253:
  2503  000A7A  504B               	movf	_CoordAntX^0,w,c
  2504  000A7C  5C3A               	subwf	_cord_x^0,w,c
  2505  000A7E  6E36               	movwf	_CoordRelatX^0,c
  2506  000A80  504C               	movf	(_CoordAntX+1)^0,w,c
  2507  000A82  583B               	subwfb	(_cord_x+1)^0,w,c
  2508  000A84  6E37               	movwf	(_CoordRelatX+1)^0,c
  2509  000A86                     l347:
  2510                           
  2511                           ;PWM.c: 35:     if (CoordRelatX<0){
  2512  000A86  BE37               	btfsc	(_CoordRelatX+1)^0,7,c
  2513  000A88  EF4A  F005         	goto	u1000
  2514  000A8C  EF48  F005         	goto	u1001
  2515  000A90                     u1001:
  2516  000A90  EF56  F005         	goto	l348
  2517  000A94                     u1000:
  2518  000A94                     
  2519                           ;PWM.c: 36:         PORTDbits.RD0= 1;
  2520  000A94  8083               	bsf	131,0,c	;volatile
  2521                           
  2522                           ;PWM.c: 37:         PORTDbits.RD1= 1;
  2523  000A96  8283               	bsf	131,1,c	;volatile
  2524  000A98                     
  2525                           ;PWM.c: 38:         CoordRelatX=CoordRelatX*(-1);
  2526  000A98  6C36               	negf	_CoordRelatX^0,c
  2527  000A9A  1E37               	comf	(_CoordRelatX+1)^0,f,c
  2528  000A9C  B0D8               	btfsc	status,0,c
  2529  000A9E  2A37               	incf	(_CoordRelatX+1)^0,f,c
  2530  000AA0                     
  2531                           ;PWM.c: 39:         BanderaDisX= 0;
  2532  000AA0  0E00               	movlw	0
  2533  000AA2  6E27               	movwf	(_BanderaDisX+1)^0,c
  2534  000AA4  0E00               	movlw	0
  2535  000AA6  6E26               	movwf	_BanderaDisX^0,c
  2536                           
  2537                           ;PWM.c: 40:     }
  2538  000AA8  EF5C  F005         	goto	l2263
  2539  000AAC                     l348:
  2540                           
  2541                           ;PWM.c: 42:             PORTDbits.RD0= 0;
  2542  000AAC  9083               	bcf	131,0,c	;volatile
  2543                           
  2544                           ;PWM.c: 43:             PORTDbits.RD1= 0;
  2545  000AAE  9283               	bcf	131,1,c	;volatile
  2546  000AB0                     
  2547                           ;PWM.c: 44:             BanderaDisX= 1;
  2548  000AB0  0E00               	movlw	0
  2549  000AB2  6E27               	movwf	(_BanderaDisX+1)^0,c
  2550  000AB4  0E01               	movlw	1
  2551  000AB6  6E26               	movwf	_BanderaDisX^0,c
  2552  000AB8                     l2263:
  2553                           
  2554                           ;PWM.c: 47:     PasosX=CoordRelatX*5;
  2555  000AB8  C036  F004         	movff	_CoordRelatX,___wmul@multiplier
  2556  000ABC  C037  F005         	movff	_CoordRelatX+1,___wmul@multiplier+1
  2557  000AC0  0E00               	movlw	0
  2558  000AC2  6E07               	movwf	(___wmul@multiplicand+1)^0,c
  2559  000AC4  0E05               	movlw	5
  2560  000AC6  6E06               	movwf	___wmul@multiplicand^0,c
  2561  000AC8  ECDD  F00A         	call	___wmul	;wreg free
  2562  000ACC  C004  F02A         	movff	?___wmul,_PasosX
  2563  000AD0  C005  F02B         	movff	?___wmul+1,_PasosX+1
  2564  000AD4                     
  2565                           ;PWM.c: 48:     ContarPulsos(PasosX);
  2566  000AD4  C02A  F004         	movff	_PasosX,ContarPulsos@pasos
  2567  000AD8  C02B  F005         	movff	_PasosX+1,ContarPulsos@pasos+1
  2568  000ADC  EC82  F009         	call	_ContarPulsos	;wreg free
  2569  000AE0                     
  2570                           ;PWM.c: 51:     if(BanderaDisX== 0) CoordAntX= CoordAntX-CoordRelatX;
  2571  000AE0  5026               	movf	_BanderaDisX^0,w,c
  2572  000AE2  1027               	iorwf	(_BanderaDisX+1)^0,w,c
  2573  000AE4  A4D8               	btfss	status,2,c
  2574  000AE6  EF77  F005         	goto	u1011
  2575  000AEA  EF79  F005         	goto	u1010
  2576  000AEE                     u1011:
  2577  000AEE  EF81  F005         	goto	l2271
  2578  000AF2                     u1010:
  2579  000AF2  5036               	movf	_CoordRelatX^0,w,c
  2580  000AF4  5C4B               	subwf	_CoordAntX^0,w,c
  2581  000AF6  6E4B               	movwf	_CoordAntX^0,c
  2582  000AF8  5037               	movf	(_CoordRelatX+1)^0,w,c
  2583  000AFA  584C               	subwfb	(_CoordAntX+1)^0,w,c
  2584  000AFC  6E4C               	movwf	(_CoordAntX+1)^0,c
  2585  000AFE  EF90  F005         	goto	l351
  2586  000B02                     l2271:
  2587                           
  2588                           ;PWM.c: 53:         if (BanderaDisX== 1) CoordAntX=CoordAntX+CoordRelatX;
  2589  000B02  0426               	decf	_BanderaDisX^0,w,c
  2590  000B04  1027               	iorwf	(_BanderaDisX+1)^0,w,c
  2591  000B06  A4D8               	btfss	status,2,c
  2592  000B08  EF88  F005         	goto	u1021
  2593  000B0C  EF8A  F005         	goto	u1020
  2594  000B10                     u1021:
  2595  000B10  EF90  F005         	goto	l351
  2596  000B14                     u1020:
  2597  000B14  504B               	movf	_CoordAntX^0,w,c
  2598  000B16  2436               	addwf	_CoordRelatX^0,w,c
  2599  000B18  6E4B               	movwf	_CoordAntX^0,c
  2600  000B1A  504C               	movf	(_CoordAntX+1)^0,w,c
  2601  000B1C  2037               	addwfc	(_CoordRelatX+1)^0,w,c
  2602  000B1E  6E4C               	movwf	(_CoordAntX+1)^0,c
  2603  000B20                     l351:
  2604                           
  2605                           ;PWM.c: 60:     if (CoordAntY==0) CoordRelatY=cord_y;
  2606  000B20  5049               	movf	_CoordAntY^0,w,c
  2607  000B22  104A               	iorwf	(_CoordAntY+1)^0,w,c
  2608  000B24  A4D8               	btfss	status,2,c
  2609  000B26  EF97  F005         	goto	u1031
  2610  000B2A  EF99  F005         	goto	u1030
  2611  000B2E                     u1031:
  2612  000B2E  EF9F  F005         	goto	l2277
  2613  000B32                     u1030:
  2614  000B32  C038  F034         	movff	_cord_y,_CoordRelatY
  2615  000B36  C039  F035         	movff	_cord_y+1,_CoordRelatY+1
  2616  000B3A  EFA5  F005         	goto	l354
  2617  000B3E                     l2277:
  2618  000B3E  5049               	movf	_CoordAntY^0,w,c
  2619  000B40  5C38               	subwf	_cord_y^0,w,c
  2620  000B42  6E34               	movwf	_CoordRelatY^0,c
  2621  000B44  504A               	movf	(_CoordAntY+1)^0,w,c
  2622  000B46  5839               	subwfb	(_cord_y+1)^0,w,c
  2623  000B48  6E35               	movwf	(_CoordRelatY+1)^0,c
  2624  000B4A                     l354:
  2625                           
  2626                           ;PWM.c: 63:     if (CoordRelatY<0){
  2627  000B4A  BE35               	btfsc	(_CoordRelatY+1)^0,7,c
  2628  000B4C  EFAC  F005         	goto	u1040
  2629  000B50  EFAA  F005         	goto	u1041
  2630  000B54                     u1041:
  2631  000B54  EFB8  F005         	goto	l355
  2632  000B58                     u1040:
  2633  000B58                     
  2634                           ;PWM.c: 64:         PORTDbits.RD0= 0;
  2635  000B58  9083               	bcf	131,0,c	;volatile
  2636                           
  2637                           ;PWM.c: 65:         PORTDbits.RD1= 1;
  2638  000B5A  8283               	bsf	131,1,c	;volatile
  2639  000B5C                     
  2640                           ;PWM.c: 66:         CoordRelatY=CoordRelatY*(-1);
  2641  000B5C  6C34               	negf	_CoordRelatY^0,c
  2642  000B5E  1E35               	comf	(_CoordRelatY+1)^0,f,c
  2643  000B60  B0D8               	btfsc	status,0,c
  2644  000B62  2A35               	incf	(_CoordRelatY+1)^0,f,c
  2645  000B64                     
  2646                           ;PWM.c: 67:         BanderaDisY= 0;
  2647  000B64  0E00               	movlw	0
  2648  000B66  6E25               	movwf	(_BanderaDisY+1)^0,c
  2649  000B68  0E00               	movlw	0
  2650  000B6A  6E24               	movwf	_BanderaDisY^0,c
  2651                           
  2652                           ;PWM.c: 68:     }
  2653  000B6C  EFBE  F005         	goto	l2287
  2654  000B70                     l355:
  2655                           
  2656                           ;PWM.c: 70:         PORTDbits.RD0= 1;
  2657  000B70  8083               	bsf	131,0,c	;volatile
  2658                           
  2659                           ;PWM.c: 71:         PORTDbits.RD1= 0;
  2660  000B72  9283               	bcf	131,1,c	;volatile
  2661  000B74                     
  2662                           ;PWM.c: 72:          BanderaDisY= 1;
  2663  000B74  0E00               	movlw	0
  2664  000B76  6E25               	movwf	(_BanderaDisY+1)^0,c
  2665  000B78  0E01               	movlw	1
  2666  000B7A  6E24               	movwf	_BanderaDisY^0,c
  2667  000B7C                     l2287:
  2668                           
  2669                           ;PWM.c: 75:     PasosY=CoordRelatY*5;
  2670  000B7C  C034  F004         	movff	_CoordRelatY,___wmul@multiplier
  2671  000B80  C035  F005         	movff	_CoordRelatY+1,___wmul@multiplier+1
  2672  000B84  0E00               	movlw	0
  2673  000B86  6E07               	movwf	(___wmul@multiplicand+1)^0,c
  2674  000B88  0E05               	movlw	5
  2675  000B8A  6E06               	movwf	___wmul@multiplicand^0,c
  2676  000B8C  ECDD  F00A         	call	___wmul	;wreg free
  2677  000B90  C004  F028         	movff	?___wmul,_PasosY
  2678  000B94  C005  F029         	movff	?___wmul+1,_PasosY+1
  2679  000B98                     
  2680                           ;PWM.c: 76:     ContarPulsos(PasosY);
  2681  000B98  C028  F004         	movff	_PasosY,ContarPulsos@pasos
  2682  000B9C  C029  F005         	movff	_PasosY+1,ContarPulsos@pasos+1
  2683  000BA0  EC82  F009         	call	_ContarPulsos	;wreg free
  2684  000BA4                     
  2685                           ;PWM.c: 79:     if(BanderaDisY== 0) CoordAntY= CoordAntY-CoordRelatY;
  2686  000BA4  5024               	movf	_BanderaDisY^0,w,c
  2687  000BA6  1025               	iorwf	(_BanderaDisY+1)^0,w,c
  2688  000BA8  A4D8               	btfss	status,2,c
  2689  000BAA  EFD9  F005         	goto	u1051
  2690  000BAE  EFDB  F005         	goto	u1050
  2691  000BB2                     u1051:
  2692  000BB2  EFE3  F005         	goto	l2295
  2693  000BB6                     u1050:
  2694  000BB6  5034               	movf	_CoordRelatY^0,w,c
  2695  000BB8  5C49               	subwf	_CoordAntY^0,w,c
  2696  000BBA  6E49               	movwf	_CoordAntY^0,c
  2697  000BBC  5035               	movf	(_CoordRelatY+1)^0,w,c
  2698  000BBE  584A               	subwfb	(_CoordAntY+1)^0,w,c
  2699  000BC0  6E4A               	movwf	(_CoordAntY+1)^0,c
  2700  000BC2  EFF2  F005         	goto	l360
  2701  000BC6                     l2295:
  2702                           
  2703                           ;PWM.c: 81:         if (BanderaDisY== 1) CoordAntY=CoordAntY+CoordRelatY;
  2704  000BC6  0424               	decf	_BanderaDisY^0,w,c
  2705  000BC8  1025               	iorwf	(_BanderaDisY+1)^0,w,c
  2706  000BCA  A4D8               	btfss	status,2,c
  2707  000BCC  EFEA  F005         	goto	u1061
  2708  000BD0  EFEC  F005         	goto	u1060
  2709  000BD4                     u1061:
  2710  000BD4  EFF2  F005         	goto	l360
  2711  000BD8                     u1060:
  2712  000BD8  5049               	movf	_CoordAntY^0,w,c
  2713  000BDA  2434               	addwf	_CoordRelatY^0,w,c
  2714  000BDC  6E49               	movwf	_CoordAntY^0,c
  2715  000BDE  504A               	movf	(_CoordAntY+1)^0,w,c
  2716  000BE0  2035               	addwfc	(_CoordRelatY+1)^0,w,c
  2717  000BE2  6E4A               	movwf	(_CoordAntY+1)^0,c
  2718  000BE4                     l360:
  2719  000BE4  0012               	return		;funcret
  2720  000BE6                     __end_of_PWM:
  2721                           	opt callstack 0
  2722                           
  2723 ;; *************** function ___wmul *****************
  2724 ;; Defined at:
  2725 ;;		line 15 in file "C:\Program Files (x86)\Microchip\xc8\v2.10\pic\sources\c99\common\Umul16.c"
  2726 ;; Parameters:    Size  Location     Type
  2727 ;;  multiplier      2    3[COMRAM] unsigned int 
  2728 ;;  multiplicand    2    5[COMRAM] unsigned int 
  2729 ;; Auto vars:     Size  Location     Type
  2730 ;;  product         2    7[COMRAM] unsigned int 
  2731 ;; Return value:  Size  Location     Type
  2732 ;;                  2    3[COMRAM] unsigned int 
  2733 ;; Registers used:
  2734 ;;		wreg, status,2, status,0, prodl, prodh
  2735 ;; Tracked objects:
  2736 ;;		On entry : 0/0
  2737 ;;		On exit  : 0/0
  2738 ;;		Unchanged: 0/0
  2739 ;; Data sizes:     COMRAM   BANK0   BANK1   BANK2   BANK3   BANK4   BANK5   BANK6   BANK7
  2740 ;;      Params:         4       0       0       0       0       0       0       0       0
  2741 ;;      Locals:         2       0       0       0       0       0       0       0       0
  2742 ;;      Temps:          0       0       0       0       0       0       0       0       0
  2743 ;;      Totals:         6       0       0       0       0       0       0       0       0
  2744 ;;Total ram usage:        6 bytes
  2745 ;; Hardware stack levels used:    1
  2746 ;; Hardware stack levels required when called:    4
  2747 ;; This function calls:
  2748 ;;		Nothing
  2749 ;; This function is called by:
  2750 ;;		_PWM
  2751 ;; This function uses a non-reentrant model
  2752 ;;
  2753                           
  2754                           	psect	text17
  2755  0015BA                     __ptext17:
  2756                           	opt callstack 0
  2757  0015BA                     ___wmul:
  2758                           	opt callstack 24
  2759  0015BA  5004               	movf	___wmul@multiplier^0,w,c
  2760  0015BC  0206               	mulwf	___wmul@multiplicand^0,c
  2761  0015BE  CFF3 F008          	movff	prodl,___wmul@product
  2762  0015C2  CFF4 F009          	movff	prodh,___wmul@product+1
  2763  0015C6  5004               	movf	___wmul@multiplier^0,w,c
  2764  0015C8  0207               	mulwf	(___wmul@multiplicand+1)^0,c
  2765  0015CA  50F3               	movf	243,w,c
  2766  0015CC  2609               	addwf	(___wmul@product+1)^0,f,c
  2767  0015CE  5005               	movf	(___wmul@multiplier+1)^0,w,c
  2768  0015D0  0206               	mulwf	___wmul@multiplicand^0,c
  2769  0015D2  50F3               	movf	243,w,c
  2770  0015D4  2609               	addwf	(___wmul@product+1)^0,f,c
  2771  0015D6  C008  F004         	movff	___wmul@product,?___wmul
  2772  0015DA  C009  F005         	movff	___wmul@product+1,?___wmul+1
  2773  0015DE  0012               	return		;funcret
  2774  0015E0                     __end_of___wmul:
  2775                           	opt callstack 0
  2776                           
  2777 ;; *************** function _ContarPulsos *****************
  2778 ;; Defined at:
  2779 ;;		line 86 in file "PWM.c"
  2780 ;; Parameters:    Size  Location     Type
  2781 ;;  pasos           2    3[COMRAM] int 
  2782 ;; Auto vars:     Size  Location     Type
  2783 ;;		None
  2784 ;; Return value:  Size  Location     Type
  2785 ;;                  1    wreg      void 
  2786 ;; Registers used:
  2787 ;;		wreg, status,2, status,0, cstack
  2788 ;; Tracked objects:
  2789 ;;		On entry : 0/0
  2790 ;;		On exit  : 0/0
  2791 ;;		Unchanged: 0/0
  2792 ;; Data sizes:     COMRAM   BANK0   BANK1   BANK2   BANK3   BANK4   BANK5   BANK6   BANK7
  2793 ;;      Params:         2       0       0       0       0       0       0       0       0
  2794 ;;      Locals:         0       0       0       0       0       0       0       0       0
  2795 ;;      Temps:          0       0       0       0       0       0       0       0       0
  2796 ;;      Totals:         2       0       0       0       0       0       0       0       0
  2797 ;;Total ram usage:        2 bytes
  2798 ;; Hardware stack levels used:    1
  2799 ;; Hardware stack levels required when called:    5
  2800 ;; This function calls:
  2801 ;;		_OneShot
  2802 ;;		_ResetOneShot
  2803 ;; This function is called by:
  2804 ;;		_PWM
  2805 ;; This function uses a non-reentrant model
  2806 ;;
  2807                           
  2808                           	psect	text18
  2809  001304                     __ptext18:
  2810                           	opt callstack 0
  2811  001304                     _ContarPulsos:
  2812                           	opt callstack 23
  2813  001304                     
  2814                           ;PWM.c: 87:     PasosActuales=0;
  2815  001304  0E00               	movlw	0
  2816  001306  6E2F               	movwf	(_PasosActuales+1)^0,c
  2817  001308  0E00               	movlw	0
  2818  00130A  6E2E               	movwf	_PasosActuales^0,c
  2819                           
  2820                           ;PWM.c: 88:     ons=0;
  2821  00130C  0E00               	movlw	0
  2822  00130E  6E2D               	movwf	(_ons+1)^0,c
  2823  001310  0E00               	movlw	0
  2824  001312  6E2C               	movwf	_ons^0,c
  2825  001314                     
  2826                           ;PWM.c: 89:     PORTDbits.RD2= 0;
  2827  001314  9483               	bcf	131,2,c	;volatile
  2828  001316                     
  2829                           ;PWM.c: 90:     PORTDbits.RD3= 0;
  2830  001316  9683               	bcf	131,3,c	;volatile
  2831                           
  2832                           ;PWM.c: 91:     while(PasosActuales< pasos)
  2833  001318  EFA2  F009         	goto	l2075
  2834  00131C                     l364:
  2835                           
  2836                           ;PWM.c: 92:     {;PWM.c: 93:         if (PORTCbits.CCP1==1) OneShot();
  2837  00131C  A482               	btfss	130,2,c	;volatile
  2838  00131E  EF93  F009         	goto	u831
  2839  001322  EF95  F009         	goto	u830
  2840  001326                     u831:
  2841  001326  EF97  F009         	goto	l2071
  2842  00132A                     u830:
  2843  00132A  EC81  F00A         	call	_OneShot	;wreg free
  2844  00132E                     l2071:
  2845                           
  2846                           ;PWM.c: 94:         if(ons==1) ResetOneShot();
  2847  00132E  042C               	decf	_ons^0,w,c
  2848  001330  102D               	iorwf	(_ons+1)^0,w,c
  2849  001332  A4D8               	btfss	status,2,c
  2850  001334  EF9E  F009         	goto	u841
  2851  001338  EFA0  F009         	goto	u840
  2852  00133C                     u841:
  2853  00133C  EFA2  F009         	goto	l2075
  2854  001340                     u840:
  2855  001340  ECB3  F00A         	call	_ResetOneShot	;wreg free
  2856  001344                     l2075:
  2857                           
  2858                           ;PWM.c: 91:     while(PasosActuales< pasos)
  2859  001344  5004               	movf	ContarPulsos@pasos^0,w,c
  2860  001346  5C2E               	subwf	_PasosActuales^0,w,c
  2861  001348  5005               	movf	(ContarPulsos@pasos+1)^0,w,c
  2862  00134A  582F               	subwfb	(_PasosActuales+1)^0,w,c
  2863  00134C  A0D8               	btfss	status,0,c
  2864  00134E  EFAB  F009         	goto	u851
  2865  001352  EFAD  F009         	goto	u850
  2866  001356                     u851:
  2867  001356  EF8E  F009         	goto	l364
  2868  00135A                     u850:
  2869  00135A                     
  2870                           ;PWM.c: 97:     PORTDbits.RD2= 1;
  2871  00135A  8483               	bsf	131,2,c	;volatile
  2872                           
  2873                           ;PWM.c: 98:     PORTDbits.RD3= 1;
  2874  00135C  8683               	bsf	131,3,c	;volatile
  2875  00135E  0012               	return		;funcret
  2876  001360                     __end_of_ContarPulsos:
  2877                           	opt callstack 0
  2878                           
  2879 ;; *************** function _ResetOneShot *****************
  2880 ;; Defined at:
  2881 ;;		line 111 in file "PWM.c"
  2882 ;; Parameters:    Size  Location     Type
  2883 ;;		None
  2884 ;; Auto vars:     Size  Location     Type
  2885 ;;		None
  2886 ;; Return value:  Size  Location     Type
  2887 ;;                  1    wreg      void 
  2888 ;; Registers used:
  2889 ;;		wreg, status,2
  2890 ;; Tracked objects:
  2891 ;;		On entry : 0/0
  2892 ;;		On exit  : 0/0
  2893 ;;		Unchanged: 0/0
  2894 ;; Data sizes:     COMRAM   BANK0   BANK1   BANK2   BANK3   BANK4   BANK5   BANK6   BANK7
  2895 ;;      Params:         0       0       0       0       0       0       0       0       0
  2896 ;;      Locals:         0       0       0       0       0       0       0       0       0
  2897 ;;      Temps:          0       0       0       0       0       0       0       0       0
  2898 ;;      Totals:         0       0       0       0       0       0       0       0       0
  2899 ;;Total ram usage:        0 bytes
  2900 ;; Hardware stack levels used:    1
  2901 ;; Hardware stack levels required when called:    4
  2902 ;; This function calls:
  2903 ;;		Nothing
  2904 ;; This function is called by:
  2905 ;;		_ContarPulsos
  2906 ;; This function uses a non-reentrant model
  2907 ;;
  2908                           
  2909                           	psect	text19
  2910  001566                     __ptext19:
  2911                           	opt callstack 0
  2912  001566                     _ResetOneShot:
  2913                           	opt callstack 23
  2914  001566                     
  2915                           ;PWM.c: 112:     if(PORTCbits.CCP1==1)return;
  2916  001566  A482               	btfss	130,2,c	;volatile
  2917  001568  EFB8  F00A         	goto	u51
  2918  00156C  EFBA  F00A         	goto	u50
  2919  001570                     u51:
  2920  001570  EFBC  F00A         	goto	l376
  2921  001574                     u50:
  2922  001574  EFC7  F00A         	goto	l377
  2923  001578                     l376:
  2924                           
  2925                           ;PWM.c: 113:     if(PORTCbits.CCP1==0)ons=0;
  2926  001578  B482               	btfsc	130,2,c	;volatile
  2927  00157A  EFC1  F00A         	goto	u61
  2928  00157E  EFC3  F00A         	goto	u60
  2929  001582                     u61:
  2930  001582  EFC7  F00A         	goto	l377
  2931  001586                     u60:
  2932  001586  0E00               	movlw	0
  2933  001588  6E2D               	movwf	(_ons+1)^0,c
  2934  00158A  0E00               	movlw	0
  2935  00158C  6E2C               	movwf	_ons^0,c
  2936  00158E                     l377:
  2937  00158E  0012               	return		;funcret
  2938  001590                     __end_of_ResetOneShot:
  2939                           	opt callstack 0
  2940                           
  2941 ;; *************** function _OneShot *****************
  2942 ;; Defined at:
  2943 ;;		line 102 in file "PWM.c"
  2944 ;; Parameters:    Size  Location     Type
  2945 ;;		None
  2946 ;; Auto vars:     Size  Location     Type
  2947 ;;		None
  2948 ;; Return value:  Size  Location     Type
  2949 ;;                  1    wreg      void 
  2950 ;; Registers used:
  2951 ;;		wreg, status,2, status,0
  2952 ;; Tracked objects:
  2953 ;;		On entry : 0/0
  2954 ;;		On exit  : 0/0
  2955 ;;		Unchanged: 0/0
  2956 ;; Data sizes:     COMRAM   BANK0   BANK1   BANK2   BANK3   BANK4   BANK5   BANK6   BANK7
  2957 ;;      Params:         0       0       0       0       0       0       0       0       0
  2958 ;;      Locals:         0       0       0       0       0       0       0       0       0
  2959 ;;      Temps:          0       0       0       0       0       0       0       0       0
  2960 ;;      Totals:         0       0       0       0       0       0       0       0       0
  2961 ;;Total ram usage:        0 bytes
  2962 ;; Hardware stack levels used:    1
  2963 ;; Hardware stack levels required when called:    4
  2964 ;; This function calls:
  2965 ;;		Nothing
  2966 ;; This function is called by:
  2967 ;;		_ContarPulsos
  2968 ;; This function uses a non-reentrant model
  2969 ;;
  2970                           
  2971                           	psect	text20
  2972  001502                     __ptext20:
  2973                           	opt callstack 0
  2974  001502                     _OneShot:
  2975                           	opt callstack 23
  2976  001502                     
  2977                           ;PWM.c: 103:     if(ons==1) return;
  2978  001502  042C               	decf	_ons^0,w,c
  2979  001504  102D               	iorwf	(_ons+1)^0,w,c
  2980  001506  A4D8               	btfss	status,2,c
  2981  001508  EF88  F00A         	goto	u31
  2982  00150C  EF8A  F00A         	goto	u30
  2983  001510                     u31:
  2984  001510  EF8C  F00A         	goto	l371
  2985  001514                     u30:
  2986  001514  EF99  F00A         	goto	l372
  2987  001518                     l371:
  2988                           
  2989                           ;PWM.c: 104:     if(PORTCbits.CCP1==1)
  2990  001518  A482               	btfss	130,2,c	;volatile
  2991  00151A  EF91  F00A         	goto	u41
  2992  00151E  EF93  F00A         	goto	u40
  2993  001522                     u41:
  2994  001522  EF99  F00A         	goto	l372
  2995  001526                     u40:
  2996  001526                     
  2997                           ;PWM.c: 105:     {;PWM.c: 106:         PasosActuales++;
  2998  001526  4A2E               	infsnz	_PasosActuales^0,f,c
  2999  001528  2A2F               	incf	(_PasosActuales+1)^0,f,c
  3000  00152A                     
  3001                           ;PWM.c: 107:         ons=1;
  3002  00152A  0E00               	movlw	0
  3003  00152C  6E2D               	movwf	(_ons+1)^0,c
  3004  00152E  0E01               	movlw	1
  3005  001530  6E2C               	movwf	_ons^0,c
  3006  001532                     l372:
  3007  001532  0012               	return		;funcret
  3008  001534                     __end_of_OneShot:
  3009                           	opt callstack 0
  3010                           
  3011 ;; *************** function _Configuracion *****************
  3012 ;; Defined at:
  3013 ;;		line 15 in file "CONFIGUR.c"
  3014 ;; Parameters:    Size  Location     Type
  3015 ;;		None
  3016 ;; Auto vars:     Size  Location     Type
  3017 ;;		None
  3018 ;; Return value:  Size  Location     Type
  3019 ;;                  1    wreg      void 
  3020 ;; Registers used:
  3021 ;;		wreg, status,2, status,0, cstack
  3022 ;; Tracked objects:
  3023 ;;		On entry : 0/0
  3024 ;;		On exit  : 0/0
  3025 ;;		Unchanged: 0/0
  3026 ;; Data sizes:     COMRAM   BANK0   BANK1   BANK2   BANK3   BANK4   BANK5   BANK6   BANK7
  3027 ;;      Params:         0       0       0       0       0       0       0       0       0
  3028 ;;      Locals:         0       0       0       0       0       0       0       0       0
  3029 ;;      Temps:          0       0       0       0       0       0       0       0       0
  3030 ;;      Totals:         0       0       0       0       0       0       0       0       0
  3031 ;;Total ram usage:        0 bytes
  3032 ;; Hardware stack levels used:    1
  3033 ;; Hardware stack levels required when called:    6
  3034 ;; This function calls:
  3035 ;;		_UARTConfi
  3036 ;; This function is called by:
  3037 ;;		_main
  3038 ;; This function uses a non-reentrant model
  3039 ;;
  3040                           
  3041                           	psect	text21
  3042  0012A6                     __ptext21:
  3043                           	opt callstack 0
  3044  0012A6                     _Configuracion:
  3045                           	opt callstack 24
  3046  0012A6                     
  3047                           ;CONFIGUR.c: 20:    OSCCON=0x72;
  3048  0012A6  0E72               	movlw	114
  3049  0012A8  6ED3               	movwf	211,c	;volatile
  3050  0012AA                     
  3051                           ;CONFIGUR.c: 24:    CMCON = 0xFF;
  3052  0012AA  68B4               	setf	180,c	;volatile
  3053  0012AC                     
  3054                           ;CONFIGUR.c: 25:    CVRCONbits.CVREN = 0;
  3055  0012AC  9EB5               	bcf	181,7,c	;volatile
  3056                           
  3057                           ;CONFIGUR.c: 26:    ADCON1 = 0x0F;
  3058  0012AE  0E0F               	movlw	15
  3059  0012B0  6EC1               	movwf	193,c	;volatile
  3060                           
  3061                           ;CONFIGUR.c: 30:    PORTD = 0x00;
  3062  0012B2  0E00               	movlw	0
  3063  0012B4  6E83               	movwf	131,c	;volatile
  3064                           
  3065                           ;CONFIGUR.c: 31:    LATD = 0x00;
  3066  0012B6  0E00               	movlw	0
  3067  0012B8  6E8C               	movwf	140,c	;volatile
  3068                           
  3069                           ;CONFIGUR.c: 32:    TRISD = 0x00;
  3070  0012BA  0E00               	movlw	0
  3071  0012BC  6E95               	movwf	149,c	;volatile
  3072                           
  3073                           ;CONFIGUR.c: 34:    PORTC = 0x00;
  3074  0012BE  0E00               	movlw	0
  3075  0012C0  6E82               	movwf	130,c	;volatile
  3076                           
  3077                           ;CONFIGUR.c: 35:    LATC= 0x00;
  3078  0012C2  0E00               	movlw	0
  3079  0012C4  6E8B               	movwf	139,c	;volatile
  3080                           
  3081                           ;CONFIGUR.c: 36:    TRISC= 0x00;
  3082  0012C6  0E00               	movlw	0
  3083  0012C8  6E94               	movwf	148,c	;volatile
  3084                           
  3085                           ;CONFIGUR.c: 38:    PORTB = 0x00;
  3086  0012CA  0E00               	movlw	0
  3087  0012CC  6E81               	movwf	129,c	;volatile
  3088                           
  3089                           ;CONFIGUR.c: 39:    LATB= 0x00;
  3090  0012CE  0E00               	movlw	0
  3091  0012D0  6E8A               	movwf	138,c	;volatile
  3092  0012D2                     
  3093                           ;CONFIGUR.c: 40:    TRISB= 0xFF;
  3094  0012D2  6893               	setf	147,c	;volatile
  3095  0012D4                     
  3096                           ;CONFIGUR.c: 44:    UARTConfi(9600);
  3097  0012D4  0E25               	movlw	37
  3098  0012D6  6E13               	movwf	(UARTConfi@BAUD+1)^0,c
  3099  0012D8  0E80               	movlw	128
  3100  0012DA  6E12               	movwf	UARTConfi@BAUD^0,c
  3101  0012DC  EC82  F008         	call	_UARTConfi	;wreg free
  3102  0012E0                     
  3103                           ;CONFIGUR.c: 45:     TRISC=0X00;
  3104  0012E0  0E00               	movlw	0
  3105  0012E2  6E94               	movwf	148,c	;volatile
  3106  0012E4                     
  3107                           ;CONFIGUR.c: 49:      PR2 = 0xF9;
  3108  0012E4  0EF9               	movlw	249
  3109  0012E6  6ECB               	movwf	203,c	;volatile
  3110  0012E8                     
  3111                           ;CONFIGUR.c: 52:     CCP1CON = 0x0C;
  3112  0012E8  0E0C               	movlw	12
  3113  0012EA  6EBD               	movwf	189,c	;volatile
  3114  0012EC                     
  3115                           ;CONFIGUR.c: 53:     CCPR1L = 0x7D;
  3116  0012EC  0E7D               	movlw	125
  3117  0012EE  6EBE               	movwf	190,c	;volatile
  3118  0012F0                     
  3119                           ;CONFIGUR.c: 56:     CCP2CON = 0x0C;
  3120  0012F0  0E0C               	movlw	12
  3121  0012F2  6EBA               	movwf	186,c	;volatile
  3122  0012F4                     
  3123                           ;CONFIGUR.c: 57:     CCPR2L = 0x7D;
  3124  0012F4  0E7D               	movlw	125
  3125  0012F6  6EBB               	movwf	187,c	;volatile
  3126  0012F8                     
  3127                           ;CONFIGUR.c: 60:     T2CON = 0x03;
  3128  0012F8  0E03               	movlw	3
  3129  0012FA  6ECA               	movwf	202,c	;volatile
  3130  0012FC                     
  3131                           ;CONFIGUR.c: 61:     TMR2 = 0;
  3132  0012FC  0E00               	movlw	0
  3133  0012FE  6ECC               	movwf	204,c	;volatile
  3134  001300                     
  3135                           ;CONFIGUR.c: 62:     TMR2ON = 1;
  3136  001300  84CA               	bsf	4042,2,c	;volatile
  3137  001302  0012               	return		;funcret
  3138  001304                     __end_of_Configuracion:
  3139                           	opt callstack 0
  3140                           
  3141 ;; *************** function _UARTConfi *****************
  3142 ;; Defined at:
  3143 ;;		line 15 in file "UART.c"
  3144 ;; Parameters:    Size  Location     Type
  3145 ;;  BAUD            2   17[COMRAM] int 
  3146 ;; Auto vars:     Size  Location     Type
  3147 ;;		None
  3148 ;; Return value:  Size  Location     Type
  3149 ;;                  1    wreg      void 
  3150 ;; Registers used:
  3151 ;;		wreg, status,2, status,0, cstack
  3152 ;; Tracked objects:
  3153 ;;		On entry : 0/0
  3154 ;;		On exit  : 0/0
  3155 ;;		Unchanged: 0/0
  3156 ;; Data sizes:     COMRAM   BANK0   BANK1   BANK2   BANK3   BANK4   BANK5   BANK6   BANK7
  3157 ;;      Params:         2       0       0       0       0       0       0       0       0
  3158 ;;      Locals:         4       0       0       0       0       0       0       0       0
  3159 ;;      Temps:          0       0       0       0       0       0       0       0       0
  3160 ;;      Totals:         6       0       0       0       0       0       0       0       0
  3161 ;;Total ram usage:        6 bytes
  3162 ;; Hardware stack levels used:    1
  3163 ;; Hardware stack levels required when called:    5
  3164 ;; This function calls:
  3165 ;;		___aldiv
  3166 ;; This function is called by:
  3167 ;;		_Configuracion
  3168 ;; This function uses a non-reentrant model
  3169 ;;
  3170                           
  3171                           	psect	text22
  3172  001104                     __ptext22:
  3173                           	opt callstack 0
  3174  001104                     _UARTConfi:
  3175                           	opt callstack 24
  3176  001104                     
  3177                           ;UART.c: 17:     TRISCbits.RC6=0;
  3178  001104  9C94               	bcf	148,6,c	;volatile
  3179                           
  3180                           ;UART.c: 18:     TRISCbits.RC7=1;
  3181  001106  8E94               	bsf	148,7,c	;volatile
  3182  001108                     
  3183                           ;UART.c: 20:     SPBRG = (unsigned char)((8000000L/BAUD)/64)-1;
  3184  001108  C012  F008         	movff	UARTConfi@BAUD,___aldiv@divisor
  3185  00110C  C013  F009         	movff	UARTConfi@BAUD+1,___aldiv@divisor+1
  3186  001110  0E00               	movlw	0
  3187  001112  BE09               	btfsc	(___aldiv@divisor+1)^0,7,c
  3188  001114  0EFF               	movlw	-1
  3189  001116  6E0A               	movwf	(___aldiv@divisor+2)^0,c
  3190  001118  6E0B               	movwf	(___aldiv@divisor+3)^0,c
  3191  00111A  0E00               	movlw	0
  3192  00111C  6E04               	movwf	___aldiv@dividend^0,c
  3193  00111E  0E12               	movlw	18
  3194  001120  6E05               	movwf	(___aldiv@dividend+1)^0,c
  3195  001122  0E7A               	movlw	122
  3196  001124  6E06               	movwf	(___aldiv@dividend+2)^0,c
  3197  001126  0E00               	movlw	0
  3198  001128  6E07               	movwf	(___aldiv@dividend+3)^0,c
  3199  00112A  ECAF  F006         	call	___aldiv	;wreg free
  3200  00112E  C004  F014         	movff	?___aldiv,_UARTConfi$2012
  3201  001132  C005  F015         	movff	?___aldiv+1,_UARTConfi$2012+1
  3202  001136  C006  F016         	movff	?___aldiv+2,_UARTConfi$2012+2
  3203  00113A  C007  F017         	movff	?___aldiv+3,_UARTConfi$2012+3
  3204                           
  3205                           ;UART.c: 20:     SPBRG = (unsigned char)((8000000L/BAUD)/64)-1;
  3206  00113E  C014  F004         	movff	_UARTConfi$2012,___aldiv@dividend
  3207  001142  C015  F005         	movff	_UARTConfi$2012+1,___aldiv@dividend+1
  3208  001146  C016  F006         	movff	_UARTConfi$2012+2,___aldiv@dividend+2
  3209  00114A  C017  F007         	movff	_UARTConfi$2012+3,___aldiv@dividend+3
  3210  00114E  0E40               	movlw	64
  3211  001150  6E08               	movwf	___aldiv@divisor^0,c
  3212  001152  0E00               	movlw	0
  3213  001154  6E09               	movwf	(___aldiv@divisor+1)^0,c
  3214  001156  0E00               	movlw	0
  3215  001158  6E0A               	movwf	(___aldiv@divisor+2)^0,c
  3216  00115A  0E00               	movlw	0
  3217  00115C  6E0B               	movwf	(___aldiv@divisor+3)^0,c
  3218  00115E  ECAF  F006         	call	___aldiv	;wreg free
  3219  001162  0404               	decf	?___aldiv^0,w,c
  3220  001164  6EAF               	movwf	175,c	;volatile
  3221  001166                     
  3222                           ;UART.c: 21:     TXSTAbits.BRGH = 0;
  3223  001166  94AC               	bcf	172,2,c	;volatile
  3224  001168                     
  3225                           ;UART.c: 22:     TXSTAbits.SYNC = 0;
  3226  001168  98AC               	bcf	172,4,c	;volatile
  3227  00116A                     
  3228                           ;UART.c: 23:     RCSTAbits.SPEN = 1;
  3229  00116A  8EAB               	bsf	171,7,c	;volatile
  3230  00116C                     
  3231                           ;UART.c: 26:     TXSTAbits.TX9 = 0;
  3232  00116C  9CAC               	bcf	172,6,c	;volatile
  3233  00116E                     
  3234                           ;UART.c: 27:     TXSTAbits.TXEN = 1;
  3235  00116E  8AAC               	bsf	172,5,c	;volatile
  3236  001170                     
  3237                           ;UART.c: 30:     RCSTAbits.RC9 = 0;
  3238  001170  9CAB               	bcf	171,6,c	;volatile
  3239  001172                     
  3240                           ;UART.c: 31:     RCSTAbits.CREN = 1;
  3241  001172  88AB               	bsf	171,4,c	;volatile
  3242  001174  0012               	return		;funcret
  3243  001176                     __end_of_UARTConfi:
  3244                           	opt callstack 0
  3245                           
  3246 ;; *************** function ___aldiv *****************
  3247 ;; Defined at:
  3248 ;;		line 7 in file "C:\Program Files (x86)\Microchip\xc8\v2.10\pic\sources\c99\common\aldiv.c"
  3249 ;; Parameters:    Size  Location     Type
  3250 ;;  dividend        4    3[COMRAM] long 
  3251 ;;  divisor         4    7[COMRAM] long 
  3252 ;; Auto vars:     Size  Location     Type
  3253 ;;  quotient        4   13[COMRAM] long 
  3254 ;;  sign            1   12[COMRAM] unsigned char 
  3255 ;;  counter         1   11[COMRAM] unsigned char 
  3256 ;; Return value:  Size  Location     Type
  3257 ;;                  4    3[COMRAM] long 
  3258 ;; Registers used:
  3259 ;;		wreg, status,2, status,0
  3260 ;; Tracked objects:
  3261 ;;		On entry : 0/0
  3262 ;;		On exit  : 0/0
  3263 ;;		Unchanged: 0/0
  3264 ;; Data sizes:     COMRAM   BANK0   BANK1   BANK2   BANK3   BANK4   BANK5   BANK6   BANK7
  3265 ;;      Params:         8       0       0       0       0       0       0       0       0
  3266 ;;      Locals:         6       0       0       0       0       0       0       0       0
  3267 ;;      Temps:          0       0       0       0       0       0       0       0       0
  3268 ;;      Totals:        14       0       0       0       0       0       0       0       0
  3269 ;;Total ram usage:       14 bytes
  3270 ;; Hardware stack levels used:    1
  3271 ;; Hardware stack levels required when called:    4
  3272 ;; This function calls:
  3273 ;;		Nothing
  3274 ;; This function is called by:
  3275 ;;		_UARTConfi
  3276 ;; This function uses a non-reentrant model
  3277 ;;
  3278                           
  3279                           	psect	text23
  3280  000D5E                     __ptext23:
  3281                           	opt callstack 0
  3282  000D5E                     ___aldiv:
  3283                           	opt callstack 24
  3284  000D5E  0E00               	movlw	0
  3285  000D60  6E0D               	movwf	___aldiv@sign^0,c
  3286  000D62  BE0B               	btfsc	(___aldiv@divisor+3)^0,7,c
  3287  000D64  EFB8  F006         	goto	u860
  3288  000D68  EFB6  F006         	goto	u861
  3289  000D6C                     u861:
  3290  000D6C  EFC2  F006         	goto	l2091
  3291  000D70                     u860:
  3292  000D70  1E0B               	comf	(___aldiv@divisor+3)^0,f,c
  3293  000D72  1E0A               	comf	(___aldiv@divisor+2)^0,f,c
  3294  000D74  1E09               	comf	(___aldiv@divisor+1)^0,f,c
  3295  000D76  6C08               	negf	___aldiv@divisor^0,c
  3296  000D78  0E00               	movlw	0
  3297  000D7A  2209               	addwfc	(___aldiv@divisor+1)^0,f,c
  3298  000D7C  220A               	addwfc	(___aldiv@divisor+2)^0,f,c
  3299  000D7E  220B               	addwfc	(___aldiv@divisor+3)^0,f,c
  3300  000D80  0E01               	movlw	1
  3301  000D82  6E0D               	movwf	___aldiv@sign^0,c
  3302  000D84                     l2091:
  3303  000D84  BE07               	btfsc	(___aldiv@dividend+3)^0,7,c
  3304  000D86  EFC9  F006         	goto	u870
  3305  000D8A  EFC7  F006         	goto	u871
  3306  000D8E                     u871:
  3307  000D8E  EFD3  F006         	goto	l2097
  3308  000D92                     u870:
  3309  000D92  1E07               	comf	(___aldiv@dividend+3)^0,f,c
  3310  000D94  1E06               	comf	(___aldiv@dividend+2)^0,f,c
  3311  000D96  1E05               	comf	(___aldiv@dividend+1)^0,f,c
  3312  000D98  6C04               	negf	___aldiv@dividend^0,c
  3313  000D9A  0E00               	movlw	0
  3314  000D9C  2205               	addwfc	(___aldiv@dividend+1)^0,f,c
  3315  000D9E  2206               	addwfc	(___aldiv@dividend+2)^0,f,c
  3316  000DA0  2207               	addwfc	(___aldiv@dividend+3)^0,f,c
  3317  000DA2  0E01               	movlw	1
  3318  000DA4  1A0D               	xorwf	___aldiv@sign^0,f,c
  3319  000DA6                     l2097:
  3320  000DA6  0E00               	movlw	0
  3321  000DA8  6E0E               	movwf	___aldiv@quotient^0,c
  3322  000DAA  0E00               	movlw	0
  3323  000DAC  6E0F               	movwf	(___aldiv@quotient+1)^0,c
  3324  000DAE  0E00               	movlw	0
  3325  000DB0  6E10               	movwf	(___aldiv@quotient+2)^0,c
  3326  000DB2  0E00               	movlw	0
  3327  000DB4  6E11               	movwf	(___aldiv@quotient+3)^0,c
  3328  000DB6  5008               	movf	___aldiv@divisor^0,w,c
  3329  000DB8  1009               	iorwf	(___aldiv@divisor+1)^0,w,c
  3330  000DBA  100A               	iorwf	(___aldiv@divisor+2)^0,w,c
  3331  000DBC  100B               	iorwf	(___aldiv@divisor+3)^0,w,c
  3332  000DBE  B4D8               	btfsc	status,2,c
  3333  000DC0  EFE4  F006         	goto	u881
  3334  000DC4  EFE6  F006         	goto	u880
  3335  000DC8                     u881:
  3336  000DC8  EF1C  F007         	goto	l2119
  3337  000DCC                     u880:
  3338  000DCC  0E01               	movlw	1
  3339  000DCE  6E0C               	movwf	___aldiv@counter^0,c
  3340  000DD0  EFF0  F006         	goto	l2105
  3341  000DD4                     l2103:
  3342  000DD4  90D8               	bcf	status,0,c
  3343  000DD6  3608               	rlcf	___aldiv@divisor^0,f,c
  3344  000DD8  3609               	rlcf	(___aldiv@divisor+1)^0,f,c
  3345  000DDA  360A               	rlcf	(___aldiv@divisor+2)^0,f,c
  3346  000DDC  360B               	rlcf	(___aldiv@divisor+3)^0,f,c
  3347  000DDE  2A0C               	incf	___aldiv@counter^0,f,c
  3348  000DE0                     l2105:
  3349  000DE0  AE0B               	btfss	(___aldiv@divisor+3)^0,7,c
  3350  000DE2  EFF5  F006         	goto	u891
  3351  000DE6  EFF7  F006         	goto	u890
  3352  000DEA                     u891:
  3353  000DEA  EFEA  F006         	goto	l2103
  3354  000DEE                     u890:
  3355  000DEE                     l2107:
  3356  000DEE  90D8               	bcf	status,0,c
  3357  000DF0  360E               	rlcf	___aldiv@quotient^0,f,c
  3358  000DF2  360F               	rlcf	(___aldiv@quotient+1)^0,f,c
  3359  000DF4  3610               	rlcf	(___aldiv@quotient+2)^0,f,c
  3360  000DF6  3611               	rlcf	(___aldiv@quotient+3)^0,f,c
  3361  000DF8  5008               	movf	___aldiv@divisor^0,w,c
  3362  000DFA  5C04               	subwf	___aldiv@dividend^0,w,c
  3363  000DFC  5009               	movf	(___aldiv@divisor+1)^0,w,c
  3364  000DFE  5805               	subwfb	(___aldiv@dividend+1)^0,w,c
  3365  000E00  500A               	movf	(___aldiv@divisor+2)^0,w,c
  3366  000E02  5806               	subwfb	(___aldiv@dividend+2)^0,w,c
  3367  000E04  500B               	movf	(___aldiv@divisor+3)^0,w,c
  3368  000E06  5807               	subwfb	(___aldiv@dividend+3)^0,w,c
  3369  000E08  A0D8               	btfss	status,0,c
  3370  000E0A  EF09  F007         	goto	u901
  3371  000E0E  EF0B  F007         	goto	u900
  3372  000E12                     u901:
  3373  000E12  EF14  F007         	goto	l2115
  3374  000E16                     u900:
  3375  000E16  5008               	movf	___aldiv@divisor^0,w,c
  3376  000E18  5E04               	subwf	___aldiv@dividend^0,f,c
  3377  000E1A  5009               	movf	(___aldiv@divisor+1)^0,w,c
  3378  000E1C  5A05               	subwfb	(___aldiv@dividend+1)^0,f,c
  3379  000E1E  500A               	movf	(___aldiv@divisor+2)^0,w,c
  3380  000E20  5A06               	subwfb	(___aldiv@dividend+2)^0,f,c
  3381  000E22  500B               	movf	(___aldiv@divisor+3)^0,w,c
  3382  000E24  5A07               	subwfb	(___aldiv@dividend+3)^0,f,c
  3383  000E26  800E               	bsf	___aldiv@quotient^0,0,c
  3384  000E28                     l2115:
  3385  000E28  90D8               	bcf	status,0,c
  3386  000E2A  320B               	rrcf	(___aldiv@divisor+3)^0,f,c
  3387  000E2C  320A               	rrcf	(___aldiv@divisor+2)^0,f,c
  3388  000E2E  3209               	rrcf	(___aldiv@divisor+1)^0,f,c
  3389  000E30  3208               	rrcf	___aldiv@divisor^0,f,c
  3390  000E32  2E0C               	decfsz	___aldiv@counter^0,f,c
  3391  000E34  EFF7  F006         	goto	l2107
  3392  000E38                     l2119:
  3393  000E38  500D               	movf	___aldiv@sign^0,w,c
  3394  000E3A  B4D8               	btfsc	status,2,c
  3395  000E3C  EF22  F007         	goto	u911
  3396  000E40  EF24  F007         	goto	u910
  3397  000E44                     u911:
  3398  000E44  EF2C  F007         	goto	l2123
  3399  000E48                     u910:
  3400  000E48  1E11               	comf	(___aldiv@quotient+3)^0,f,c
  3401  000E4A  1E10               	comf	(___aldiv@quotient+2)^0,f,c
  3402  000E4C  1E0F               	comf	(___aldiv@quotient+1)^0,f,c
  3403  000E4E  6C0E               	negf	___aldiv@quotient^0,c
  3404  000E50  0E00               	movlw	0
  3405  000E52  220F               	addwfc	(___aldiv@quotient+1)^0,f,c
  3406  000E54  2210               	addwfc	(___aldiv@quotient+2)^0,f,c
  3407  000E56  2211               	addwfc	(___aldiv@quotient+3)^0,f,c
  3408  000E58                     l2123:
  3409  000E58  C00E  F004         	movff	___aldiv@quotient,?___aldiv
  3410  000E5C  C00F  F005         	movff	___aldiv@quotient+1,?___aldiv+1
  3411  000E60  C010  F006         	movff	___aldiv@quotient+2,?___aldiv+2
  3412  000E64  C011  F007         	movff	___aldiv@quotient+3,?___aldiv+3
  3413  000E68  0012               	return		;funcret
  3414  000E6A                     __end_of___aldiv:
  3415                           	opt callstack 0
  3416                           
  3417 ;; *************** function _INT_ISR *****************
  3418 ;; Defined at:
  3419 ;;		line 14 in file "main.c"
  3420 ;; Parameters:    Size  Location     Type
  3421 ;;		None
  3422 ;; Auto vars:     Size  Location     Type
  3423 ;;		None
  3424 ;; Return value:  Size  Location     Type
  3425 ;;                  1    wreg      void 
  3426 ;; Registers used:
  3427 ;;		wreg, status,2, status,0, cstack
  3428 ;; Tracked objects:
  3429 ;;		On entry : 0/0
  3430 ;;		On exit  : 0/0
  3431 ;;		Unchanged: 0/0
  3432 ;; Data sizes:     COMRAM   BANK0   BANK1   BANK2   BANK3   BANK4   BANK5   BANK6   BANK7
  3433 ;;      Params:         0       0       0       0       0       0       0       0       0
  3434 ;;      Locals:         0       0       0       0       0       0       0       0       0
  3435 ;;      Temps:          1       0       0       0       0       0       0       0       0
  3436 ;;      Totals:         1       0       0       0       0       0       0       0       0
  3437 ;;Total ram usage:        1 bytes
  3438 ;; Hardware stack levels used:    1
  3439 ;; Hardware stack levels required when called:    3
  3440 ;; This function calls:
  3441 ;;		_GoToInitialXPosition
  3442 ;;		_GoToInitialYPosition
  3443 ;;		i2_UARTWrite
  3444 ;; This function is called by:
  3445 ;;		Interrupt level 2
  3446 ;; This function uses a non-reentrant model
  3447 ;;
  3448                           
  3449                           	psect	intcode
  3450  000008                     __pintcode:
  3451                           	opt callstack 0
  3452  000008                     _INT_ISR:
  3453                           	opt callstack 23
  3454                           
  3455                           ;incstack = 0
  3456  000008  824F               	bsf	int$flags,1,c	;set compiler interrupt flag (level 2)
  3457  00000A  EDFF  F007         	call	int_func,f	;refresh shadow registers
  3458                           
  3459                           	psect	intcode_body
  3460  000FFE                     __pintcode_body:
  3461                           	opt callstack 23
  3462  000FFE                     int_func:
  3463                           	opt callstack 23
  3464  000FFE  0006               	pop		; remove dummy address from shadow register refresh
  3465  001000                     
  3466                           ;main.c: 16:     if(INTCONbits.INT0IF == 1)
  3467  001000  A2F2               	btfss	242,1,c	;volatile
  3468  001002  EF05  F008         	goto	i2u126_41
  3469  001006  EF07  F008         	goto	i2u126_40
  3470  00100A                     i2u126_41:
  3471  00100A  EF23  F008         	goto	i2l267
  3472  00100E                     i2u126_40:
  3473  00100E                     
  3474                           ;main.c: 17:     {;main.c: 18:         UARTWrite(0x45);
  3475  00100E  0E45               	movlw	69
  3476  001010  EC42  F00B         	call	i2_UARTWrite
  3477  001014                     
  3478                           ;main.c: 19:         GoToInitialXPosition();
  3479  001014  EC10  F00B         	call	_GoToInitialXPosition	;wreg free
  3480  001018                     
  3481                           ;main.c: 20:         if(PORTBbits.RB0 == 0)
  3482  001018  B081               	btfsc	129,0,c	;volatile
  3483  00101A  EF11  F008         	goto	i2u127_41
  3484  00101E  EF13  F008         	goto	i2u127_40
  3485  001022                     i2u127_41:
  3486  001022  EF23  F008         	goto	i2l267
  3487  001026                     i2u127_40:
  3488  001026                     
  3489                           ;main.c: 21:         {;main.c: 22:             _delay((unsigned long)((15)*(8000000L/400
      +                          0.0)));
  3490  001026  0E27               	movlw	39
  3491  001028  6E03               	movwf	??_INT_ISR^0,c
  3492  00102A  0EF5               	movlw	245
  3493  00102C                     i2u134_47:
  3494  00102C  2EE8               	decfsz	wreg,f,c
  3495  00102E  D7FE               	bra	i2u134_47
  3496  001030  2E03               	decfsz	??_INT_ISR^0,f,c
  3497  001032  D7FC               	bra	i2u134_47
  3498  001034  F000               	nop	
  3499  001036                     
  3500                           ;main.c: 23:             if(PORTBbits.RB0 == 0)
  3501  001036  B081               	btfsc	129,0,c	;volatile
  3502  001038  EF20  F008         	goto	i2u128_41
  3503  00103C  EF22  F008         	goto	i2u128_40
  3504  001040                     i2u128_41:
  3505  001040  EF23  F008         	goto	i2l267
  3506  001044                     i2u128_40:
  3507  001044                     
  3508                           ;main.c: 24:             {;main.c: 25:                 INTCONbits.INT0IF = 0;
  3509  001044  92F2               	bcf	242,1,c	;volatile
  3510  001046                     i2l267:
  3511                           
  3512                           ;main.c: 30:     if(INTCON3bits.INT1IF == 1)
  3513  001046  A0F0               	btfss	240,0,c	;volatile
  3514  001048  EF28  F008         	goto	i2u129_41
  3515  00104C  EF2A  F008         	goto	i2u129_40
  3516  001050                     i2u129_41:
  3517  001050  EF46  F008         	goto	i2l273
  3518  001054                     i2u129_40:
  3519  001054                     
  3520                           ;main.c: 31:     {;main.c: 32:         UARTWrite(0x65);
  3521  001054  0E65               	movlw	101
  3522  001056  EC42  F00B         	call	i2_UARTWrite
  3523  00105A                     
  3524                           ;main.c: 33:         GoToInitialYPosition();
  3525  00105A  EC01  F00B         	call	_GoToInitialYPosition	;wreg free
  3526  00105E                     
  3527                           ;main.c: 34:         if(PORTBbits.RB1 == 0)
  3528  00105E  B281               	btfsc	129,1,c	;volatile
  3529  001060  EF34  F008         	goto	i2u130_41
  3530  001064  EF36  F008         	goto	i2u130_40
  3531  001068                     i2u130_41:
  3532  001068  EF46  F008         	goto	i2l273
  3533  00106C                     i2u130_40:
  3534  00106C                     
  3535                           ;main.c: 35:         {;main.c: 36:             _delay((unsigned long)((15)*(8000000L/400
      +                          0.0)));
  3536  00106C  0E27               	movlw	39
  3537  00106E  6E03               	movwf	??_INT_ISR^0,c
  3538  001070  0EF5               	movlw	245
  3539  001072                     i2u135_47:
  3540  001072  2EE8               	decfsz	wreg,f,c
  3541  001074  D7FE               	bra	i2u135_47
  3542  001076  2E03               	decfsz	??_INT_ISR^0,f,c
  3543  001078  D7FC               	bra	i2u135_47
  3544  00107A  F000               	nop	
  3545  00107C                     
  3546                           ;main.c: 37:             if(PORTBbits.RB1 == 0)
  3547  00107C  B281               	btfsc	129,1,c	;volatile
  3548  00107E  EF43  F008         	goto	i2u131_41
  3549  001082  EF45  F008         	goto	i2u131_40
  3550  001086                     i2u131_41:
  3551  001086  EF46  F008         	goto	i2l273
  3552  00108A                     i2u131_40:
  3553  00108A                     
  3554                           ;main.c: 38:             {;main.c: 39:                 INTCON3bits.INT1IF = 0;
  3555  00108A  90F0               	bcf	240,0,c	;volatile
  3556  00108C                     i2l273:
  3557  00108C  924F               	bcf	int$flags,1,c	;clear compiler interrupt flag (level 2)
  3558  00108E  0011               	retfie		f
  3559  001090                     __end_of_INT_ISR:
  3560                           	opt callstack 0
  3561                           
  3562 ;; *************** function i2_UARTWrite *****************
  3563 ;; Defined at:
  3564 ;;		line 34 in file "UART.c"
  3565 ;; Parameters:    Size  Location     Type
  3566 ;;  data            1    wreg     unsigned char 
  3567 ;; Auto vars:     Size  Location     Type
  3568 ;;  data            1    0[COMRAM] unsigned char 
  3569 ;; Return value:  Size  Location     Type
  3570 ;;                  1    wreg      void 
  3571 ;; Registers used:
  3572 ;;		wreg
  3573 ;; Tracked objects:
  3574 ;;		On entry : 0/0
  3575 ;;		On exit  : 0/0
  3576 ;;		Unchanged: 0/0
  3577 ;; Data sizes:     COMRAM   BANK0   BANK1   BANK2   BANK3   BANK4   BANK5   BANK6   BANK7
  3578 ;;      Params:         0       0       0       0       0       0       0       0       0
  3579 ;;      Locals:         1       0       0       0       0       0       0       0       0
  3580 ;;      Temps:          0       0       0       0       0       0       0       0       0
  3581 ;;      Totals:         1       0       0       0       0       0       0       0       0
  3582 ;;Total ram usage:        1 bytes
  3583 ;; Hardware stack levels used:    1
  3584 ;; This function calls:
  3585 ;;		Nothing
  3586 ;; This function is called by:
  3587 ;;		_INT_ISR
  3588 ;; This function uses a non-reentrant model
  3589 ;;
  3590                           
  3591                           	psect	text25
  3592  001684                     __ptext25:
  3593                           	opt callstack 0
  3594  001684                     i2_UARTWrite:
  3595                           	opt callstack 25
  3596                           
  3597                           ;incstack = 0
  3598                           ;i2UARTWrite@data stored from wreg
  3599  001684  6E01               	movwf	i2UARTWrite@data^0,c
  3600  001686                     i2l130:
  3601  001686  A89E               	btfss	158,4,c	;volatile
  3602  001688  EF48  F00B         	goto	i2u125_41
  3603  00168C  EF4A  F00B         	goto	i2u125_40
  3604  001690                     i2u125_41:
  3605  001690  EF43  F00B         	goto	i2l130
  3606  001694                     i2u125_40:
  3607  001694                     
  3608                           ;UART.c: 36:     TXREG= data;
  3609  001694  C001  FFAD         	movff	i2UARTWrite@data,4013	;volatile
  3610  001698  0012               	return		;funcret
  3611  00169A                     __end_ofi2_UARTWrite:
  3612                           	opt callstack 0
  3613                           
  3614 ;; *************** function _GoToInitialYPosition *****************
  3615 ;; Defined at:
  3616 ;;		line 162 in file "PWM.c"
  3617 ;; Parameters:    Size  Location     Type
  3618 ;;		None
  3619 ;; Auto vars:     Size  Location     Type
  3620 ;;		None
  3621 ;; Return value:  Size  Location     Type
  3622 ;;                  1    wreg      void 
  3623 ;; Registers used:
  3624 ;;		wreg, status,2, status,0, cstack
  3625 ;; Tracked objects:
  3626 ;;		On entry : 0/0
  3627 ;;		On exit  : 0/0
  3628 ;;		Unchanged: 0/0
  3629 ;; Data sizes:     COMRAM   BANK0   BANK1   BANK2   BANK3   BANK4   BANK5   BANK6   BANK7
  3630 ;;      Params:         0       0       0       0       0       0       0       0       0
  3631 ;;      Locals:         0       0       0       0       0       0       0       0       0
  3632 ;;      Temps:          0       0       0       0       0       0       0       0       0
  3633 ;;      Totals:         0       0       0       0       0       0       0       0       0
  3634 ;;Total ram usage:        0 bytes
  3635 ;; Hardware stack levels used:    1
  3636 ;; Hardware stack levels required when called:    2
  3637 ;; This function calls:
  3638 ;;		i2_ContarPulsos
  3639 ;; This function is called by:
  3640 ;;		_INT_ISR
  3641 ;; This function uses a non-reentrant model
  3642 ;;
  3643                           
  3644                           	psect	text26
  3645  001602                     __ptext26:
  3646                           	opt callstack 0
  3647  001602                     _GoToInitialYPosition:
  3648                           	opt callstack 23
  3649  001602                     
  3650                           ;PWM.c: 164:     PORTDbits.RD0= 1;
  3651  001602  8083               	bsf	131,0,c	;volatile
  3652                           
  3653                           ;PWM.c: 165:     PORTDbits.RD1= 0;
  3654  001604  9283               	bcf	131,1,c	;volatile
  3655  001606                     
  3656                           ;PWM.c: 166:     ContarPulsos(25);
  3657  001606  0E00               	movlw	0
  3658  001608  6E02               	movwf	(i2ContarPulsos@pasos+1)^0,c
  3659  00160A  0E19               	movlw	25
  3660  00160C  6E01               	movwf	i2ContarPulsos@pasos^0,c
  3661  00160E  ECB0  F009         	call	i2_ContarPulsos	;wreg free
  3662  001612                     
  3663                           ;PWM.c: 167:     PORTDbits.RD2= 1;
  3664  001612  8483               	bsf	131,2,c	;volatile
  3665  001614                     
  3666                           ;PWM.c: 168:     PORTDbits.RD3= 1;
  3667  001614  8683               	bsf	131,3,c	;volatile
  3668  001616                     
  3669                           ;PWM.c: 169:     CoordAntY = 0;
  3670  001616  0E00               	movlw	0
  3671  001618  6E4A               	movwf	(_CoordAntY+1)^0,c
  3672  00161A  0E00               	movlw	0
  3673  00161C  6E49               	movwf	_CoordAntY^0,c
  3674  00161E  0012               	return		;funcret
  3675  001620                     __end_of_GoToInitialYPosition:
  3676                           	opt callstack 0
  3677                           
  3678 ;; *************** function _GoToInitialXPosition *****************
  3679 ;; Defined at:
  3680 ;;		line 152 in file "PWM.c"
  3681 ;; Parameters:    Size  Location     Type
  3682 ;;		None
  3683 ;; Auto vars:     Size  Location     Type
  3684 ;;		None
  3685 ;; Return value:  Size  Location     Type
  3686 ;;                  1    wreg      void 
  3687 ;; Registers used:
  3688 ;;		wreg, status,2, status,0, cstack
  3689 ;; Tracked objects:
  3690 ;;		On entry : 0/0
  3691 ;;		On exit  : 0/0
  3692 ;;		Unchanged: 0/0
  3693 ;; Data sizes:     COMRAM   BANK0   BANK1   BANK2   BANK3   BANK4   BANK5   BANK6   BANK7
  3694 ;;      Params:         0       0       0       0       0       0       0       0       0
  3695 ;;      Locals:         0       0       0       0       0       0       0       0       0
  3696 ;;      Temps:          0       0       0       0       0       0       0       0       0
  3697 ;;      Totals:         0       0       0       0       0       0       0       0       0
  3698 ;;Total ram usage:        0 bytes
  3699 ;; Hardware stack levels used:    1
  3700 ;; Hardware stack levels required when called:    2
  3701 ;; This function calls:
  3702 ;;		i2_ContarPulsos
  3703 ;; This function is called by:
  3704 ;;		_INT_ISR
  3705 ;; This function uses a non-reentrant model
  3706 ;;
  3707                           
  3708                           	psect	text27
  3709  001620                     __ptext27:
  3710                           	opt callstack 0
  3711  001620                     _GoToInitialXPosition:
  3712                           	opt callstack 23
  3713  001620                     
  3714                           ;PWM.c: 154:     PORTDbits.RD0= 0;
  3715  001620  9083               	bcf	131,0,c	;volatile
  3716                           
  3717                           ;PWM.c: 155:     PORTDbits.RD1= 0;
  3718  001622  9283               	bcf	131,1,c	;volatile
  3719  001624                     
  3720                           ;PWM.c: 156:     ContarPulsos(25);
  3721  001624  0E00               	movlw	0
  3722  001626  6E02               	movwf	(i2ContarPulsos@pasos+1)^0,c
  3723  001628  0E19               	movlw	25
  3724  00162A  6E01               	movwf	i2ContarPulsos@pasos^0,c
  3725  00162C  ECB0  F009         	call	i2_ContarPulsos	;wreg free
  3726  001630                     
  3727                           ;PWM.c: 157:     PORTDbits.RD2= 1;
  3728  001630  8483               	bsf	131,2,c	;volatile
  3729  001632                     
  3730                           ;PWM.c: 158:     PORTDbits.RD3= 1;
  3731  001632  8683               	bsf	131,3,c	;volatile
  3732  001634                     
  3733                           ;PWM.c: 159:     CoordAntX = 0;
  3734  001634  0E00               	movlw	0
  3735  001636  6E4C               	movwf	(_CoordAntX+1)^0,c
  3736  001638  0E00               	movlw	0
  3737  00163A  6E4B               	movwf	_CoordAntX^0,c
  3738  00163C  0012               	return		;funcret
  3739  00163E                     __end_of_GoToInitialXPosition:
  3740                           	opt callstack 0
  3741                           
  3742 ;; *************** function i2_ContarPulsos *****************
  3743 ;; Defined at:
  3744 ;;		line 86 in file "PWM.c"
  3745 ;; Parameters:    Size  Location     Type
  3746 ;;  pasos           2    0[COMRAM] int 
  3747 ;; Auto vars:     Size  Location     Type
  3748 ;;		None
  3749 ;; Return value:  Size  Location     Type
  3750 ;;                  1    wreg      void 
  3751 ;; Registers used:
  3752 ;;		wreg, status,2, status,0, cstack
  3753 ;; Tracked objects:
  3754 ;;		On entry : 0/0
  3755 ;;		On exit  : 0/0
  3756 ;;		Unchanged: 0/0
  3757 ;; Data sizes:     COMRAM   BANK0   BANK1   BANK2   BANK3   BANK4   BANK5   BANK6   BANK7
  3758 ;;      Params:         2       0       0       0       0       0       0       0       0
  3759 ;;      Locals:         0       0       0       0       0       0       0       0       0
  3760 ;;      Temps:          0       0       0       0       0       0       0       0       0
  3761 ;;      Totals:         2       0       0       0       0       0       0       0       0
  3762 ;;Total ram usage:        2 bytes
  3763 ;; Hardware stack levels used:    1
  3764 ;; Hardware stack levels required when called:    1
  3765 ;; This function calls:
  3766 ;;		i2_OneShot
  3767 ;;		i2_ResetOneShot
  3768 ;; This function is called by:
  3769 ;;		_GoToInitialXPosition
  3770 ;;		_GoToInitialYPosition
  3771 ;; This function uses a non-reentrant model
  3772 ;;
  3773                           
  3774                           	psect	text28
  3775  001360                     __ptext28:
  3776                           	opt callstack 0
  3777  001360                     i2_ContarPulsos:
  3778                           	opt callstack 23
  3779  001360                     
  3780                           ;PWM.c: 87:     PasosActuales=0;
  3781  001360  0E00               	movlw	0
  3782  001362  6E2F               	movwf	(_PasosActuales+1)^0,c
  3783  001364  0E00               	movlw	0
  3784  001366  6E2E               	movwf	_PasosActuales^0,c
  3785                           
  3786                           ;PWM.c: 88:     ons=0;
  3787  001368  0E00               	movlw	0
  3788  00136A  6E2D               	movwf	(_ons+1)^0,c
  3789  00136C  0E00               	movlw	0
  3790  00136E  6E2C               	movwf	_ons^0,c
  3791  001370                     
  3792                           ;PWM.c: 89:     PORTDbits.RD2= 0;
  3793  001370  9483               	bcf	131,2,c	;volatile
  3794  001372                     
  3795                           ;PWM.c: 90:     PORTDbits.RD3= 0;
  3796  001372  9683               	bcf	131,3,c	;volatile
  3797                           
  3798                           ;PWM.c: 91:     while(PasosActuales< pasos)
  3799  001374  EFD0  F009         	goto	i2l2351
  3800  001378                     i2l364:
  3801                           
  3802                           ;PWM.c: 92:     {;PWM.c: 93:         if (PORTCbits.CCP1==1) OneShot();
  3803  001378  A482               	btfss	130,2,c	;volatile
  3804  00137A  EFC1  F009         	goto	i2u113_41
  3805  00137E  EFC3  F009         	goto	i2u113_40
  3806  001382                     i2u113_41:
  3807  001382  EFC5  F009         	goto	i2l2347
  3808  001386                     i2u113_40:
  3809  001386  EC9A  F00A         	call	i2_OneShot	;wreg free
  3810  00138A                     i2l2347:
  3811                           
  3812                           ;PWM.c: 94:         if(ons==1) ResetOneShot();
  3813  00138A  042C               	decf	_ons^0,w,c
  3814  00138C  102D               	iorwf	(_ons+1)^0,w,c
  3815  00138E  A4D8               	btfss	status,2,c
  3816  001390  EFCC  F009         	goto	i2u114_41
  3817  001394  EFCE  F009         	goto	i2u114_40
  3818  001398                     i2u114_41:
  3819  001398  EFD0  F009         	goto	i2l2351
  3820  00139C                     i2u114_40:
  3821  00139C  ECC8  F00A         	call	i2_ResetOneShot	;wreg free
  3822  0013A0                     i2l2351:
  3823                           
  3824                           ;PWM.c: 91:     while(PasosActuales< pasos)
  3825  0013A0  5001               	movf	i2ContarPulsos@pasos^0,w,c
  3826  0013A2  5C2E               	subwf	_PasosActuales^0,w,c
  3827  0013A4  5002               	movf	(i2ContarPulsos@pasos+1)^0,w,c
  3828  0013A6  582F               	subwfb	(_PasosActuales+1)^0,w,c
  3829  0013A8  A0D8               	btfss	status,0,c
  3830  0013AA  EFD9  F009         	goto	i2u115_41
  3831  0013AE  EFDB  F009         	goto	i2u115_40
  3832  0013B2                     i2u115_41:
  3833  0013B2  EFBC  F009         	goto	i2l364
  3834  0013B6                     i2u115_40:
  3835  0013B6                     
  3836                           ;PWM.c: 97:     PORTDbits.RD2= 1;
  3837  0013B6  8483               	bsf	131,2,c	;volatile
  3838                           
  3839                           ;PWM.c: 98:     PORTDbits.RD3= 1;
  3840  0013B8  8683               	bsf	131,3,c	;volatile
  3841  0013BA  0012               	return		;funcret
  3842  0013BC                     __end_ofi2_ContarPulsos:
  3843                           	opt callstack 0
  3844                           
  3845 ;; *************** function i2_ResetOneShot *****************
  3846 ;; Defined at:
  3847 ;;		line 111 in file "PWM.c"
  3848 ;; Parameters:    Size  Location     Type
  3849 ;;		None
  3850 ;; Auto vars:     Size  Location     Type
  3851 ;;		None
  3852 ;; Return value:  Size  Location     Type
  3853 ;;                  1    wreg      void 
  3854 ;; Registers used:
  3855 ;;		wreg, status,2
  3856 ;; Tracked objects:
  3857 ;;		On entry : 0/0
  3858 ;;		On exit  : 0/0
  3859 ;;		Unchanged: 0/0
  3860 ;; Data sizes:     COMRAM   BANK0   BANK1   BANK2   BANK3   BANK4   BANK5   BANK6   BANK7
  3861 ;;      Params:         0       0       0       0       0       0       0       0       0
  3862 ;;      Locals:         0       0       0       0       0       0       0       0       0
  3863 ;;      Temps:          0       0       0       0       0       0       0       0       0
  3864 ;;      Totals:         0       0       0       0       0       0       0       0       0
  3865 ;;Total ram usage:        0 bytes
  3866 ;; Hardware stack levels used:    1
  3867 ;; This function calls:
  3868 ;;		Nothing
  3869 ;; This function is called by:
  3870 ;;		i2_ContarPulsos
  3871 ;; This function uses a non-reentrant model
  3872 ;;
  3873                           
  3874                           	psect	text29
  3875  001590                     __ptext29:
  3876                           	opt callstack 0
  3877  001590                     i2_ResetOneShot:
  3878                           	opt callstack 23
  3879  001590                     
  3880                           ;PWM.c: 112:     if(PORTCbits.CCP1==1)return;
  3881  001590  A482               	btfss	130,2,c	;volatile
  3882  001592  EFCD  F00A         	goto	i2u27_41
  3883  001596  EFCF  F00A         	goto	i2u27_40
  3884  00159A                     i2u27_41:
  3885  00159A  EFD1  F00A         	goto	i2l376
  3886  00159E                     i2u27_40:
  3887  00159E  EFDC  F00A         	goto	i2l377
  3888  0015A2                     i2l376:
  3889                           
  3890                           ;PWM.c: 113:     if(PORTCbits.CCP1==0)ons=0;
  3891  0015A2  B482               	btfsc	130,2,c	;volatile
  3892  0015A4  EFD6  F00A         	goto	i2u28_41
  3893  0015A8  EFD8  F00A         	goto	i2u28_40
  3894  0015AC                     i2u28_41:
  3895  0015AC  EFDC  F00A         	goto	i2l377
  3896  0015B0                     i2u28_40:
  3897  0015B0  0E00               	movlw	0
  3898  0015B2  6E2D               	movwf	(_ons+1)^0,c
  3899  0015B4  0E00               	movlw	0
  3900  0015B6  6E2C               	movwf	_ons^0,c
  3901  0015B8                     i2l377:
  3902  0015B8  0012               	return		;funcret
  3903  0015BA                     __end_ofi2_ResetOneShot:
  3904                           	opt callstack 0
  3905                           
  3906 ;; *************** function i2_OneShot *****************
  3907 ;; Defined at:
  3908 ;;		line 102 in file "PWM.c"
  3909 ;; Parameters:    Size  Location     Type
  3910 ;;		None
  3911 ;; Auto vars:     Size  Location     Type
  3912 ;;		None
  3913 ;; Return value:  Size  Location     Type
  3914 ;;                  1    wreg      void 
  3915 ;; Registers used:
  3916 ;;		wreg, status,2, status,0
  3917 ;; Tracked objects:
  3918 ;;		On entry : 0/0
  3919 ;;		On exit  : 0/0
  3920 ;;		Unchanged: 0/0
  3921 ;; Data sizes:     COMRAM   BANK0   BANK1   BANK2   BANK3   BANK4   BANK5   BANK6   BANK7
  3922 ;;      Params:         0       0       0       0       0       0       0       0       0
  3923 ;;      Locals:         0       0       0       0       0       0       0       0       0
  3924 ;;      Temps:          0       0       0       0       0       0       0       0       0
  3925 ;;      Totals:         0       0       0       0       0       0       0       0       0
  3926 ;;Total ram usage:        0 bytes
  3927 ;; Hardware stack levels used:    1
  3928 ;; This function calls:
  3929 ;;		Nothing
  3930 ;; This function is called by:
  3931 ;;		i2_ContarPulsos
  3932 ;; This function uses a non-reentrant model
  3933 ;;
  3934                           
  3935                           	psect	text30
  3936  001534                     __ptext30:
  3937                           	opt callstack 0
  3938  001534                     i2_OneShot:
  3939                           	opt callstack 23
  3940  001534                     
  3941                           ;PWM.c: 103:     if(ons==1) return;
  3942  001534  042C               	decf	_ons^0,w,c
  3943  001536  102D               	iorwf	(_ons+1)^0,w,c
  3944  001538  A4D8               	btfss	status,2,c
  3945  00153A  EFA1  F00A         	goto	i2u25_41
  3946  00153E  EFA3  F00A         	goto	i2u25_40
  3947  001542                     i2u25_41:
  3948  001542  EFA5  F00A         	goto	i2l371
  3949  001546                     i2u25_40:
  3950  001546  EFB2  F00A         	goto	i2l372
  3951  00154A                     i2l371:
  3952                           
  3953                           ;PWM.c: 104:     if(PORTCbits.CCP1==1)
  3954  00154A  A482               	btfss	130,2,c	;volatile
  3955  00154C  EFAA  F00A         	goto	i2u26_41
  3956  001550  EFAC  F00A         	goto	i2u26_40
  3957  001554                     i2u26_41:
  3958  001554  EFB2  F00A         	goto	i2l372
  3959  001558                     i2u26_40:
  3960  001558                     
  3961                           ;PWM.c: 105:     {;PWM.c: 106:         PasosActuales++;
  3962  001558  4A2E               	infsnz	_PasosActuales^0,f,c
  3963  00155A  2A2F               	incf	(_PasosActuales+1)^0,f,c
  3964  00155C                     
  3965                           ;PWM.c: 107:         ons=1;
  3966  00155C  0E00               	movlw	0
  3967  00155E  6E2D               	movwf	(_ons+1)^0,c
  3968  001560  0E01               	movlw	1
  3969  001562  6E2C               	movwf	_ons^0,c
  3970  001564                     i2l372:
  3971  001564  0012               	return		;funcret
  3972  001566                     __end_ofi2_OneShot:
  3973                           	opt callstack 0
  3974                           
  3975                           	psect	rparam
  3976  0000                     
  3977                           	psect	temp
  3978  00004F                     btemp:
  3979                           	opt callstack 0
  3980  00004F                     	ds	1
  3981  0000                     int$flags	set	btemp
  3982  0000                     wtemp8	set	btemp+1
  3983  0000                     ttemp5	set	btemp+1
  3984  0000                     ttemp6	set	btemp+4
  3985  0000                     ttemp7	set	btemp+8
  3986                           tosu	equ	0xFFF
  3987                           tosh	equ	0xFFE
  3988                           tosl	equ	0xFFD
  3989                           stkptr	equ	0xFFC
  3990                           pclatu	equ	0xFFB
  3991                           pclath	equ	0xFFA
  3992                           pcl	equ	0xFF9
  3993                           tblptru	equ	0xFF8
  3994                           tblptrh	equ	0xFF7
  3995                           tblptrl	equ	0xFF6
  3996                           tablat	equ	0xFF5
  3997                           prodh	equ	0xFF4
  3998                           prodl	equ	0xFF3
  3999                           indf0	equ	0xFEF
  4000                           postinc0	equ	0xFEE
  4001                           postdec0	equ	0xFED
  4002                           preinc0	equ	0xFEC
  4003                           plusw0	equ	0xFEB
  4004                           fsr0h	equ	0xFEA
  4005                           fsr0l	equ	0xFE9
  4006                           wreg	equ	0xFE8
  4007                           indf1	equ	0xFE7
  4008                           postinc1	equ	0xFE6
  4009                           postdec1	equ	0xFE5
  4010                           preinc1	equ	0xFE4
  4011                           plusw1	equ	0xFE3
  4012                           fsr1h	equ	0xFE2
  4013                           fsr1l	equ	0xFE1
  4014                           bsr	equ	0xFE0
  4015                           indf2	equ	0xFDF
  4016                           postinc2	equ	0xFDE
  4017                           postdec2	equ	0xFDD
  4018                           preinc2	equ	0xFDC
  4019                           plusw2	equ	0xFDB
  4020                           fsr2h	equ	0xFDA
  4021                           fsr2l	equ	0xFD9
  4022                           status	equ	0xFD8


Data Sizes:
    Strings     169
    Constant    0
    Data        10
    BSS         27
    Persistent  6
    Stack       0

Auto Spaces:
    Space          Size  Autos    Used
    COMRAM           94     35      78
    BANK0           160      0       0
    BANK1           256      0       0
    BANK2           256      0       0
    BANK3           256      0       0
    BANK4           256      0       0
    BANK5           256      0       0
    BANK6           256      0       0
    BANK7           256      0       0

Pointer List with Targets:

    myPrintf@PointString	PTR unsigned char  size(2) Largest target is 37
		 -> STR_7(CODE[17]), STR_6(CODE[27]), STR_5(CODE[37]), STR_4(CODE[34]), 
		 -> STR_3(CODE[29]), STR_2(CODE[14]), STR_1(CODE[11]), 

    coord@y	PTR unsigned short  size(2) Largest target is 2
		 -> cord_y(COMRAM[2]), 

    coord@x	PTR unsigned short  size(2) Largest target is 2
		 -> cord_x(COMRAM[2]), 

    coord@P2	PTR unsigned char  size(2) Largest target is 1
		 -> Par2(COMRAM[1]), 

    coord@L	PTR unsigned char  size(2) Largest target is 1
		 -> letter(COMRAM[1]), 

    coord@P1	PTR unsigned char  size(2) Largest target is 1
		 -> Par1(COMRAM[1]), 


Critical Paths under _main in COMRAM

    _main->_verification
    _start->_myPrintf
    _end->_myPrintf
    _cmd->_coord
    _coord->_UARTRead
    _Par_Validated->_myPrintf
    _Ins_Validated->_myPrintf
    _Coord_Validated->_myPrintf
    _myPrintf->_UARTWrite
    _PrintMyActulPosition->___lwdiv
    ___lwdiv->___lwmod
    _PWM->___wmul
    _Configuracion->_UARTConfi
    _UARTConfi->___aldiv

Critical Paths under _INT_ISR in COMRAM

    _GoToInitialYPosition->i2_ContarPulsos
    _GoToInitialXPosition->i2_ContarPulsos

Critical Paths under _main in BANK0

    None.

Critical Paths under _INT_ISR in BANK0

    None.

Critical Paths under _main in BANK1

    None.

Critical Paths under _INT_ISR in BANK1

    None.

Critical Paths under _main in BANK2

    None.

Critical Paths under _INT_ISR in BANK2

    None.

Critical Paths under _main in BANK3

    None.

Critical Paths under _INT_ISR in BANK3

    None.

Critical Paths under _main in BANK4

    None.

Critical Paths under _INT_ISR in BANK4

    None.

Critical Paths under _main in BANK5

    None.

Critical Paths under _INT_ISR in BANK5

    None.

Critical Paths under _main in BANK6

    None.

Critical Paths under _INT_ISR in BANK6

    None.

Critical Paths under _main in BANK7

    None.

Critical Paths under _INT_ISR in BANK7

    None.

Call Graph Tables:

 ---------------------------------------------------------------------------------
 (Depth) Function   	        Calls       Base Space   Used Autos Params    Refs
 ---------------------------------------------------------------------------------
 (0) _main                                                 0     0      0    9149
                      _Configuracion
                         _Movimiento
               _PrintMyActulPosition
                       _verification
 ---------------------------------------------------------------------------------
 (1) _verification                                         2     2      0    5292
                                             33 COMRAM     2     2      0
                    _Coord_Validated
                      _Ins_Validated
                      _Par_Validated
                                _cmd
                                _end
                              _start
 ---------------------------------------------------------------------------------
 (2) _start                                                0     0      0     710
                          _UARTWrite
                           _myPrintf
 ---------------------------------------------------------------------------------
 (2) _end                                                  0     0      0     710
                          _UARTWrite
                           _myPrintf
 ---------------------------------------------------------------------------------
 (2) _cmd                                                  0     0      0    1742
                          _UARTWrite
                              _coord
                           _myPrintf
 ---------------------------------------------------------------------------------
 (3) _coord                                               29    19     10    1032
                                              4 COMRAM    29    19     10
                           _UARTRead
 ---------------------------------------------------------------------------------
 (4) _UARTRead                                             1     1      0      15
                                              3 COMRAM     1     1      0
 ---------------------------------------------------------------------------------
 (2) _Par_Validated                                        0     0      0     710
                          _UARTWrite
                           _myPrintf
 ---------------------------------------------------------------------------------
 (2) _Ins_Validated                                        0     0      0     710
                          _UARTWrite
                           _myPrintf
 ---------------------------------------------------------------------------------
 (2) _Coord_Validated                                      0     0      0     710
                          _UARTWrite
                           _myPrintf
 ---------------------------------------------------------------------------------
 (3) _myPrintf                                             5     3      2     688
                                              4 COMRAM     5     3      2
                          _UARTWrite
 ---------------------------------------------------------------------------------
 (1) _PrintMyActulPosition                                12    12      0    2189
                                             15 COMRAM    12    12      0
                          _UARTWrite
                            ___lwdiv
                            ___lwmod
 ---------------------------------------------------------------------------------
 (2) ___lwmod                                              5     1      4    1071
                                              3 COMRAM     5     1      4
 ---------------------------------------------------------------------------------
 (2) ___lwdiv                                              7     3      4     770
                                              8 COMRAM     7     3      4
                            ___lwmod (ARG)
 ---------------------------------------------------------------------------------
 (1) _Movimiento                                          16    16      0     943
                                              9 COMRAM    16    16      0
                                _PWM
                          _UARTWrite
 ---------------------------------------------------------------------------------
 (4) _UARTWrite                                            1     1      0      22
                                              3 COMRAM     1     1      0
 ---------------------------------------------------------------------------------
 (2) _PWM                                                  0     0      0     737
                       _ContarPulsos
                             ___wmul
 ---------------------------------------------------------------------------------
 (3) ___wmul                                               6     2      4     463
                                              3 COMRAM     6     2      4
 ---------------------------------------------------------------------------------
 (3) _ContarPulsos                                         2     0      2     274
                                              3 COMRAM     2     0      2
                            _OneShot
                       _ResetOneShot
 ---------------------------------------------------------------------------------
 (4) _ResetOneShot                                         0     0      0       0
 ---------------------------------------------------------------------------------
 (4) _OneShot                                              0     0      0       0
 ---------------------------------------------------------------------------------
 (1) _Configuracion                                        0     0      0     725
                          _UARTConfi
 ---------------------------------------------------------------------------------
 (2) _UARTConfi                                            6     4      2     725
                                             17 COMRAM     6     4      2
                            ___aldiv
 ---------------------------------------------------------------------------------
 (3) ___aldiv                                             14     6      8     604
                                              3 COMRAM    14     6      8
 ---------------------------------------------------------------------------------
 Estimated maximum stack depth 4
 ---------------------------------------------------------------------------------
 (Depth) Function   	        Calls       Base Space   Used Autos Params    Refs
 ---------------------------------------------------------------------------------
 (5) _INT_ISR                                              1     1      0     170
                                              2 COMRAM     1     1      0
               _GoToInitialXPosition
               _GoToInitialYPosition
                        i2_UARTWrite
 ---------------------------------------------------------------------------------
 (6) i2_UARTWrite                                          1     1      0      22
                                              0 COMRAM     1     1      0
 ---------------------------------------------------------------------------------
 (6) _GoToInitialYPosition                                 0     0      0      74
                     i2_ContarPulsos
 ---------------------------------------------------------------------------------
 (6) _GoToInitialXPosition                                 0     0      0      74
                     i2_ContarPulsos
 ---------------------------------------------------------------------------------
 (7) i2_ContarPulsos                                       2     0      2      74
                                              0 COMRAM     2     0      2
                          i2_OneShot
                     i2_ResetOneShot
 ---------------------------------------------------------------------------------
 (8) i2_ResetOneShot                                       0     0      0       0
 ---------------------------------------------------------------------------------
 (8) i2_OneShot                                            0     0      0       0
 ---------------------------------------------------------------------------------
 Estimated maximum stack depth 8
 ---------------------------------------------------------------------------------

 Call Graph Graphs:

 _main (ROOT)
   _Configuracion
     _UARTConfi
       ___aldiv
   _Movimiento
     _PWM
       _ContarPulsos
         _OneShot
         _ResetOneShot
       ___wmul
     _UARTWrite
   _PrintMyActulPosition
     _UARTWrite
     ___lwdiv
       ___lwmod (ARG)
     ___lwmod
   _verification
     _Coord_Validated
       _UARTWrite
       _myPrintf
         _UARTWrite
     _Ins_Validated
       _UARTWrite
       _myPrintf
         _UARTWrite
     _Par_Validated
       _UARTWrite
       _myPrintf
         _UARTWrite
     _cmd
       _UARTWrite
       _coord
         _UARTRead
       _myPrintf
         _UARTWrite
     _end
       _UARTWrite
       _myPrintf
         _UARTWrite
     _start
       _UARTWrite
       _myPrintf
         _UARTWrite

 _INT_ISR (ROOT)
   _GoToInitialXPosition
     i2_ContarPulsos
       i2_OneShot
       i2_ResetOneShot
   _GoToInitialYPosition
     i2_ContarPulsos
       i2_OneShot
       i2_ResetOneShot
   i2_UARTWrite

 Address spaces:
Name               Size   Autos  Total    Cost      Usage
BIGRAM             7FF      0       0      21        0.0%
EEDATA             100      0       0       0        0.0%
BITBANK7           100      0       0      18        0.0%
BANK7              100      0       0      19        0.0%
BITBANK6           100      0       0      16        0.0%
BANK6              100      0       0      17        0.0%
BITBANK5           100      0       0      14        0.0%
BANK5              100      0       0      15        0.0%
BITBANK4           100      0       0      12        0.0%
BANK4              100      0       0      13        0.0%
BITBANK3           100      0       0      10        0.0%
BANK3              100      0       0      11        0.0%
BITBANK2           100      0       0       8        0.0%
BANK2              100      0       0       9        0.0%
BITBANK1           100      0       0       6        0.0%
BANK1              100      0       0       7        0.0%
BITBANK0            A0      0       0       4        0.0%
BANK0               A0      0       0       5        0.0%
BITCOMRAM           5E      0       0       0        0.0%
COMRAM              5E     23      4E       1       83.0%
BITSFR               0      0       0     200        0.0%
SFR                  0      0       0     200        0.0%
STACK                0      0       0       2        0.0%
NULL                 0      0       0       0        0.0%
ABS                  0      0      4E      20        0.0%
DATA                 0      0      4E       3        0.0%
CODE                 0      0       0       0        0.0%


Microchip Technology PIC18 Macro Assembler V2.10 build 88905656 
Symbol Table                                                                                   Mon Dec 09 16:21:34 2019

                           l51 11E0                             l61 1406                             l47 166C  
                           l56 148E                             l72 1600                             l68 144E  
                           u20 164C                             u21 1648                             u30 1514  
                           u31 1510                             u40 1526                             u41 1522  
                           u50 1574                             u51 1570                             u60 1586  
                           u61 1582                    __CFG_BOR$ON 000000            ___wmul@multiplicand 0006  
                  __CFG_BORV$3 000000               ??i2_ContarPulsos 0003                   __CFG_CP0$OFF 000000  
                 __CFG_CP1$OFF 000000                   __CFG_CP2$OFF 000000                   __CFG_CP3$OFF 000000  
                          l130 1670                            l133 1682                            l127 1174  
                          l136 163E                            l138 164C                            l139 1656  
                          l351 0B20                            l191 0906                            l360 0BE4  
                          l354 0B4A                            l371 1518                            l355 0B70  
                          l347 0A86                            l523 0F54                            l372 1532  
                          l364 131C                            l348 0AAC                            l196 098E  
                          l367 135A                            l295 12A4                            l199 0A4A  
                          l463 0FFC                            l376 1578                            l368 135E  
                          l288 0D5C                            l377 158E                            l660 15DE  
                          l657 1302                            l739 0E68                   __CFG_CPB$OFF 000000  
                          _PR2 000FCB                   __CFG_CPD$OFF 000000                            u800 098C  
                          u801 0988                            u730 167E                            u810 09A0  
                          u731 167A                            u811 099C                            u900 0E16  
                          u740 1272                            u820 09B2                            u901 0E12  
                          u741 126E                            u821 09AE                            u910 0E48  
                          u830 132A                            u750 12A4                            u911 0E44  
                          u831 1326                            u751 12A0                            u840 1340  
                          u760 08E4                            u920 11C6                            u841 133C  
                          u761 08E0                            u921 11C2                            u850 135A  
                          u930 1462                            u770 0906                            u851 1356  
                          u931 145E                            u771 0902                            u860 0D70  
                          u940 1474                            u780 0914                            u861 0D6C  
                          u941 1470                            u781 0910                            u870 0D92  
                          u950 13CE                            u790 0970                            u871 0D8E  
                          u951 13CA                            u791 096C                            u880 0DCC  
                          u960 13EA                            u881 0DC8                            u961 13E6  
                          u890 0DEE                            u970 141E                            u891 0DEA  
                          u971 141A                            u980 1434                            u981 1430  
                          u990 0A6E                            u991 0A6A                            _PWM 0A4C  
               ??_ContarPulsos 0006         __end_ofi2_ResetOneShot 15BA                            _cmd 1176  
                          _end 15E0                            _ons 002C                            wreg 000FE8  
                   _TXSTA1bits 000FAC                   __CFG_LVP$OFF 000000                           ?_PWM 0001  
                  coord@buffer 0013                   __CFG_WDT$OFF 000000                           l2001 08B0  
                         l2011 08D0                           l2101 0DCC                           l2021 0918  
                         l2013 08E4                           l2111 0E16                           l2103 0DD4  
                         l1151 10FA                           l2031 0944                           l2023 0928  
                         l2015 08E6                           l2007 08BA                           l2121 0E48  
                         l2113 0E26                           l2105 0DE0                           l1161 123C  
                         l2201 1408                           l2041 0970                           l2033 0950  
                         l2025 092A                           l2017 08EA                           l2009 08C0  
                         l2123 0E58                           l2115 0E28                           l2107 0DEE  
                         l2203 141E                           l2211 143A                           l2051 09B6  
                         l2043 098C                           l2019 0914                           l2027 092C  
                         l2131 166A                           l2117 0E32                           l2109 0DF8  
                         l2301 1090                           l2213 1446                           l2205 1434  
                         l2045 0990                           l2029 0938                           l2141 11C6  
                         l2221 15E6                           l1158 1102                           l2119 0E38  
                         l2231 1108                           l1343 1502                           l2071 132E  
                         l2063 1304                           l2311 10C8                           l2303 1098  
                         l2215 144C                           l2055 09C2                           l2047 09A0  
                         l2039 0954                           l2151 11DE                           l2135 1176  
                         l2223 15F2                           l2127 1658                           l1168 1244  
                         l2241 116E                           l2233 1166                           l1353 1566  
                         l2073 1340                           l2065 1314                           l2321 10F4  
                         l2313 10CE                           l2305 10AA                           l1337 163E  
                         l2057 09C2                           l2049 09B2                           l2137 117C  
                         l2225 15F8                           l2129 165E                           ?_cmd 0001  
                         l2091 0D84                           l2083 0D5E                           l2243 1170  
                         l2235 1168                           l1347 1526                           l2075 1344  
                         l2067 1316                           l2251 0A6E                           l2315 10E4  
                         l2307 10B2                           l2331 1212                           l2323 11E2  
                         l2155 1450                           l1339 1650                           l2059 0A42  
                         l2147 11CC                           l2139 1188                           l2219 15E0  
                         l2411 0F7C                           l2403 0F56                           l2093 0D92  
                         l2085 0D62                           l2245 1172                           l2237 116A  
                         l2229 1104                           l1349 152A                           l1357 1586  
                         l2069 132A                           l2077 15BA                           l2261 0AB0  
                         l2253 0A7A                           l2501 0F30                           l2317 10EC  
                         l2309 10BA                           l2333 1228                           l2325 11F4  
                         l2173 13BC                           l2157 1462                           l2165 147A  
                         l2149 11D8                           l2421 0FA0                           l2413 0F86  
                         l2405 0F5E                           l2095 0DA2                           l2087 0D70  
                         l2239 116C                           l2079 15D6                           l2271 0B02  
                         l2263 0AB8                           l2255 0A94                           l2247 0A4C  
                         l2503 0F4C                           l2319 10EE                           l2335 1230  
                         l2327 11FC                           l2431 0CE2                           l2175 13CE  
                         l2183 13D8                           l2167 1486                           l2159 1474  
                         l2415 0F90                           l2407 0F68                           l2423 0FEA  
                         l2097 0DA6                           l2089 0D80                           l2281 0B5C  
                         l2273 0B14                           l2265 0AD4                           l2257 0A98  
                         l2249 0A5C                           l2337 1236                           l2329 1204  
                         l2441 0D00                           l2185 13EA                           l2193 13F2  
                         l2177 13D2                           l2169 148C                           l2417 0F98  
                         l2409 0F72                           l2099 0DB6                           l2291 0BA4  
                         l2283 0B64                           l2275 0B32                           l2267 0AE0  
                         l2259 0AA0                           l2451 0D2A                           l2443 0D1C  
                         l2195 13FE                           ?_end 0001                           l2381 12D4  
                         l2373 12A6                           l2293 0BB6                           l2285 0B74  
                         l2277 0B3E                           l2269 0AF2                           l2461 0E7E  
                         l2453 0D3C                           l2445 0D22                           l2437 0CEA  
                         l2429 0BE6                           l2197 1404                           l2541 14D6  
                         l2391 12F0                           l2383 12E0                           l2375 12AA  
                         l2295 0BC6                           l2287 0B7C                           l2279 0B58  
                         l2463 0E80                           l2455 0D40                           l2439 0CFC  
                         l2551 14EE                           l2543 14DE                           l2393 12F4  
                         l2385 12E4                           l2377 12AC                           l2297 0BD8  
                         l2289 0B98                           l2465 0E96                           l2481 0EE8  
                         l2457 0E6A                           l2561 0FB4                           l2553 14F2  
                         l2545 14E0                           l2537 14CA                           l2395 12F8  
                         l2387 12E8                           l2379 12D2                           l2491 0F12  
                         l2483 0EF8                           l2475 0EB2                           l2467 0E98  
                         l2459 0E7A                           l2555 14F6                           l2547 14E2  
                         l2539 14CE                           l2397 12FC                           l2389 12EC  
                         l2485 0EFA                           l2477 0EC4                           l2469 0EAA  
                         l2549 14EA                           l2399 1300                           l2487 0EFE  
                         l2479 0EC8                           l2497 0F1A                           l2489 0F00  
                         l2499 0F2C                           l1981 1246                           l1977 1670  
                         l1993 1276                           l1979 167E                           l1995 1292  
                         l1987 124A                           l1997 1294                           l1999 08AC  
                         STR_1 089F                           STR_2 0891                           STR_3 0848  
                         STR_4 0826                           STR_5 0801                           STR_6 0865  
                         STR_7 0880                           u1000 0A94                           u1001 0A90  
                         u1010 0AF2                           u1011 0AEE                           u1020 0B14  
                         u1100 11F4                           u1021 0B10                           u1101 11F0  
                         u1030 0B32                           u1110 1212                           u1031 0B2E  
                         u1111 120E                           u1040 0B58                           u1120 1228  
                         u1041 0B54                           u1201 0EA2                           u1121 1224  
                         u1050 0BB6                           u1210 0EE4                           u1051 0BB2  
                         u1211 0EE0                           u1060 0BD8                           u1220 0EF8  
                         u1061 0BD4                           u1221 0EF4                           u1070 10AA  
                         u1231 0F0A                           u1071 10A6                           u1240 0F4C  
                         u1080 10C8                           u1160 0FFC                           u1241 0F48  
                         u1081 10C4                           u1161 0FF8                           u1090 10E4  
                         u1170 0D1C                           u1091 10E0                           u1171 0D18  
                         u1180 0D5C                           u1181 0D58                           u1190 0E7A  
                         _LATB 000F8A                __end_of_INT_ISR 1090                           u1191 0E76  
                         u1327 091E                           _LATC 000F8B                           _LATD 000F8C  
                         u1337 0E8A                           _TMR2 000FCC                    _BanderaDisX 0026  
                  _BanderaDisY 0024                           _Par1 003E                           _Par2 003C  
                         _main 14CA                           fsr2h 000FDA                           indf2 000FDF  
                         fsr1l 000FE1                           fsr2l 000FD9                           btemp 004F  
            ??_Coord_Validated 000A                           prodh 000FF4                           prodl 000FF3  
                         start 000E                  __CFG_IESO$OFF 000000                  __CFG_MCLRE$ON 000000  
                 ___param_bank 000000                          ??_PWM 000A                __end_of_OneShot 1534  
                _Ins_Validated 13BC                          ??_cmd 0022                          ??_end 000A  
              Movimiento@F3430 0044                Movimiento@F3433 003F                 __CFG_CCP2MX$ON 000000  
              __end_of___aldiv 0E6A                          ?_main 0001                          _CMCON 000FB4  
                        _T2CON 000FCA                __end_of___lwdiv 1104                __end_of___lwmod 1246  
                        i2l130 1686                          i2l133 1698                          i2l273 108C  
                        i2l371 154A                          i2l267 1046                          i2l372 1564  
                        i2l364 1378                          i2l367 13B6                          i2l376 15A2  
                        i2l368 13BA                          i2l377 15B8                          i2l395 163C  
                        i2l398 161E                          _RCREG 000FAE                  _Par_Validated 1450  
                        _SPBRG 000FAF                          _PORTB 000F81                          _PORTC 000F82  
                        _PORTD 000F83                ?i2_ResetOneShot 0001                          _TRISB 000F93  
                        _TRISC 000F94                          _TRISD 000F95                          _TXREG 000FAD  
                __CFG_PWRT$OFF 000000                  __CFG_WRT0$OFF 000000                  __CFG_WRT1$OFF 000000  
                __CFG_WRT2$OFF 000000                  __CFG_WRT3$OFF 000000             __size_of_UARTConfi 0072  
               __CFG_EBTR0$OFF 000000                 __CFG_FCMEN$OFF 000000                 __CFG_EBTR1$OFF 000000  
               __CFG_EBTR2$OFF 000000                 __CFG_EBTR3$OFF 000000               __end_of_UARTRead 1658  
                __CFG_WRTB$OFF 000000                  __CFG_WRTC$OFF 000000                  __CFG_WRTD$OFF 000000  
           __size_of_UARTWrite 0016                 __CFG_EBTRB$OFF 000000                          _click 0032  
                        _coord 08AC                          _start 1658             __size_ofi2_OneShot 0032  
                        tablat 000FF5                          plusw1 000FE3                          plusw2 000FDB  
                        ttemp5 0050                          ttemp6 0053                          ttemp7 0057  
                        status 000FD8                          wtemp8 0050                 __CFG_ICPRT$OFF 000000  
               __CFG_PBADEN$ON 000000                __initialization 1490                   __end_of_main 1502  
               ?_Ins_Validated 0001                   ?i2_UARTWrite 0001                         ??_main 0024  
               ?_Par_Validated 0001                  __activetblptr 000002                      ??_INT_ISR 0003  
__size_of_GoToInitialXPosition 001E                         _ADCON1 000FC1                         ?_coord 0005  
__size_of_GoToInitialYPosition 001E                         _CCPR1L 000FBE                         _CCPR2L 000FBB  
                       ?_start 0001                         i2l1511 1558                         i2l1513 155C  
                       i2l1521 15B0                         i2l1507 1534                         i2l1517 1590  
                       i2l2341 1370                         i2l2351 13A0                         i2l2343 1372  
                       i2l2511 1000                         i2l2345 1386                         i2l2361 1634  
                       i2l2353 1620                         i2l2521 1036                         i2l2513 100E  
                       i2l2347 138A                         i2l2339 1360                         i2l2355 1624  
                       i2l2371 1616                         i2l2363 1602                         i2l2507 1686  
                       i2l2531 106C                         i2l2523 1044                         i2l2515 1014  
                       i2l2349 139C                         i2l2357 1630                         i2l2365 1606  
                       i2l2509 1694                         i2l2533 107C                         i2l2525 1054  
                       i2l2517 1018                         i2l2359 1632                         i2l2367 1612  
                       i2l2535 108A                         i2l2527 105A                         i2l2519 1026  
                       i2l2369 1614                         i2l2529 105E                         _OSCCON 000FD3  
                       _TMR2ON 007E52               Movimiento@i_1065 0018                i2UARTWrite@data 0001  
                    ??_OneShot 0004           __end_of_ContarPulsos 1360                 __CFG_XINST$OFF 000000  
                       _PasosX 002A                         _PasosY 0028              __end_of_UARTConfi 1176  
                   _Movimiento 0E6A                    _CoordRelatX 0036                    _CoordRelatY 0034  
                    ??___aldiv 000C              __end_of_UARTWrite 1684                         ___wmul 15BA  
               __CFG_STVREN$ON 000000                      ??___lwdiv 000D                      ??___lwmod 0008  
                       _cord_x 003A                         _cord_y 0038                         _letter 003D  
                       clear_0 14B6              __end_ofi2_OneShot 1566                         coord@L 0007  
                       coord@i 001F                         coord@n 0021                         coord@x 0009  
                       coord@y 000B               __end_of_myPrintf 12A6                   __pdataCOMRAM 003F  
                 __mediumconst 0000                         tblptrh 000FF7                         tblptrl 000FF6  
 __end_of_PrintMyActulPosition 0D5E                         tblptru 000FF8                     __accesstop 0060  
      __end_of__initialization 14BC                  ___rparam_used 000001                ??_Ins_Validated 000A  
               __pcstackCOMRAM 0001                      ?_UARTRead 0001                  __end_of_coord 0A4C  
                __end_of_start 166E                ??_Par_Validated 000A                  ?_ResetOneShot 0001  
         coord@counterRevision 001E                 _UARTConfi$2012 0014                  _PasosActuales 002E  
              _Coord_Validated 1408                        ??_coord 000F                        ??_start 000A  
        __end_of_Configuracion 1304                     __pnvCOMRAM 0049                    ?_Movimiento 0001  
                      ?___wmul 0004                     ??_UARTRead 0004                        _CCP1CON 000FBD  
                      _CCP2CON 000FBA               ??i2_ResetOneShot 0001                 ??_ResetOneShot 0004  
         __size_ofi2_UARTWrite 0016                        _INT_ISR 0008                        i2u25_40 1546  
                      i2u25_41 1542                        i2u26_40 1558                        i2u26_41 1554  
                      i2u27_40 159E                        i2u27_41 159A                        i2u28_40 15B0  
                      i2u28_41 15AC          __size_of_ContarPulsos 005C                    Movimiento@i 0016  
              __CFG_VREGEN$OFF 000000                        _OneShot 1502                      ?_myPrintf 0005  
                      __Hparam 0000                        __Lparam 0000           _PrintMyActulPosition 0BE6  
                      ___aldiv 0D5E                __size_of___wmul 0026                        ___lwdiv 1090  
                      ___lwmod 11E2                   __psmallconst 0800                        __pcinit 1490  
                      __ramtop 0800                        __ptext0 14CA                        __ptext1 0F56  
                      __ptext2 1658                        __ptext3 15E0                        __ptext4 1176  
                      __ptext5 08AC                        __ptext6 163E                        __ptext7 1450  
                      __ptext8 13BC                        __ptext9 1408        __end_of_Coord_Validated 1450  
                 __size_of_PWM 019A                   __size_of_cmd 006C                   __size_of_end 0022  
                 _ContarPulsos 1304               ___aldiv@dividend 0004         Movimiento@loquequieras 000C  
                      coord@P1 0005                        coord@P2 000D            __size_of_Movimiento 00EC  
      __size_ofi2_ContarPulsos 005C                 __pintcode_body 0FFE           end_of_initialization 14BC  
                __Lmediumconst 0000                        int_func 0FFE                     ??_myPrintf 0007  
 __end_of_GoToInitialXPosition 163E          ?_PrintMyActulPosition 0001   __end_of_GoToInitialYPosition 1620  
                    _RCSTAbits 000FAB               ___aldiv@quotient 000E                        postdec1 000FE5  
                      postdec2 000FDD                        postinc0 000FEE                        postinc2 000FDE  
                    _UARTConfi 1104                      _UARTWrite 166E                      _PORTBbits 000F81  
                    _PORTCbits 000F82                      _PORTDbits 000F83      _PrintMyActulPosition$2013 0016  
                    i2_OneShot 1534                UARTRead@Lecture 0004                      _TRISCbits 000F94  
                ?_verification 0001            i2ContarPulsos@pasos 0001                      _TXSTAbits 000FAC  
         __end_of_ResetOneShot 1590            myPrintf@PointString 0005                     ?_UARTConfi 0012  
               __end_of___wmul 15E0                  __pidataCOMRAM 169A                      _CoordAntX 004B  
                    _CoordAntY 0049              __size_of_UARTRead 001A                     ?_UARTWrite 0001  
             ?_Coord_Validated 0001                     ?i2_OneShot 0001            start_initialization 1490  
                  __end_of_PWM 0BE6                    __end_of_cmd 11E2                    __end_of_end 1602  
               ??_verification 0022                  UARTConfi@BAUD 0012                      _NextState 0033  
       ??_PrintMyActulPosition 0010                   ??_Movimiento 000A          __end_of_Ins_Validated 1408  
                     ??___wmul 0008               __CFG_LPT1OSC$OFF 000000          __end_of_Par_Validated 1490  
                  __pbssCOMRAM 0024                       ?_INT_ISR 0001           _GoToInitialXPosition 1620  
               i2_ContarPulsos 1360           _GoToInitialYPosition 1602             __end_of_Movimiento 0F56  
      _ControlFlagVerification 004D                       ?_OneShot 0001               ___lwdiv@dividend 0009  
                    __pintcode 0008              __size_of_myPrintf 0060                       ?___aldiv 0004  
    PrintMyActulPosition@i_810 001A                       ?___lwdiv 0009                       ?___lwmod 0004  
                  ??_UARTConfi 0014                  ??i2_UARTWrite 0001                    ??_UARTWrite 0004  
       __size_of_Configuracion 005E                    __smallconst 0800                    ??i2_OneShot 0001  
       __end_ofi2_ContarPulsos 13BC          ?_GoToInitialXPosition 0001          ?_GoToInitialYPosition 0001  
             ___lwdiv@quotient 000D                 __size_of_coord 01A0          __size_of_ResetOneShot 002A  
               __size_of_start 0016                ___aldiv@divisor 0008                ___aldiv@counter 000C  
               ___wmul@product 0008                       i2u113_40 1386                       i2u113_41 1382  
                     i2u114_40 139C                       i2u130_40 106C                       i2u114_41 1398  
                     i2u130_41 1068                       i2u115_40 13B6                       i2u131_40 108A  
                     i2u115_41 13B2                       i2u131_41 1086                       i2u125_40 1694  
                     i2u125_41 1690                       i2u126_40 100E                       i2u126_41 100A  
                     i2u134_47 102C                       i2u127_40 1026                       i2u127_41 1022  
                     i2u135_47 1072                       i2u128_40 1044                       i2u128_41 1040  
                     i2u129_40 1054                       i2u129_41 1050                       _PIR1bits 000F9E  
                     _RCONbits 000FD0               __CFG_WDTPS$32768 000000                       _UARTRead 163E  
         __end_of_verification 0FFE              ___wmul@multiplier 0004          PrintMyActulPosition@a 0010  
        PrintMyActulPosition@b 0013          PrintMyActulPosition@i 0018                   _ResetOneShot 1566  
                    coord@read 001C                ?i2_ContarPulsos 0001            __end_ofi2_UARTWrite 169A  
             __size_of_INT_ISR 1088        __size_ofi2_ResetOneShot 002A                  UARTWrite@data 0004  
                  _INTCON2bits 000FF1                    _INTCON3bits 000FF0                      copy_data0 14A4  
                _Configuracion 12A6                       __Hrparam 0000               __size_of_OneShot 0032  
                     __Lrparam 0000               __size_of___aldiv 010C               __size_of___lwdiv 0074  
             __size_of___lwmod 0064              ContarPulsos@pasos 0004         ??_GoToInitialXPosition 0003  
       ??_GoToInitialYPosition 0003                ___lwdiv@divisor 000B                ___lwdiv@counter 000F  
                    myPrintf@i 0009                       __ptext10 1246                       __ptext11 0BE6  
                     __ptext20 1502                       __ptext12 11E2                       __ptext21 12A6  
                     __ptext13 1090                       __ptext30 1534                       __ptext22 1104  
                     __ptext14 0E6A                       __ptext23 0D5E                       __ptext15 166E  
                     __ptext16 0A4C                       __ptext25 1684                       __ptext17 15BA  
                     __ptext26 1602                       __ptext18 1304                       __ptext27 1620  
                     __ptext19 1566                       __ptext28 1360                       __ptext29 1590  
               ?_Configuracion 0001                  __size_of_main 0038                       _myPrintf 1246  
      Movimiento@loquequieras2 0011                     _CVRCONbits 000FB5                       int$flags 004F  
                  i2_UARTWrite 1684                     _INTCONbits 000FF2       __size_of_Coord_Validated 0048  
                     intlevel2 0000               ___lwmod@dividend 0004                     _RCSTA1bits 000FAB  
        __size_of_verification 00A8  __size_of_PrintMyActulPosition 0178            __CFG_FOSC$INTOSC_EC 000000  
              ___lwmod@divisor 0006                  ?_ContarPulsos 0004                ___lwmod@counter 0008  
                 ___aldiv@sign 000D                 i2_ResetOneShot 1590                ??_Configuracion 0018  
       __size_of_Ins_Validated 004C                   _verification 0F56                _pasosRecorridos 0030  
       __size_of_Par_Validated 0040  
